
Software/User_Codes/matmul/matmul_firmware.elf:     file format elf32-littleriscv


Disassembly of section .text:

00010000 <_start>:
   10000:	00018197          	auipc	gp,0x18
   10004:	2d018193          	addi	gp,gp,720 # 282d0 <__global_pointer$>
   10008:	82818513          	addi	a0,gp,-2008 # 27af8 <_edata>
   1000c:	8b018613          	addi	a2,gp,-1872 # 27b80 <_end>
   10010:	40a60633          	sub	a2,a2,a0
   10014:	00000593          	li	a1,0
   10018:	558010ef          	jal	ra,11570 <memset>
   1001c:	00001517          	auipc	a0,0x1
   10020:	46050513          	addi	a0,a0,1120 # 1147c <__libc_fini_array>
   10024:	404010ef          	jal	ra,11428 <atexit>
   10028:	4b4010ef          	jal	ra,114dc <__libc_init_array>
   1002c:	00012503          	lw	a0,0(sp)
   10030:	00410593          	addi	a1,sp,4
   10034:	00000613          	li	a2,0
   10038:	7e0000ef          	jal	ra,10818 <main>
   1003c:	40c0106f          	j	11448 <exit>

00010040 <__do_global_dtors_aux>:
   10040:	8381c783          	lbu	a5,-1992(gp) # 27b08 <completed.5434>
   10044:	04079463          	bnez	a5,1008c <__do_global_dtors_aux+0x4c>
   10048:	ffff0797          	auipc	a5,0xffff0
   1004c:	fb878793          	addi	a5,a5,-72 # 0 <threadsense.2617>
   10050:	02078863          	beqz	a5,10080 <__do_global_dtors_aux+0x40>
   10054:	ff010113          	addi	sp,sp,-16
   10058:	00016517          	auipc	a0,0x16
   1005c:	48850513          	addi	a0,a0,1160 # 264e0 <__EH_FRAME_BEGIN__>
   10060:	00112623          	sw	ra,12(sp)
   10064:	00000097          	auipc	ra,0x0
   10068:	000000e7          	jalr	zero # 0 <threadsense.2617>
   1006c:	00c12083          	lw	ra,12(sp)
   10070:	00100793          	li	a5,1
   10074:	82f18c23          	sb	a5,-1992(gp) # 27b08 <completed.5434>
   10078:	01010113          	addi	sp,sp,16
   1007c:	00008067          	ret
   10080:	00100793          	li	a5,1
   10084:	82f18c23          	sb	a5,-1992(gp) # 27b08 <completed.5434>
   10088:	00008067          	ret
   1008c:	00008067          	ret

00010090 <frame_dummy>:
   10090:	ffff0797          	auipc	a5,0xffff0
   10094:	f7078793          	addi	a5,a5,-144 # 0 <threadsense.2617>
   10098:	00078c63          	beqz	a5,100b0 <frame_dummy+0x20>
   1009c:	83c18593          	addi	a1,gp,-1988 # 27b0c <object.5439>
   100a0:	00016517          	auipc	a0,0x16
   100a4:	44050513          	addi	a0,a0,1088 # 264e0 <__EH_FRAME_BEGIN__>
   100a8:	00000317          	auipc	t1,0x0
   100ac:	00000067          	jr	zero # 0 <threadsense.2617>
   100b0:	00008067          	ret

000100b4 <verify>:
   100b4:	fc010113          	addi	sp,sp,-64
   100b8:	02812e23          	sw	s0,60(sp)
   100bc:	04010413          	addi	s0,sp,64
   100c0:	fca42623          	sw	a0,-52(s0)
   100c4:	fcb42423          	sw	a1,-56(s0)
   100c8:	fcc42223          	sw	a2,-60(s0)
   100cc:	fe042623          	sw	zero,-20(s0)
   100d0:	0a80006f          	j	10178 <verify+0xc4>
   100d4:	fec42783          	lw	a5,-20(s0)
   100d8:	00279793          	slli	a5,a5,0x2
   100dc:	fc842703          	lw	a4,-56(s0)
   100e0:	00f707b3          	add	a5,a4,a5
   100e4:	0007a783          	lw	a5,0(a5)
   100e8:	fef42423          	sw	a5,-24(s0)
   100ec:	fec42783          	lw	a5,-20(s0)
   100f0:	00178793          	addi	a5,a5,1
   100f4:	00279793          	slli	a5,a5,0x2
   100f8:	fc842703          	lw	a4,-56(s0)
   100fc:	00f707b3          	add	a5,a4,a5
   10100:	0007a783          	lw	a5,0(a5)
   10104:	fef42223          	sw	a5,-28(s0)
   10108:	fec42783          	lw	a5,-20(s0)
   1010c:	00279793          	slli	a5,a5,0x2
   10110:	fc442703          	lw	a4,-60(s0)
   10114:	00f707b3          	add	a5,a4,a5
   10118:	0007a783          	lw	a5,0(a5)
   1011c:	fef42023          	sw	a5,-32(s0)
   10120:	fec42783          	lw	a5,-20(s0)
   10124:	00178793          	addi	a5,a5,1
   10128:	00279793          	slli	a5,a5,0x2
   1012c:	fc442703          	lw	a4,-60(s0)
   10130:	00f707b3          	add	a5,a4,a5
   10134:	0007a783          	lw	a5,0(a5)
   10138:	fcf42e23          	sw	a5,-36(s0)
   1013c:	fe842703          	lw	a4,-24(s0)
   10140:	fe042783          	lw	a5,-32(s0)
   10144:	00f70863          	beq	a4,a5,10154 <verify+0xa0>
   10148:	fec42783          	lw	a5,-20(s0)
   1014c:	00178793          	addi	a5,a5,1
   10150:	0a00006f          	j	101f0 <verify+0x13c>
   10154:	fe442703          	lw	a4,-28(s0)
   10158:	fdc42783          	lw	a5,-36(s0)
   1015c:	00f70863          	beq	a4,a5,1016c <verify+0xb8>
   10160:	fec42783          	lw	a5,-20(s0)
   10164:	00278793          	addi	a5,a5,2
   10168:	0880006f          	j	101f0 <verify+0x13c>
   1016c:	fec42783          	lw	a5,-20(s0)
   10170:	00278793          	addi	a5,a5,2
   10174:	fef42623          	sw	a5,-20(s0)
   10178:	fcc42783          	lw	a5,-52(s0)
   1017c:	01f7d713          	srli	a4,a5,0x1f
   10180:	00f707b3          	add	a5,a4,a5
   10184:	4017d793          	srai	a5,a5,0x1
   10188:	00179793          	slli	a5,a5,0x1
   1018c:	fec42703          	lw	a4,-20(s0)
   10190:	f4f742e3          	blt	a4,a5,100d4 <verify+0x20>
   10194:	fcc42783          	lw	a5,-52(s0)
   10198:	0017f793          	andi	a5,a5,1
   1019c:	04078863          	beqz	a5,101ec <verify+0x138>
   101a0:	fcc42703          	lw	a4,-52(s0)
   101a4:	400007b7          	lui	a5,0x40000
   101a8:	fff78793          	addi	a5,a5,-1 # 3fffffff <__global_pointer$+0x3ffd7d2f>
   101ac:	00f707b3          	add	a5,a4,a5
   101b0:	00279793          	slli	a5,a5,0x2
   101b4:	fc842703          	lw	a4,-56(s0)
   101b8:	00f707b3          	add	a5,a4,a5
   101bc:	0007a703          	lw	a4,0(a5)
   101c0:	fcc42683          	lw	a3,-52(s0)
   101c4:	400007b7          	lui	a5,0x40000
   101c8:	fff78793          	addi	a5,a5,-1 # 3fffffff <__global_pointer$+0x3ffd7d2f>
   101cc:	00f687b3          	add	a5,a3,a5
   101d0:	00279793          	slli	a5,a5,0x2
   101d4:	fc442683          	lw	a3,-60(s0)
   101d8:	00f687b3          	add	a5,a3,a5
   101dc:	0007a783          	lw	a5,0(a5)
   101e0:	00f70663          	beq	a4,a5,101ec <verify+0x138>
   101e4:	fcc42783          	lw	a5,-52(s0)
   101e8:	0080006f          	j	101f0 <verify+0x13c>
   101ec:	00000793          	li	a5,0
   101f0:	00078513          	mv	a0,a5
   101f4:	03c12403          	lw	s0,60(sp)
   101f8:	04010113          	addi	sp,sp,64
   101fc:	00008067          	ret

00010200 <verifyDouble>:
   10200:	fb010113          	addi	sp,sp,-80
   10204:	04112623          	sw	ra,76(sp)
   10208:	04812423          	sw	s0,72(sp)
   1020c:	04912223          	sw	s1,68(sp)
   10210:	05010413          	addi	s0,sp,80
   10214:	faa42e23          	sw	a0,-68(s0)
   10218:	fab42c23          	sw	a1,-72(s0)
   1021c:	fac42a23          	sw	a2,-76(s0)
   10220:	fe042623          	sw	zero,-20(s0)
   10224:	1140006f          	j	10338 <verifyDouble+0x138>
   10228:	fec42783          	lw	a5,-20(s0)
   1022c:	00379793          	slli	a5,a5,0x3
   10230:	fb842703          	lw	a4,-72(s0)
   10234:	00f707b3          	add	a5,a4,a5
   10238:	0047a803          	lw	a6,4(a5)
   1023c:	0007a783          	lw	a5,0(a5)
   10240:	fef42023          	sw	a5,-32(s0)
   10244:	ff042223          	sw	a6,-28(s0)
   10248:	fec42783          	lw	a5,-20(s0)
   1024c:	00178793          	addi	a5,a5,1
   10250:	00379793          	slli	a5,a5,0x3
   10254:	fb842703          	lw	a4,-72(s0)
   10258:	00f707b3          	add	a5,a4,a5
   1025c:	0047a803          	lw	a6,4(a5)
   10260:	0007a783          	lw	a5,0(a5)
   10264:	fcf42c23          	sw	a5,-40(s0)
   10268:	fd042e23          	sw	a6,-36(s0)
   1026c:	fec42783          	lw	a5,-20(s0)
   10270:	00379793          	slli	a5,a5,0x3
   10274:	fb442703          	lw	a4,-76(s0)
   10278:	00f707b3          	add	a5,a4,a5
   1027c:	0047a803          	lw	a6,4(a5)
   10280:	0007a783          	lw	a5,0(a5)
   10284:	fcf42823          	sw	a5,-48(s0)
   10288:	fd042a23          	sw	a6,-44(s0)
   1028c:	fec42783          	lw	a5,-20(s0)
   10290:	00178793          	addi	a5,a5,1
   10294:	00379793          	slli	a5,a5,0x3
   10298:	fb442703          	lw	a4,-76(s0)
   1029c:	00f707b3          	add	a5,a4,a5
   102a0:	0047a803          	lw	a6,4(a5)
   102a4:	0007a783          	lw	a5,0(a5)
   102a8:	fcf42423          	sw	a5,-56(s0)
   102ac:	fd042623          	sw	a6,-52(s0)
   102b0:	00100493          	li	s1,1
   102b4:	fd042603          	lw	a2,-48(s0)
   102b8:	fd442683          	lw	a3,-44(s0)
   102bc:	fe042503          	lw	a0,-32(s0)
   102c0:	fe442583          	lw	a1,-28(s0)
   102c4:	71d000ef          	jal	ra,111e0 <__eqdf2>
   102c8:	00050793          	mv	a5,a0
   102cc:	00078463          	beqz	a5,102d4 <verifyDouble+0xd4>
   102d0:	00000493          	li	s1,0
   102d4:	0ff4f793          	andi	a5,s1,255
   102d8:	fcf42223          	sw	a5,-60(s0)
   102dc:	00100493          	li	s1,1
   102e0:	fc842603          	lw	a2,-56(s0)
   102e4:	fcc42683          	lw	a3,-52(s0)
   102e8:	fd842503          	lw	a0,-40(s0)
   102ec:	fdc42583          	lw	a1,-36(s0)
   102f0:	6f1000ef          	jal	ra,111e0 <__eqdf2>
   102f4:	00050793          	mv	a5,a0
   102f8:	00078463          	beqz	a5,10300 <verifyDouble+0x100>
   102fc:	00000493          	li	s1,0
   10300:	0ff4f793          	andi	a5,s1,255
   10304:	fcf42023          	sw	a5,-64(s0)
   10308:	fc442703          	lw	a4,-60(s0)
   1030c:	fc042783          	lw	a5,-64(s0)
   10310:	00f777b3          	and	a5,a4,a5
   10314:	00079c63          	bnez	a5,1032c <verifyDouble+0x12c>
   10318:	fec42783          	lw	a5,-20(s0)
   1031c:	00178713          	addi	a4,a5,1
   10320:	fc442783          	lw	a5,-60(s0)
   10324:	00f707b3          	add	a5,a4,a5
   10328:	0a80006f          	j	103d0 <verifyDouble+0x1d0>
   1032c:	fec42783          	lw	a5,-20(s0)
   10330:	00278793          	addi	a5,a5,2
   10334:	fef42623          	sw	a5,-20(s0)
   10338:	fbc42783          	lw	a5,-68(s0)
   1033c:	01f7d713          	srli	a4,a5,0x1f
   10340:	00f707b3          	add	a5,a4,a5
   10344:	4017d793          	srai	a5,a5,0x1
   10348:	00179793          	slli	a5,a5,0x1
   1034c:	fec42703          	lw	a4,-20(s0)
   10350:	ecf74ce3          	blt	a4,a5,10228 <verifyDouble+0x28>
   10354:	fbc42783          	lw	a5,-68(s0)
   10358:	0017f793          	andi	a5,a5,1
   1035c:	06078863          	beqz	a5,103cc <verifyDouble+0x1cc>
   10360:	fbc42703          	lw	a4,-68(s0)
   10364:	200007b7          	lui	a5,0x20000
   10368:	fff78793          	addi	a5,a5,-1 # 1fffffff <__global_pointer$+0x1ffd7d2f>
   1036c:	00f707b3          	add	a5,a4,a5
   10370:	00379793          	slli	a5,a5,0x3
   10374:	fb842703          	lw	a4,-72(s0)
   10378:	00f707b3          	add	a5,a4,a5
   1037c:	0047a803          	lw	a6,4(a5)
   10380:	0007a783          	lw	a5,0(a5)
   10384:	fbc42683          	lw	a3,-68(s0)
   10388:	20000737          	lui	a4,0x20000
   1038c:	fff70713          	addi	a4,a4,-1 # 1fffffff <__global_pointer$+0x1ffd7d2f>
   10390:	00e68733          	add	a4,a3,a4
   10394:	00371713          	slli	a4,a4,0x3
   10398:	fb442683          	lw	a3,-76(s0)
   1039c:	00e68733          	add	a4,a3,a4
   103a0:	00072683          	lw	a3,0(a4)
   103a4:	00472703          	lw	a4,4(a4)
   103a8:	00068613          	mv	a2,a3
   103ac:	00070693          	mv	a3,a4
   103b0:	00078513          	mv	a0,a5
   103b4:	00080593          	mv	a1,a6
   103b8:	629000ef          	jal	ra,111e0 <__eqdf2>
   103bc:	00050793          	mv	a5,a0
   103c0:	00078663          	beqz	a5,103cc <verifyDouble+0x1cc>
   103c4:	fbc42783          	lw	a5,-68(s0)
   103c8:	0080006f          	j	103d0 <verifyDouble+0x1d0>
   103cc:	00000793          	li	a5,0
   103d0:	00078513          	mv	a0,a5
   103d4:	04c12083          	lw	ra,76(sp)
   103d8:	04812403          	lw	s0,72(sp)
   103dc:	04412483          	lw	s1,68(sp)
   103e0:	05010113          	addi	sp,sp,80
   103e4:	00008067          	ret

000103e8 <verifyFloat>:
   103e8:	fc010113          	addi	sp,sp,-64
   103ec:	02112e23          	sw	ra,60(sp)
   103f0:	02812c23          	sw	s0,56(sp)
   103f4:	02912a23          	sw	s1,52(sp)
   103f8:	04010413          	addi	s0,sp,64
   103fc:	fca42623          	sw	a0,-52(s0)
   10400:	fcb42423          	sw	a1,-56(s0)
   10404:	fcc42223          	sw	a2,-60(s0)
   10408:	fe042623          	sw	zero,-20(s0)
   1040c:	0e40006f          	j	104f0 <verifyFloat+0x108>
   10410:	fec42783          	lw	a5,-20(s0)
   10414:	00279793          	slli	a5,a5,0x2
   10418:	fc842703          	lw	a4,-56(s0)
   1041c:	00f707b3          	add	a5,a4,a5
   10420:	0007a783          	lw	a5,0(a5)
   10424:	fef42423          	sw	a5,-24(s0)
   10428:	fec42783          	lw	a5,-20(s0)
   1042c:	00178793          	addi	a5,a5,1
   10430:	00279793          	slli	a5,a5,0x2
   10434:	fc842703          	lw	a4,-56(s0)
   10438:	00f707b3          	add	a5,a4,a5
   1043c:	0007a783          	lw	a5,0(a5)
   10440:	fef42223          	sw	a5,-28(s0)
   10444:	fec42783          	lw	a5,-20(s0)
   10448:	00279793          	slli	a5,a5,0x2
   1044c:	fc442703          	lw	a4,-60(s0)
   10450:	00f707b3          	add	a5,a4,a5
   10454:	0007a783          	lw	a5,0(a5)
   10458:	fef42023          	sw	a5,-32(s0)
   1045c:	fec42783          	lw	a5,-20(s0)
   10460:	00178793          	addi	a5,a5,1
   10464:	00279793          	slli	a5,a5,0x2
   10468:	fc442703          	lw	a4,-60(s0)
   1046c:	00f707b3          	add	a5,a4,a5
   10470:	0007a783          	lw	a5,0(a5)
   10474:	fcf42e23          	sw	a5,-36(s0)
   10478:	00100493          	li	s1,1
   1047c:	fe042583          	lw	a1,-32(s0)
   10480:	fe842503          	lw	a0,-24(s0)
   10484:	6ed000ef          	jal	ra,11370 <__eqsf2>
   10488:	00050793          	mv	a5,a0
   1048c:	00078463          	beqz	a5,10494 <verifyFloat+0xac>
   10490:	00000493          	li	s1,0
   10494:	0ff4f793          	andi	a5,s1,255
   10498:	fcf42c23          	sw	a5,-40(s0)
   1049c:	00100493          	li	s1,1
   104a0:	fdc42583          	lw	a1,-36(s0)
   104a4:	fe442503          	lw	a0,-28(s0)
   104a8:	6c9000ef          	jal	ra,11370 <__eqsf2>
   104ac:	00050793          	mv	a5,a0
   104b0:	00078463          	beqz	a5,104b8 <verifyFloat+0xd0>
   104b4:	00000493          	li	s1,0
   104b8:	0ff4f793          	andi	a5,s1,255
   104bc:	fcf42a23          	sw	a5,-44(s0)
   104c0:	fd842703          	lw	a4,-40(s0)
   104c4:	fd442783          	lw	a5,-44(s0)
   104c8:	00f777b3          	and	a5,a4,a5
   104cc:	00079c63          	bnez	a5,104e4 <verifyFloat+0xfc>
   104d0:	fec42783          	lw	a5,-20(s0)
   104d4:	00178713          	addi	a4,a5,1
   104d8:	fd842783          	lw	a5,-40(s0)
   104dc:	00f707b3          	add	a5,a4,a5
   104e0:	0980006f          	j	10578 <verifyFloat+0x190>
   104e4:	fec42783          	lw	a5,-20(s0)
   104e8:	00278793          	addi	a5,a5,2
   104ec:	fef42623          	sw	a5,-20(s0)
   104f0:	fcc42783          	lw	a5,-52(s0)
   104f4:	01f7d713          	srli	a4,a5,0x1f
   104f8:	00f707b3          	add	a5,a4,a5
   104fc:	4017d793          	srai	a5,a5,0x1
   10500:	00179793          	slli	a5,a5,0x1
   10504:	fec42703          	lw	a4,-20(s0)
   10508:	f0f744e3          	blt	a4,a5,10410 <verifyFloat+0x28>
   1050c:	fcc42783          	lw	a5,-52(s0)
   10510:	0017f793          	andi	a5,a5,1
   10514:	06078063          	beqz	a5,10574 <verifyFloat+0x18c>
   10518:	fcc42703          	lw	a4,-52(s0)
   1051c:	400007b7          	lui	a5,0x40000
   10520:	fff78793          	addi	a5,a5,-1 # 3fffffff <__global_pointer$+0x3ffd7d2f>
   10524:	00f707b3          	add	a5,a4,a5
   10528:	00279793          	slli	a5,a5,0x2
   1052c:	fc842703          	lw	a4,-56(s0)
   10530:	00f707b3          	add	a5,a4,a5
   10534:	0007a683          	lw	a3,0(a5)
   10538:	fcc42703          	lw	a4,-52(s0)
   1053c:	400007b7          	lui	a5,0x40000
   10540:	fff78793          	addi	a5,a5,-1 # 3fffffff <__global_pointer$+0x3ffd7d2f>
   10544:	00f707b3          	add	a5,a4,a5
   10548:	00279793          	slli	a5,a5,0x2
   1054c:	fc442703          	lw	a4,-60(s0)
   10550:	00f707b3          	add	a5,a4,a5
   10554:	0007a783          	lw	a5,0(a5)
   10558:	00078593          	mv	a1,a5
   1055c:	00068513          	mv	a0,a3
   10560:	611000ef          	jal	ra,11370 <__eqsf2>
   10564:	00050793          	mv	a5,a0
   10568:	00078663          	beqz	a5,10574 <verifyFloat+0x18c>
   1056c:	fcc42783          	lw	a5,-52(s0)
   10570:	0080006f          	j	10578 <verifyFloat+0x190>
   10574:	00000793          	li	a5,0
   10578:	00078513          	mv	a0,a5
   1057c:	03c12083          	lw	ra,60(sp)
   10580:	03812403          	lw	s0,56(sp)
   10584:	03412483          	lw	s1,52(sp)
   10588:	04010113          	addi	sp,sp,64
   1058c:	00008067          	ret

00010590 <barrier>:
   10590:	fe010113          	addi	sp,sp,-32
   10594:	00812e23          	sw	s0,28(sp)
   10598:	02010413          	addi	s0,sp,32
   1059c:	fea42623          	sw	a0,-20(s0)
   105a0:	00022783          	lw	a5,0(tp) # 0 <threadsense.2617>
   105a4:	0017b793          	seqz	a5,a5
   105a8:	0ff7f793          	andi	a5,a5,255
   105ac:	00078713          	mv	a4,a5
   105b0:	00e22023          	sw	a4,0(tp) # 0 <threadsense.2617>
   105b4:	8541a783          	lw	a5,-1964(gp) # 27b24 <count.2616>
   105b8:	00178713          	addi	a4,a5,1
   105bc:	84e1aa23          	sw	a4,-1964(gp) # 27b24 <count.2616>
   105c0:	8541a783          	lw	a5,-1964(gp) # 27b24 <count.2616>
   105c4:	fec42703          	lw	a4,-20(s0)
   105c8:	00f71a63          	bne	a4,a5,105dc <barrier+0x4c>
   105cc:	8401aa23          	sw	zero,-1964(gp) # 27b24 <count.2616>
   105d0:	00022703          	lw	a4,0(tp) # 0 <threadsense.2617>
   105d4:	84e1ac23          	sw	a4,-1960(gp) # 27b28 <sense.2615>
   105d8:	0140006f          	j	105ec <barrier+0x5c>
   105dc:	00000013          	nop
   105e0:	8581a703          	lw	a4,-1960(gp) # 27b28 <sense.2615>
   105e4:	00022783          	lw	a5,0(tp) # 0 <threadsense.2617>
   105e8:	fef71ce3          	bne	a4,a5,105e0 <barrier+0x50>
   105ec:	00000013          	nop
   105f0:	01c12403          	lw	s0,28(sp)
   105f4:	02010113          	addi	sp,sp,32
   105f8:	00008067          	ret

000105fc <lfsr>:
   105fc:	fd010113          	addi	sp,sp,-48
   10600:	02812623          	sw	s0,44(sp)
   10604:	03010413          	addi	s0,sp,48
   10608:	fca42c23          	sw	a0,-40(s0)
   1060c:	fcb42e23          	sw	a1,-36(s0)
   10610:	fdc42603          	lw	a2,-36(s0)
   10614:	01f61613          	slli	a2,a2,0x1f
   10618:	fd842583          	lw	a1,-40(s0)
   1061c:	0015d693          	srli	a3,a1,0x1
   10620:	00d666b3          	or	a3,a2,a3
   10624:	fdc42603          	lw	a2,-36(s0)
   10628:	00165713          	srli	a4,a2,0x1
   1062c:	fd842603          	lw	a2,-40(s0)
   10630:	00d64333          	xor	t1,a2,a3
   10634:	fdc42603          	lw	a2,-36(s0)
   10638:	00e643b3          	xor	t2,a2,a4
   1063c:	00137713          	andi	a4,t1,1
   10640:	fee42423          	sw	a4,-24(s0)
   10644:	0003f713          	andi	a4,t2,0
   10648:	fee42623          	sw	a4,-20(s0)
   1064c:	fdc42703          	lw	a4,-36(s0)
   10650:	01f71713          	slli	a4,a4,0x1f
   10654:	fd842683          	lw	a3,-40(s0)
   10658:	0016d793          	srli	a5,a3,0x1
   1065c:	00f767b3          	or	a5,a4,a5
   10660:	fdc42703          	lw	a4,-36(s0)
   10664:	00175813          	srli	a6,a4,0x1
   10668:	fe842703          	lw	a4,-24(s0)
   1066c:	01e71e93          	slli	t4,a4,0x1e
   10670:	00000e13          	li	t3,0
   10674:	01c7ef33          	or	t5,a5,t3
   10678:	01d86fb3          	or	t6,a6,t4
   1067c:	000f0793          	mv	a5,t5
   10680:	000f8813          	mv	a6,t6
   10684:	00078513          	mv	a0,a5
   10688:	00080593          	mv	a1,a6
   1068c:	02c12403          	lw	s0,44(sp)
   10690:	03010113          	addi	sp,sp,48
   10694:	00008067          	ret

00010698 <insn_len>:
   10698:	fe010113          	addi	sp,sp,-32
   1069c:	00812e23          	sw	s0,28(sp)
   106a0:	02010413          	addi	s0,sp,32
   106a4:	fea42623          	sw	a0,-20(s0)
   106a8:	fec42783          	lw	a5,-20(s0)
   106ac:	0007d783          	lhu	a5,0(a5)
   106b0:	0037f793          	andi	a5,a5,3
   106b4:	00078663          	beqz	a5,106c0 <insn_len+0x28>
   106b8:	00400793          	li	a5,4
   106bc:	0080006f          	j	106c4 <insn_len+0x2c>
   106c0:	00200793          	li	a5,2
   106c4:	00078513          	mv	a0,a5
   106c8:	01c12403          	lw	s0,28(sp)
   106cc:	02010113          	addi	sp,sp,32
   106d0:	00008067          	ret

000106d4 <matmul>:
   106d4:	fb010113          	addi	sp,sp,-80
   106d8:	04812623          	sw	s0,76(sp)
   106dc:	05010413          	addi	s0,sp,80
   106e0:	fca42623          	sw	a0,-52(s0)
   106e4:	fcb42423          	sw	a1,-56(s0)
   106e8:	fcc42223          	sw	a2,-60(s0)
   106ec:	fcd42023          	sw	a3,-64(s0)
   106f0:	fae42e23          	sw	a4,-68(s0)
   106f4:	faf42c23          	sw	a5,-72(s0)
   106f8:	fc442703          	lw	a4,-60(s0)
   106fc:	fc842783          	lw	a5,-56(s0)
   10700:	02f757b3          	divu	a5,a4,a5
   10704:	fcf42e23          	sw	a5,-36(s0)
   10708:	fdc42703          	lw	a4,-36(s0)
   1070c:	fcc42783          	lw	a5,-52(s0)
   10710:	02f707b3          	mul	a5,a4,a5
   10714:	fcf42c23          	sw	a5,-40(s0)
   10718:	fe042623          	sw	zero,-20(s0)
   1071c:	0e00006f          	j	107fc <matmul+0x128>
   10720:	fd842783          	lw	a5,-40(s0)
   10724:	fef42423          	sw	a5,-24(s0)
   10728:	0b40006f          	j	107dc <matmul+0x108>
   1072c:	fe042023          	sw	zero,-32(s0)
   10730:	fe042223          	sw	zero,-28(s0)
   10734:	0680006f          	j	1079c <matmul+0xc8>
   10738:	fe842703          	lw	a4,-24(s0)
   1073c:	fc442783          	lw	a5,-60(s0)
   10740:	02f70733          	mul	a4,a4,a5
   10744:	fe442783          	lw	a5,-28(s0)
   10748:	00f707b3          	add	a5,a4,a5
   1074c:	00279793          	slli	a5,a5,0x2
   10750:	fc042703          	lw	a4,-64(s0)
   10754:	00f707b3          	add	a5,a4,a5
   10758:	0007a703          	lw	a4,0(a5)
   1075c:	fe442683          	lw	a3,-28(s0)
   10760:	fc442783          	lw	a5,-60(s0)
   10764:	02f686b3          	mul	a3,a3,a5
   10768:	fec42783          	lw	a5,-20(s0)
   1076c:	00f687b3          	add	a5,a3,a5
   10770:	00279793          	slli	a5,a5,0x2
   10774:	fbc42683          	lw	a3,-68(s0)
   10778:	00f687b3          	add	a5,a3,a5
   1077c:	0007a783          	lw	a5,0(a5)
   10780:	02f707b3          	mul	a5,a4,a5
   10784:	fe042703          	lw	a4,-32(s0)
   10788:	00f707b3          	add	a5,a4,a5
   1078c:	fef42023          	sw	a5,-32(s0)
   10790:	fe442783          	lw	a5,-28(s0)
   10794:	00178793          	addi	a5,a5,1
   10798:	fef42223          	sw	a5,-28(s0)
   1079c:	fe442703          	lw	a4,-28(s0)
   107a0:	fc442783          	lw	a5,-60(s0)
   107a4:	f8f76ae3          	bltu	a4,a5,10738 <matmul+0x64>
   107a8:	fe842703          	lw	a4,-24(s0)
   107ac:	fc442783          	lw	a5,-60(s0)
   107b0:	02f70733          	mul	a4,a4,a5
   107b4:	fec42783          	lw	a5,-20(s0)
   107b8:	00f707b3          	add	a5,a4,a5
   107bc:	00279793          	slli	a5,a5,0x2
   107c0:	fb842703          	lw	a4,-72(s0)
   107c4:	00f707b3          	add	a5,a4,a5
   107c8:	fe042703          	lw	a4,-32(s0)
   107cc:	00e7a023          	sw	a4,0(a5)
   107d0:	fe842783          	lw	a5,-24(s0)
   107d4:	00178793          	addi	a5,a5,1
   107d8:	fef42423          	sw	a5,-24(s0)
   107dc:	fd842703          	lw	a4,-40(s0)
   107e0:	fdc42783          	lw	a5,-36(s0)
   107e4:	00f707b3          	add	a5,a4,a5
   107e8:	fe842703          	lw	a4,-24(s0)
   107ec:	f4f760e3          	bltu	a4,a5,1072c <matmul+0x58>
   107f0:	fec42783          	lw	a5,-20(s0)
   107f4:	00178793          	addi	a5,a5,1
   107f8:	fef42623          	sw	a5,-20(s0)
   107fc:	fec42703          	lw	a4,-20(s0)
   10800:	fc442783          	lw	a5,-60(s0)
   10804:	f0f76ee3          	bltu	a4,a5,10720 <matmul+0x4c>
   10808:	00000013          	nop
   1080c:	04c12403          	lw	s0,76(sp)
   10810:	05010113          	addi	sp,sp,80
   10814:	00008067          	ret

00010818 <main>:
   10818:	be010113          	addi	sp,sp,-1056
   1081c:	40112e23          	sw	ra,1052(sp)
   10820:	40812c23          	sw	s0,1048(sp)
   10824:	41212a23          	sw	s2,1044(sp)
   10828:	41312823          	sw	s3,1040(sp)
   1082c:	42010413          	addi	s0,sp,1056
   10830:	01000793          	li	a5,16
   10834:	fef42623          	sw	a5,-20(s0)
   10838:	c0002773          	rdcycle	a4
   1083c:	88e1aa23          	sw	a4,-1900(gp) # 27b64 <start_cycles>
   10840:	c0202773          	rdinstret	a4
   10844:	88e1a623          	sw	a4,-1908(gp) # 27b5c <start_insn>
   10848:	bec40793          	addi	a5,s0,-1044
   1084c:	00027737          	lui	a4,0x27
   10850:	93070713          	addi	a4,a4,-1744 # 26930 <input2_data>
   10854:	000266b7          	lui	a3,0x26
   10858:	53068693          	addi	a3,a3,1328 # 26530 <input1_data>
   1085c:	fec42603          	lw	a2,-20(s0)
   10860:	00100593          	li	a1,1
   10864:	00000513          	li	a0,0
   10868:	e6dff0ef          	jal	ra,106d4 <matmul>
   1086c:	c0002773          	rdcycle	a4
   10870:	88e1a823          	sw	a4,-1904(gp) # 27b60 <end_cycles>
   10874:	c0202773          	rdinstret	a4
   10878:	8ae1a423          	sw	a4,-1880(gp) # 27b78 <end_insn>
   1087c:	8901a703          	lw	a4,-1904(gp) # 27b60 <end_cycles>
   10880:	8941a783          	lw	a5,-1900(gp) # 27b64 <start_cycles>
   10884:	40f70733          	sub	a4,a4,a5
   10888:	88e1a423          	sw	a4,-1912(gp) # 27b58 <total_cycles>
   1088c:	8a81a703          	lw	a4,-1880(gp) # 27b78 <end_insn>
   10890:	88c1a783          	lw	a5,-1908(gp) # 27b5c <start_insn>
   10894:	40f70733          	sub	a4,a4,a5
   10898:	88e1ac23          	sw	a4,-1896(gp) # 27b68 <total_insn>
   1089c:	8881a783          	lw	a5,-1912(gp) # 27b58 <total_cycles>
   108a0:	00078513          	mv	a0,a5
   108a4:	249000ef          	jal	ra,112ec <__floatunsidf>
   108a8:	00050913          	mv	s2,a0
   108ac:	00058993          	mv	s3,a1
   108b0:	8981a783          	lw	a5,-1896(gp) # 27b68 <total_insn>
   108b4:	00078513          	mv	a0,a5
   108b8:	235000ef          	jal	ra,112ec <__floatunsidf>
   108bc:	00050793          	mv	a5,a0
   108c0:	00058813          	mv	a6,a1
   108c4:	00078613          	mv	a2,a5
   108c8:	00080693          	mv	a3,a6
   108cc:	00090513          	mv	a0,s2
   108d0:	00098593          	mv	a1,s3
   108d4:	240000ef          	jal	ra,10b14 <__divdf3>
   108d8:	00050793          	mv	a5,a0
   108dc:	00058813          	mv	a6,a1
   108e0:	8af1a023          	sw	a5,-1888(gp) # 27b70 <cpi>
   108e4:	8b01a223          	sw	a6,-1884(gp) # 27b74 <cpi+0x4>
   108e8:	000247b7          	lui	a5,0x24
   108ec:	73878513          	addi	a0,a5,1848 # 24738 <register_fini+0x1c>
   108f0:	6c5000ef          	jal	ra,117b4 <puts>
   108f4:	fec42603          	lw	a2,-20(s0)
   108f8:	fec42583          	lw	a1,-20(s0)
   108fc:	000247b7          	lui	a5,0x24
   10900:	75878513          	addi	a0,a5,1880 # 24758 <register_fini+0x3c>
   10904:	58d000ef          	jal	ra,11690 <printf>
   10908:	8881a783          	lw	a5,-1912(gp) # 27b58 <total_cycles>
   1090c:	00078593          	mv	a1,a5
   10910:	000247b7          	lui	a5,0x24
   10914:	77878513          	addi	a0,a5,1912 # 24778 <register_fini+0x5c>
   10918:	579000ef          	jal	ra,11690 <printf>
   1091c:	8981a783          	lw	a5,-1896(gp) # 27b68 <total_insn>
   10920:	00078593          	mv	a1,a5
   10924:	000247b7          	lui	a5,0x24
   10928:	79078513          	addi	a0,a5,1936 # 24790 <register_fini+0x74>
   1092c:	565000ef          	jal	ra,11690 <printf>
   10930:	8a41a803          	lw	a6,-1884(gp) # 27b74 <cpi+0x4>
   10934:	8a01a783          	lw	a5,-1888(gp) # 27b70 <cpi>
   10938:	00078513          	mv	a0,a5
   1093c:	00080593          	mv	a1,a6
   10940:	12d000ef          	jal	ra,1126c <__fixdfsi>
   10944:	00050793          	mv	a5,a0
   10948:	00078593          	mv	a1,a5
   1094c:	000247b7          	lui	a5,0x24
   10950:	7ac78513          	addi	a0,a5,1964 # 247ac <register_fini+0x90>
   10954:	53d000ef          	jal	ra,11690 <printf>
   10958:	00000793          	li	a5,0
   1095c:	00078513          	mv	a0,a5
   10960:	41c12083          	lw	ra,1052(sp)
   10964:	41812403          	lw	s0,1048(sp)
   10968:	41412903          	lw	s2,1044(sp)
   1096c:	41012983          	lw	s3,1040(sp)
   10970:	42010113          	addi	sp,sp,1056
   10974:	00008067          	ret

00010978 <_access>:
   10978:	0040006f          	j	1097c <unimplemented_syscall>

0001097c <unimplemented_syscall>:
   1097c:	fe010113          	addi	sp,sp,-32
   10980:	00812e23          	sw	s0,28(sp)
   10984:	02010413          	addi	s0,sp,32
   10988:	000247b7          	lui	a5,0x24
   1098c:	7d878793          	addi	a5,a5,2008 # 247d8 <register_fini+0xbc>
   10990:	fef42623          	sw	a5,-20(s0)
   10994:	01c0006f          	j	109b0 <unimplemented_syscall+0x34>
   10998:	fec42783          	lw	a5,-20(s0)
   1099c:	00178713          	addi	a4,a5,1
   109a0:	fee42623          	sw	a4,-20(s0)
   109a4:	0007c703          	lbu	a4,0(a5)
   109a8:	100007b7          	lui	a5,0x10000
   109ac:	00e7a023          	sw	a4,0(a5) # 10000000 <__global_pointer$+0xffd7d30>
   109b0:	fec42783          	lw	a5,-20(s0)
   109b4:	0007c783          	lbu	a5,0(a5)
   109b8:	fe0790e3          	bnez	a5,10998 <unimplemented_syscall+0x1c>
   109bc:	00100073          	ebreak

000109c0 <_read>:
   109c0:	fe010113          	addi	sp,sp,-32
   109c4:	00812e23          	sw	s0,28(sp)
   109c8:	02010413          	addi	s0,sp,32
   109cc:	fea42623          	sw	a0,-20(s0)
   109d0:	feb42423          	sw	a1,-24(s0)
   109d4:	fec42223          	sw	a2,-28(s0)
   109d8:	00000793          	li	a5,0
   109dc:	00078513          	mv	a0,a5
   109e0:	01c12403          	lw	s0,28(sp)
   109e4:	02010113          	addi	sp,sp,32
   109e8:	00008067          	ret

000109ec <_write>:
   109ec:	fd010113          	addi	sp,sp,-48
   109f0:	02812623          	sw	s0,44(sp)
   109f4:	03010413          	addi	s0,sp,48
   109f8:	fca42e23          	sw	a0,-36(s0)
   109fc:	fcb42c23          	sw	a1,-40(s0)
   10a00:	fcc42a23          	sw	a2,-44(s0)
   10a04:	fd842703          	lw	a4,-40(s0)
   10a08:	fd442783          	lw	a5,-44(s0)
   10a0c:	00f707b3          	add	a5,a4,a5
   10a10:	fef42623          	sw	a5,-20(s0)
   10a14:	01c0006f          	j	10a30 <_write+0x44>
   10a18:	fd842783          	lw	a5,-40(s0)
   10a1c:	00178713          	addi	a4,a5,1
   10a20:	fce42c23          	sw	a4,-40(s0)
   10a24:	0007c703          	lbu	a4,0(a5)
   10a28:	100007b7          	lui	a5,0x10000
   10a2c:	00e7a023          	sw	a4,0(a5) # 10000000 <__global_pointer$+0xffd7d30>
   10a30:	fd842703          	lw	a4,-40(s0)
   10a34:	fec42783          	lw	a5,-20(s0)
   10a38:	fef710e3          	bne	a4,a5,10a18 <_write+0x2c>
   10a3c:	fd442783          	lw	a5,-44(s0)
   10a40:	00078513          	mv	a0,a5
   10a44:	02c12403          	lw	s0,44(sp)
   10a48:	03010113          	addi	sp,sp,48
   10a4c:	00008067          	ret

00010a50 <_close>:
   10a50:	fe010113          	addi	sp,sp,-32
   10a54:	00812e23          	sw	s0,28(sp)
   10a58:	02010413          	addi	s0,sp,32
   10a5c:	fea42623          	sw	a0,-20(s0)
   10a60:	00000793          	li	a5,0
   10a64:	00078513          	mv	a0,a5
   10a68:	01c12403          	lw	s0,28(sp)
   10a6c:	02010113          	addi	sp,sp,32
   10a70:	00008067          	ret

00010a74 <_fstat>:
   10a74:	fe010113          	addi	sp,sp,-32
   10a78:	00112e23          	sw	ra,28(sp)
   10a7c:	00812c23          	sw	s0,24(sp)
   10a80:	02010413          	addi	s0,sp,32
   10a84:	fea42623          	sw	a0,-20(s0)
   10a88:	feb42423          	sw	a1,-24(s0)
   10a8c:	1b1000ef          	jal	ra,1143c <__errno>
   10a90:	00050713          	mv	a4,a0
   10a94:	00200793          	li	a5,2
   10a98:	00f72023          	sw	a5,0(a4)
   10a9c:	fff00793          	li	a5,-1
   10aa0:	00078513          	mv	a0,a5
   10aa4:	01c12083          	lw	ra,28(sp)
   10aa8:	01812403          	lw	s0,24(sp)
   10aac:	02010113          	addi	sp,sp,32
   10ab0:	00008067          	ret

00010ab4 <_sbrk>:
   10ab4:	fe010113          	addi	sp,sp,-32
   10ab8:	00812e23          	sw	s0,28(sp)
   10abc:	02010413          	addi	s0,sp,32
   10ac0:	fea42623          	sw	a0,-20(s0)
   10ac4:	85c1a783          	lw	a5,-1956(gp) # 27b2c <heap_end.2320>
   10ac8:	00079663          	bnez	a5,10ad4 <_sbrk+0x20>
   10acc:	8b018713          	addi	a4,gp,-1872 # 27b80 <_end>
   10ad0:	84e1ae23          	sw	a4,-1956(gp) # 27b2c <heap_end.2320>
   10ad4:	85c1a703          	lw	a4,-1956(gp) # 27b2c <heap_end.2320>
   10ad8:	fec42783          	lw	a5,-20(s0)
   10adc:	00f70733          	add	a4,a4,a5
   10ae0:	84e1ae23          	sw	a4,-1956(gp) # 27b2c <heap_end.2320>
   10ae4:	85c1a703          	lw	a4,-1956(gp) # 27b2c <heap_end.2320>
   10ae8:	fec42783          	lw	a5,-20(s0)
   10aec:	40f707b3          	sub	a5,a4,a5
   10af0:	00078513          	mv	a0,a5
   10af4:	01c12403          	lw	s0,28(sp)
   10af8:	02010113          	addi	sp,sp,32
   10afc:	00008067          	ret

00010b00 <_exit>:
   10b00:	fe010113          	addi	sp,sp,-32
   10b04:	00812e23          	sw	s0,28(sp)
   10b08:	02010413          	addi	s0,sp,32
   10b0c:	fea42623          	sw	a0,-20(s0)
   10b10:	00100073          	ebreak

00010b14 <__divdf3>:
   10b14:	fd010113          	addi	sp,sp,-48
   10b18:	0145d813          	srli	a6,a1,0x14
   10b1c:	02912223          	sw	s1,36(sp)
   10b20:	01312e23          	sw	s3,28(sp)
   10b24:	01412c23          	sw	s4,24(sp)
   10b28:	01612823          	sw	s6,16(sp)
   10b2c:	01712623          	sw	s7,12(sp)
   10b30:	00c59493          	slli	s1,a1,0xc
   10b34:	02112623          	sw	ra,44(sp)
   10b38:	02812423          	sw	s0,40(sp)
   10b3c:	03212023          	sw	s2,32(sp)
   10b40:	01512a23          	sw	s5,20(sp)
   10b44:	7ff87813          	andi	a6,a6,2047
   10b48:	00050b13          	mv	s6,a0
   10b4c:	00060b93          	mv	s7,a2
   10b50:	00068a13          	mv	s4,a3
   10b54:	00c4d493          	srli	s1,s1,0xc
   10b58:	01f5d993          	srli	s3,a1,0x1f
   10b5c:	0a080263          	beqz	a6,10c00 <__divdf3+0xec>
   10b60:	7ff00793          	li	a5,2047
   10b64:	10f80063          	beq	a6,a5,10c64 <__divdf3+0x150>
   10b68:	01d55a93          	srli	s5,a0,0x1d
   10b6c:	00349493          	slli	s1,s1,0x3
   10b70:	009ae4b3          	or	s1,s5,s1
   10b74:	00800ab7          	lui	s5,0x800
   10b78:	0154eab3          	or	s5,s1,s5
   10b7c:	00351413          	slli	s0,a0,0x3
   10b80:	c0180913          	addi	s2,a6,-1023
   10b84:	00000b13          	li	s6,0
   10b88:	014a5513          	srli	a0,s4,0x14
   10b8c:	00ca1493          	slli	s1,s4,0xc
   10b90:	7ff57813          	andi	a6,a0,2047
   10b94:	00c4d493          	srli	s1,s1,0xc
   10b98:	01fa5a13          	srli	s4,s4,0x1f
   10b9c:	10080263          	beqz	a6,10ca0 <__divdf3+0x18c>
   10ba0:	7ff00793          	li	a5,2047
   10ba4:	16f80263          	beq	a6,a5,10d08 <__divdf3+0x1f4>
   10ba8:	00349513          	slli	a0,s1,0x3
   10bac:	01dbd793          	srli	a5,s7,0x1d
   10bb0:	00a7e533          	or	a0,a5,a0
   10bb4:	008004b7          	lui	s1,0x800
   10bb8:	009564b3          	or	s1,a0,s1
   10bbc:	003b9f13          	slli	t5,s7,0x3
   10bc0:	c0180513          	addi	a0,a6,-1023
   10bc4:	00000793          	li	a5,0
   10bc8:	002b1713          	slli	a4,s6,0x2
   10bcc:	00f76733          	or	a4,a4,a5
   10bd0:	fff70713          	addi	a4,a4,-1
   10bd4:	00e00693          	li	a3,14
   10bd8:	0149c633          	xor	a2,s3,s4
   10bdc:	40a90833          	sub	a6,s2,a0
   10be0:	16e6e063          	bltu	a3,a4,10d40 <__divdf3+0x22c>
   10be4:	00014697          	auipc	a3,0x14
   10be8:	c1868693          	addi	a3,a3,-1000 # 247fc <register_fini+0xe0>
   10bec:	00271713          	slli	a4,a4,0x2
   10bf0:	00d70733          	add	a4,a4,a3
   10bf4:	00072703          	lw	a4,0(a4)
   10bf8:	00d70733          	add	a4,a4,a3
   10bfc:	00070067          	jr	a4
   10c00:	00a4eab3          	or	s5,s1,a0
   10c04:	060a8e63          	beqz	s5,10c80 <__divdf3+0x16c>
   10c08:	04048063          	beqz	s1,10c48 <__divdf3+0x134>
   10c0c:	00048513          	mv	a0,s1
   10c10:	7cc000ef          	jal	ra,113dc <__clzsi2>
   10c14:	ff550793          	addi	a5,a0,-11
   10c18:	01c00713          	li	a4,28
   10c1c:	02f74c63          	blt	a4,a5,10c54 <__divdf3+0x140>
   10c20:	01d00a93          	li	s5,29
   10c24:	ff850413          	addi	s0,a0,-8
   10c28:	40fa8ab3          	sub	s5,s5,a5
   10c2c:	008494b3          	sll	s1,s1,s0
   10c30:	015b5ab3          	srl	s5,s6,s5
   10c34:	009aeab3          	or	s5,s5,s1
   10c38:	008b1433          	sll	s0,s6,s0
   10c3c:	c0d00813          	li	a6,-1011
   10c40:	40a80933          	sub	s2,a6,a0
   10c44:	f41ff06f          	j	10b84 <__divdf3+0x70>
   10c48:	794000ef          	jal	ra,113dc <__clzsi2>
   10c4c:	02050513          	addi	a0,a0,32
   10c50:	fc5ff06f          	j	10c14 <__divdf3+0x100>
   10c54:	fd850493          	addi	s1,a0,-40
   10c58:	009b1ab3          	sll	s5,s6,s1
   10c5c:	00000413          	li	s0,0
   10c60:	fddff06f          	j	10c3c <__divdf3+0x128>
   10c64:	00a4eab3          	or	s5,s1,a0
   10c68:	020a8463          	beqz	s5,10c90 <__divdf3+0x17c>
   10c6c:	00050413          	mv	s0,a0
   10c70:	00048a93          	mv	s5,s1
   10c74:	7ff00913          	li	s2,2047
   10c78:	00300b13          	li	s6,3
   10c7c:	f0dff06f          	j	10b88 <__divdf3+0x74>
   10c80:	00000413          	li	s0,0
   10c84:	00000913          	li	s2,0
   10c88:	00100b13          	li	s6,1
   10c8c:	efdff06f          	j	10b88 <__divdf3+0x74>
   10c90:	00000413          	li	s0,0
   10c94:	7ff00913          	li	s2,2047
   10c98:	00200b13          	li	s6,2
   10c9c:	eedff06f          	j	10b88 <__divdf3+0x74>
   10ca0:	0174ef33          	or	t5,s1,s7
   10ca4:	060f0e63          	beqz	t5,10d20 <__divdf3+0x20c>
   10ca8:	04048063          	beqz	s1,10ce8 <__divdf3+0x1d4>
   10cac:	00048513          	mv	a0,s1
   10cb0:	72c000ef          	jal	ra,113dc <__clzsi2>
   10cb4:	ff550793          	addi	a5,a0,-11
   10cb8:	01c00713          	li	a4,28
   10cbc:	02f74e63          	blt	a4,a5,10cf8 <__divdf3+0x1e4>
   10cc0:	01d00713          	li	a4,29
   10cc4:	ff850f13          	addi	t5,a0,-8
   10cc8:	40f70733          	sub	a4,a4,a5
   10ccc:	01e494b3          	sll	s1,s1,t5
   10cd0:	00ebd733          	srl	a4,s7,a4
   10cd4:	009764b3          	or	s1,a4,s1
   10cd8:	01eb9f33          	sll	t5,s7,t5
   10cdc:	c0d00613          	li	a2,-1011
   10ce0:	40a60533          	sub	a0,a2,a0
   10ce4:	ee1ff06f          	j	10bc4 <__divdf3+0xb0>
   10ce8:	000b8513          	mv	a0,s7
   10cec:	6f0000ef          	jal	ra,113dc <__clzsi2>
   10cf0:	02050513          	addi	a0,a0,32
   10cf4:	fc1ff06f          	j	10cb4 <__divdf3+0x1a0>
   10cf8:	fd850493          	addi	s1,a0,-40
   10cfc:	009b94b3          	sll	s1,s7,s1
   10d00:	00000f13          	li	t5,0
   10d04:	fd9ff06f          	j	10cdc <__divdf3+0x1c8>
   10d08:	0174ef33          	or	t5,s1,s7
   10d0c:	020f0263          	beqz	t5,10d30 <__divdf3+0x21c>
   10d10:	000b8f13          	mv	t5,s7
   10d14:	7ff00513          	li	a0,2047
   10d18:	00300793          	li	a5,3
   10d1c:	eadff06f          	j	10bc8 <__divdf3+0xb4>
   10d20:	00000493          	li	s1,0
   10d24:	00000513          	li	a0,0
   10d28:	00100793          	li	a5,1
   10d2c:	e9dff06f          	j	10bc8 <__divdf3+0xb4>
   10d30:	00000493          	li	s1,0
   10d34:	7ff00513          	li	a0,2047
   10d38:	00200793          	li	a5,2
   10d3c:	e8dff06f          	j	10bc8 <__divdf3+0xb4>
   10d40:	0154e663          	bltu	s1,s5,10d4c <__divdf3+0x238>
   10d44:	349a9863          	bne	s5,s1,11094 <__divdf3+0x580>
   10d48:	35e46663          	bltu	s0,t5,11094 <__divdf3+0x580>
   10d4c:	01fa9693          	slli	a3,s5,0x1f
   10d50:	00145713          	srli	a4,s0,0x1
   10d54:	01f41793          	slli	a5,s0,0x1f
   10d58:	001ada93          	srli	s5,s5,0x1
   10d5c:	00e6e433          	or	s0,a3,a4
   10d60:	00849513          	slli	a0,s1,0x8
   10d64:	018f5493          	srli	s1,t5,0x18
   10d68:	00a4e533          	or	a0,s1,a0
   10d6c:	01055e13          	srli	t3,a0,0x10
   10d70:	03cad8b3          	divu	a7,s5,t3
   10d74:	01051313          	slli	t1,a0,0x10
   10d78:	01035313          	srli	t1,t1,0x10
   10d7c:	01045713          	srli	a4,s0,0x10
   10d80:	008f1593          	slli	a1,t5,0x8
   10d84:	03caf4b3          	remu	s1,s5,t3
   10d88:	00088f93          	mv	t6,a7
   10d8c:	031306b3          	mul	a3,t1,a7
   10d90:	01049a93          	slli	s5,s1,0x10
   10d94:	01576733          	or	a4,a4,s5
   10d98:	00d77e63          	bgeu	a4,a3,10db4 <__divdf3+0x2a0>
   10d9c:	00a70733          	add	a4,a4,a0
   10da0:	fff88f93          	addi	t6,a7,-1
   10da4:	00a76863          	bltu	a4,a0,10db4 <__divdf3+0x2a0>
   10da8:	00d77663          	bgeu	a4,a3,10db4 <__divdf3+0x2a0>
   10dac:	ffe88f93          	addi	t6,a7,-2
   10db0:	00a70733          	add	a4,a4,a0
   10db4:	40d70733          	sub	a4,a4,a3
   10db8:	03c75eb3          	divu	t4,a4,t3
   10dbc:	01041413          	slli	s0,s0,0x10
   10dc0:	01045413          	srli	s0,s0,0x10
   10dc4:	03c77733          	remu	a4,a4,t3
   10dc8:	000e8693          	mv	a3,t4
   10dcc:	03d308b3          	mul	a7,t1,t4
   10dd0:	01071713          	slli	a4,a4,0x10
   10dd4:	00e46733          	or	a4,s0,a4
   10dd8:	01177e63          	bgeu	a4,a7,10df4 <__divdf3+0x2e0>
   10ddc:	00a70733          	add	a4,a4,a0
   10de0:	fffe8693          	addi	a3,t4,-1
   10de4:	00a76863          	bltu	a4,a0,10df4 <__divdf3+0x2e0>
   10de8:	01177663          	bgeu	a4,a7,10df4 <__divdf3+0x2e0>
   10dec:	ffee8693          	addi	a3,t4,-2
   10df0:	00a70733          	add	a4,a4,a0
   10df4:	010f9f93          	slli	t6,t6,0x10
   10df8:	00dfefb3          	or	t6,t6,a3
   10dfc:	000106b7          	lui	a3,0x10
   10e00:	41170433          	sub	s0,a4,a7
   10e04:	fff68893          	addi	a7,a3,-1 # ffff <threadsense.2617+0xffff>
   10e08:	010fdf13          	srli	t5,t6,0x10
   10e0c:	011ff733          	and	a4,t6,a7
   10e10:	0105de93          	srli	t4,a1,0x10
   10e14:	0115f8b3          	and	a7,a1,a7
   10e18:	031703b3          	mul	t2,a4,a7
   10e1c:	031f04b3          	mul	s1,t5,a7
   10e20:	02ee8733          	mul	a4,t4,a4
   10e24:	03df02b3          	mul	t0,t5,t4
   10e28:	00970f33          	add	t5,a4,s1
   10e2c:	0103d713          	srli	a4,t2,0x10
   10e30:	01e70733          	add	a4,a4,t5
   10e34:	00977463          	bgeu	a4,s1,10e3c <__divdf3+0x328>
   10e38:	00d282b3          	add	t0,t0,a3
   10e3c:	01075f13          	srli	t5,a4,0x10
   10e40:	005f0f33          	add	t5,t5,t0
   10e44:	000102b7          	lui	t0,0x10
   10e48:	fff28293          	addi	t0,t0,-1 # ffff <threadsense.2617+0xffff>
   10e4c:	005776b3          	and	a3,a4,t0
   10e50:	01069693          	slli	a3,a3,0x10
   10e54:	0053f3b3          	and	t2,t2,t0
   10e58:	007686b3          	add	a3,a3,t2
   10e5c:	01e46863          	bltu	s0,t5,10e6c <__divdf3+0x358>
   10e60:	000f8493          	mv	s1,t6
   10e64:	05e41463          	bne	s0,t5,10eac <__divdf3+0x398>
   10e68:	04d7f263          	bgeu	a5,a3,10eac <__divdf3+0x398>
   10e6c:	00b787b3          	add	a5,a5,a1
   10e70:	00b7b733          	sltu	a4,a5,a1
   10e74:	00a70733          	add	a4,a4,a0
   10e78:	00e40433          	add	s0,s0,a4
   10e7c:	ffff8493          	addi	s1,t6,-1
   10e80:	00856663          	bltu	a0,s0,10e8c <__divdf3+0x378>
   10e84:	02851463          	bne	a0,s0,10eac <__divdf3+0x398>
   10e88:	02b7e263          	bltu	a5,a1,10eac <__divdf3+0x398>
   10e8c:	01e46663          	bltu	s0,t5,10e98 <__divdf3+0x384>
   10e90:	008f1e63          	bne	t5,s0,10eac <__divdf3+0x398>
   10e94:	00d7fc63          	bgeu	a5,a3,10eac <__divdf3+0x398>
   10e98:	00b787b3          	add	a5,a5,a1
   10e9c:	00b7b733          	sltu	a4,a5,a1
   10ea0:	00a70733          	add	a4,a4,a0
   10ea4:	ffef8493          	addi	s1,t6,-2
   10ea8:	00e40433          	add	s0,s0,a4
   10eac:	40d786b3          	sub	a3,a5,a3
   10eb0:	41e40433          	sub	s0,s0,t5
   10eb4:	00d7b7b3          	sltu	a5,a5,a3
   10eb8:	40f40433          	sub	s0,s0,a5
   10ebc:	fff00f13          	li	t5,-1
   10ec0:	12850463          	beq	a0,s0,10fe8 <__divdf3+0x4d4>
   10ec4:	03c45f33          	divu	t5,s0,t3
   10ec8:	0106d713          	srli	a4,a3,0x10
   10ecc:	03c47433          	remu	s0,s0,t3
   10ed0:	03e307b3          	mul	a5,t1,t5
   10ed4:	01041413          	slli	s0,s0,0x10
   10ed8:	00876433          	or	s0,a4,s0
   10edc:	000f0713          	mv	a4,t5
   10ee0:	00f47e63          	bgeu	s0,a5,10efc <__divdf3+0x3e8>
   10ee4:	00a40433          	add	s0,s0,a0
   10ee8:	ffff0713          	addi	a4,t5,-1
   10eec:	00a46863          	bltu	s0,a0,10efc <__divdf3+0x3e8>
   10ef0:	00f47663          	bgeu	s0,a5,10efc <__divdf3+0x3e8>
   10ef4:	ffef0713          	addi	a4,t5,-2
   10ef8:	00a40433          	add	s0,s0,a0
   10efc:	40f40433          	sub	s0,s0,a5
   10f00:	03c45f33          	divu	t5,s0,t3
   10f04:	01069693          	slli	a3,a3,0x10
   10f08:	0106d693          	srli	a3,a3,0x10
   10f0c:	03c47433          	remu	s0,s0,t3
   10f10:	000f0793          	mv	a5,t5
   10f14:	03e30333          	mul	t1,t1,t5
   10f18:	01041413          	slli	s0,s0,0x10
   10f1c:	0086e433          	or	s0,a3,s0
   10f20:	00647e63          	bgeu	s0,t1,10f3c <__divdf3+0x428>
   10f24:	00a40433          	add	s0,s0,a0
   10f28:	ffff0793          	addi	a5,t5,-1
   10f2c:	00a46863          	bltu	s0,a0,10f3c <__divdf3+0x428>
   10f30:	00647663          	bgeu	s0,t1,10f3c <__divdf3+0x428>
   10f34:	ffef0793          	addi	a5,t5,-2
   10f38:	00a40433          	add	s0,s0,a0
   10f3c:	01071713          	slli	a4,a4,0x10
   10f40:	00f76733          	or	a4,a4,a5
   10f44:	01071793          	slli	a5,a4,0x10
   10f48:	0107d793          	srli	a5,a5,0x10
   10f4c:	40640433          	sub	s0,s0,t1
   10f50:	01075313          	srli	t1,a4,0x10
   10f54:	03178e33          	mul	t3,a5,a7
   10f58:	031308b3          	mul	a7,t1,a7
   10f5c:	026e8333          	mul	t1,t4,t1
   10f60:	02fe8eb3          	mul	t4,t4,a5
   10f64:	010e5793          	srli	a5,t3,0x10
   10f68:	011e8eb3          	add	t4,t4,a7
   10f6c:	01d787b3          	add	a5,a5,t4
   10f70:	0117f663          	bgeu	a5,a7,10f7c <__divdf3+0x468>
   10f74:	000106b7          	lui	a3,0x10
   10f78:	00d30333          	add	t1,t1,a3
   10f7c:	0107d893          	srli	a7,a5,0x10
   10f80:	006888b3          	add	a7,a7,t1
   10f84:	00010337          	lui	t1,0x10
   10f88:	fff30313          	addi	t1,t1,-1 # ffff <threadsense.2617+0xffff>
   10f8c:	0067f6b3          	and	a3,a5,t1
   10f90:	01069693          	slli	a3,a3,0x10
   10f94:	006e7e33          	and	t3,t3,t1
   10f98:	01c686b3          	add	a3,a3,t3
   10f9c:	01146863          	bltu	s0,a7,10fac <__divdf3+0x498>
   10fa0:	23141c63          	bne	s0,a7,111d8 <__divdf3+0x6c4>
   10fa4:	00070f13          	mv	t5,a4
   10fa8:	04068063          	beqz	a3,10fe8 <__divdf3+0x4d4>
   10fac:	00850433          	add	s0,a0,s0
   10fb0:	fff70f13          	addi	t5,a4,-1
   10fb4:	02a46463          	bltu	s0,a0,10fdc <__divdf3+0x4c8>
   10fb8:	01146663          	bltu	s0,a7,10fc4 <__divdf3+0x4b0>
   10fbc:	21141c63          	bne	s0,a7,111d4 <__divdf3+0x6c0>
   10fc0:	02d5f063          	bgeu	a1,a3,10fe0 <__divdf3+0x4cc>
   10fc4:	00159793          	slli	a5,a1,0x1
   10fc8:	00b7b5b3          	sltu	a1,a5,a1
   10fcc:	00a58533          	add	a0,a1,a0
   10fd0:	ffe70f13          	addi	t5,a4,-2
   10fd4:	00a40433          	add	s0,s0,a0
   10fd8:	00078593          	mv	a1,a5
   10fdc:	01141463          	bne	s0,a7,10fe4 <__divdf3+0x4d0>
   10fe0:	00b68463          	beq	a3,a1,10fe8 <__divdf3+0x4d4>
   10fe4:	001f6f13          	ori	t5,t5,1
   10fe8:	3ff80713          	addi	a4,a6,1023
   10fec:	10e05263          	blez	a4,110f0 <__divdf3+0x5dc>
   10ff0:	007f7793          	andi	a5,t5,7
   10ff4:	02078063          	beqz	a5,11014 <__divdf3+0x500>
   10ff8:	00ff7793          	andi	a5,t5,15
   10ffc:	00400693          	li	a3,4
   11000:	00d78a63          	beq	a5,a3,11014 <__divdf3+0x500>
   11004:	004f0693          	addi	a3,t5,4
   11008:	01e6bf33          	sltu	t5,a3,t5
   1100c:	01e484b3          	add	s1,s1,t5
   11010:	00068f13          	mv	t5,a3
   11014:	00749793          	slli	a5,s1,0x7
   11018:	0007da63          	bgez	a5,1102c <__divdf3+0x518>
   1101c:	ff0007b7          	lui	a5,0xff000
   11020:	fff78793          	addi	a5,a5,-1 # feffffff <__global_pointer$+0xfefd7d2f>
   11024:	00f4f4b3          	and	s1,s1,a5
   11028:	40080713          	addi	a4,a6,1024
   1102c:	7fe00793          	li	a5,2046
   11030:	18e7c263          	blt	a5,a4,111b4 <__divdf3+0x6a0>
   11034:	003f5f13          	srli	t5,t5,0x3
   11038:	01d49793          	slli	a5,s1,0x1d
   1103c:	01e7e7b3          	or	a5,a5,t5
   11040:	0034d513          	srli	a0,s1,0x3
   11044:	00c51513          	slli	a0,a0,0xc
   11048:	7ff77713          	andi	a4,a4,2047
   1104c:	01471713          	slli	a4,a4,0x14
   11050:	02c12083          	lw	ra,44(sp)
   11054:	02812403          	lw	s0,40(sp)
   11058:	00c55513          	srli	a0,a0,0xc
   1105c:	00e56533          	or	a0,a0,a4
   11060:	01f61613          	slli	a2,a2,0x1f
   11064:	00c56733          	or	a4,a0,a2
   11068:	02412483          	lw	s1,36(sp)
   1106c:	02012903          	lw	s2,32(sp)
   11070:	01c12983          	lw	s3,28(sp)
   11074:	01812a03          	lw	s4,24(sp)
   11078:	01412a83          	lw	s5,20(sp)
   1107c:	01012b03          	lw	s6,16(sp)
   11080:	00c12b83          	lw	s7,12(sp)
   11084:	00078513          	mv	a0,a5
   11088:	00070593          	mv	a1,a4
   1108c:	03010113          	addi	sp,sp,48
   11090:	00008067          	ret
   11094:	fff80813          	addi	a6,a6,-1
   11098:	00000793          	li	a5,0
   1109c:	cc5ff06f          	j	10d60 <__divdf3+0x24c>
   110a0:	00098613          	mv	a2,s3
   110a4:	000a8493          	mv	s1,s5
   110a8:	00040f13          	mv	t5,s0
   110ac:	000b0793          	mv	a5,s6
   110b0:	00200713          	li	a4,2
   110b4:	10e78063          	beq	a5,a4,111b4 <__divdf3+0x6a0>
   110b8:	00300713          	li	a4,3
   110bc:	0ee78263          	beq	a5,a4,111a0 <__divdf3+0x68c>
   110c0:	00100713          	li	a4,1
   110c4:	f2e792e3          	bne	a5,a4,10fe8 <__divdf3+0x4d4>
   110c8:	00000513          	li	a0,0
   110cc:	00000793          	li	a5,0
   110d0:	0940006f          	j	11164 <__divdf3+0x650>
   110d4:	000a0613          	mv	a2,s4
   110d8:	fd9ff06f          	j	110b0 <__divdf3+0x59c>
   110dc:	000804b7          	lui	s1,0x80
   110e0:	00000f13          	li	t5,0
   110e4:	00000613          	li	a2,0
   110e8:	00300793          	li	a5,3
   110ec:	fc5ff06f          	j	110b0 <__divdf3+0x59c>
   110f0:	00100513          	li	a0,1
   110f4:	40e50533          	sub	a0,a0,a4
   110f8:	03800793          	li	a5,56
   110fc:	fca7c6e3          	blt	a5,a0,110c8 <__divdf3+0x5b4>
   11100:	01f00793          	li	a5,31
   11104:	06a7c463          	blt	a5,a0,1116c <__divdf3+0x658>
   11108:	41e80813          	addi	a6,a6,1054
   1110c:	010497b3          	sll	a5,s1,a6
   11110:	00af5733          	srl	a4,t5,a0
   11114:	010f1833          	sll	a6,t5,a6
   11118:	00e7e7b3          	or	a5,a5,a4
   1111c:	01003833          	snez	a6,a6
   11120:	0107e7b3          	or	a5,a5,a6
   11124:	00a4d533          	srl	a0,s1,a0
   11128:	0077f713          	andi	a4,a5,7
   1112c:	02070063          	beqz	a4,1114c <__divdf3+0x638>
   11130:	00f7f713          	andi	a4,a5,15
   11134:	00400693          	li	a3,4
   11138:	00d70a63          	beq	a4,a3,1114c <__divdf3+0x638>
   1113c:	00478713          	addi	a4,a5,4
   11140:	00f737b3          	sltu	a5,a4,a5
   11144:	00f50533          	add	a0,a0,a5
   11148:	00070793          	mv	a5,a4
   1114c:	00851713          	slli	a4,a0,0x8
   11150:	06074a63          	bltz	a4,111c4 <__divdf3+0x6b0>
   11154:	01d51713          	slli	a4,a0,0x1d
   11158:	0037d793          	srli	a5,a5,0x3
   1115c:	00f767b3          	or	a5,a4,a5
   11160:	00355513          	srli	a0,a0,0x3
   11164:	00000713          	li	a4,0
   11168:	eddff06f          	j	11044 <__divdf3+0x530>
   1116c:	fe100793          	li	a5,-31
   11170:	40e787b3          	sub	a5,a5,a4
   11174:	02000693          	li	a3,32
   11178:	00f4d7b3          	srl	a5,s1,a5
   1117c:	00000713          	li	a4,0
   11180:	00d50663          	beq	a0,a3,1118c <__divdf3+0x678>
   11184:	43e80813          	addi	a6,a6,1086
   11188:	01049733          	sll	a4,s1,a6
   1118c:	01e76f33          	or	t5,a4,t5
   11190:	01e03f33          	snez	t5,t5
   11194:	01e7e7b3          	or	a5,a5,t5
   11198:	00000513          	li	a0,0
   1119c:	f8dff06f          	j	11128 <__divdf3+0x614>
   111a0:	00080537          	lui	a0,0x80
   111a4:	00000793          	li	a5,0
   111a8:	7ff00713          	li	a4,2047
   111ac:	00000613          	li	a2,0
   111b0:	e95ff06f          	j	11044 <__divdf3+0x530>
   111b4:	00000513          	li	a0,0
   111b8:	00000793          	li	a5,0
   111bc:	7ff00713          	li	a4,2047
   111c0:	e85ff06f          	j	11044 <__divdf3+0x530>
   111c4:	00000513          	li	a0,0
   111c8:	00000793          	li	a5,0
   111cc:	00100713          	li	a4,1
   111d0:	e75ff06f          	j	11044 <__divdf3+0x530>
   111d4:	000f0713          	mv	a4,t5
   111d8:	00070f13          	mv	t5,a4
   111dc:	e09ff06f          	j	10fe4 <__divdf3+0x4d0>

000111e0 <__eqdf2>:
   111e0:	0145d713          	srli	a4,a1,0x14
   111e4:	001007b7          	lui	a5,0x100
   111e8:	fff78793          	addi	a5,a5,-1 # fffff <__global_pointer$+0xd7d2f>
   111ec:	0146d813          	srli	a6,a3,0x14
   111f0:	00050313          	mv	t1,a0
   111f4:	00050e93          	mv	t4,a0
   111f8:	7ff77713          	andi	a4,a4,2047
   111fc:	7ff00513          	li	a0,2047
   11200:	00b7f8b3          	and	a7,a5,a1
   11204:	00060f13          	mv	t5,a2
   11208:	00d7f7b3          	and	a5,a5,a3
   1120c:	01f5d593          	srli	a1,a1,0x1f
   11210:	7ff87813          	andi	a6,a6,2047
   11214:	01f6d693          	srli	a3,a3,0x1f
   11218:	00a71c63          	bne	a4,a0,11230 <__eqdf2+0x50>
   1121c:	0068ee33          	or	t3,a7,t1
   11220:	00100513          	li	a0,1
   11224:	000e1463          	bnez	t3,1122c <__eqdf2+0x4c>
   11228:	00e80663          	beq	a6,a4,11234 <__eqdf2+0x54>
   1122c:	00008067          	ret
   11230:	00a81863          	bne	a6,a0,11240 <__eqdf2+0x60>
   11234:	00c7e633          	or	a2,a5,a2
   11238:	00100513          	li	a0,1
   1123c:	fe0618e3          	bnez	a2,1122c <__eqdf2+0x4c>
   11240:	00100513          	li	a0,1
   11244:	ff0714e3          	bne	a4,a6,1122c <__eqdf2+0x4c>
   11248:	fef892e3          	bne	a7,a5,1122c <__eqdf2+0x4c>
   1124c:	ffee90e3          	bne	t4,t5,1122c <__eqdf2+0x4c>
   11250:	00d58a63          	beq	a1,a3,11264 <__eqdf2+0x84>
   11254:	fc071ce3          	bnez	a4,1122c <__eqdf2+0x4c>
   11258:	0068e533          	or	a0,a7,t1
   1125c:	00a03533          	snez	a0,a0
   11260:	00008067          	ret
   11264:	00000513          	li	a0,0
   11268:	00008067          	ret

0001126c <__fixdfsi>:
   1126c:	0145d713          	srli	a4,a1,0x14
   11270:	001006b7          	lui	a3,0x100
   11274:	fff68793          	addi	a5,a3,-1 # fffff <__global_pointer$+0xd7d2f>
   11278:	7ff77713          	andi	a4,a4,2047
   1127c:	3fe00613          	li	a2,1022
   11280:	00b7f7b3          	and	a5,a5,a1
   11284:	01f5d593          	srli	a1,a1,0x1f
   11288:	04e65e63          	bge	a2,a4,112e4 <__fixdfsi+0x78>
   1128c:	41d00613          	li	a2,1053
   11290:	00e65a63          	bge	a2,a4,112a4 <__fixdfsi+0x38>
   11294:	80000537          	lui	a0,0x80000
   11298:	fff54513          	not	a0,a0
   1129c:	00a58533          	add	a0,a1,a0
   112a0:	00008067          	ret
   112a4:	00d7e7b3          	or	a5,a5,a3
   112a8:	43300693          	li	a3,1075
   112ac:	40e686b3          	sub	a3,a3,a4
   112b0:	01f00613          	li	a2,31
   112b4:	02d64063          	blt	a2,a3,112d4 <__fixdfsi+0x68>
   112b8:	bed70713          	addi	a4,a4,-1043
   112bc:	00e797b3          	sll	a5,a5,a4
   112c0:	00d55533          	srl	a0,a0,a3
   112c4:	00a7e533          	or	a0,a5,a0
   112c8:	02058063          	beqz	a1,112e8 <__fixdfsi+0x7c>
   112cc:	40a00533          	neg	a0,a0
   112d0:	00008067          	ret
   112d4:	41300513          	li	a0,1043
   112d8:	40e50533          	sub	a0,a0,a4
   112dc:	00a7d533          	srl	a0,a5,a0
   112e0:	fe9ff06f          	j	112c8 <__fixdfsi+0x5c>
   112e4:	00000513          	li	a0,0
   112e8:	00008067          	ret

000112ec <__floatunsidf>:
   112ec:	ff010113          	addi	sp,sp,-16
   112f0:	00812423          	sw	s0,8(sp)
   112f4:	00112623          	sw	ra,12(sp)
   112f8:	00050413          	mv	s0,a0
   112fc:	06050463          	beqz	a0,11364 <__floatunsidf+0x78>
   11300:	0dc000ef          	jal	ra,113dc <__clzsi2>
   11304:	41e00713          	li	a4,1054
   11308:	00a00793          	li	a5,10
   1130c:	40a70733          	sub	a4,a4,a0
   11310:	04a7c263          	blt	a5,a0,11354 <__floatunsidf+0x68>
   11314:	00b00793          	li	a5,11
   11318:	40a787b3          	sub	a5,a5,a0
   1131c:	01550513          	addi	a0,a0,21 # 80000015 <__global_pointer$+0x7ffd7d45>
   11320:	00f457b3          	srl	a5,s0,a5
   11324:	00a41433          	sll	s0,s0,a0
   11328:	00040513          	mv	a0,s0
   1132c:	00c12083          	lw	ra,12(sp)
   11330:	00812403          	lw	s0,8(sp)
   11334:	00c79793          	slli	a5,a5,0xc
   11338:	7ff77713          	andi	a4,a4,2047
   1133c:	01471713          	slli	a4,a4,0x14
   11340:	00c7d793          	srli	a5,a5,0xc
   11344:	00e7e6b3          	or	a3,a5,a4
   11348:	00068593          	mv	a1,a3
   1134c:	01010113          	addi	sp,sp,16
   11350:	00008067          	ret
   11354:	ff550513          	addi	a0,a0,-11
   11358:	00a417b3          	sll	a5,s0,a0
   1135c:	00000413          	li	s0,0
   11360:	fc9ff06f          	j	11328 <__floatunsidf+0x3c>
   11364:	00000793          	li	a5,0
   11368:	00000713          	li	a4,0
   1136c:	fbdff06f          	j	11328 <__floatunsidf+0x3c>

00011370 <__eqsf2>:
   11370:	008007b7          	lui	a5,0x800
   11374:	fff78793          	addi	a5,a5,-1 # 7fffff <__global_pointer$+0x7d7d2f>
   11378:	01755713          	srli	a4,a0,0x17
   1137c:	00a7f833          	and	a6,a5,a0
   11380:	0175d613          	srli	a2,a1,0x17
   11384:	01f55693          	srli	a3,a0,0x1f
   11388:	0ff77713          	andi	a4,a4,255
   1138c:	0ff00513          	li	a0,255
   11390:	00b7f7b3          	and	a5,a5,a1
   11394:	0ff67613          	andi	a2,a2,255
   11398:	01f5d593          	srli	a1,a1,0x1f
   1139c:	00a71663          	bne	a4,a0,113a8 <__eqsf2+0x38>
   113a0:	00100513          	li	a0,1
   113a4:	02081a63          	bnez	a6,113d8 <__eqsf2+0x68>
   113a8:	0ff00513          	li	a0,255
   113ac:	00a61663          	bne	a2,a0,113b8 <__eqsf2+0x48>
   113b0:	00100513          	li	a0,1
   113b4:	02079263          	bnez	a5,113d8 <__eqsf2+0x68>
   113b8:	00100513          	li	a0,1
   113bc:	00c71e63          	bne	a4,a2,113d8 <__eqsf2+0x68>
   113c0:	00f81c63          	bne	a6,a5,113d8 <__eqsf2+0x68>
   113c4:	00b68863          	beq	a3,a1,113d4 <__eqsf2+0x64>
   113c8:	00071863          	bnez	a4,113d8 <__eqsf2+0x68>
   113cc:	01003533          	snez	a0,a6
   113d0:	00008067          	ret
   113d4:	00000513          	li	a0,0
   113d8:	00008067          	ret

000113dc <__clzsi2>:
   113dc:	000107b7          	lui	a5,0x10
   113e0:	02f57a63          	bgeu	a0,a5,11414 <__clzsi2+0x38>
   113e4:	0ff00793          	li	a5,255
   113e8:	00a7b7b3          	sltu	a5,a5,a0
   113ec:	00379793          	slli	a5,a5,0x3
   113f0:	02000713          	li	a4,32
   113f4:	40f70733          	sub	a4,a4,a5
   113f8:	00f557b3          	srl	a5,a0,a5
   113fc:	00013517          	auipc	a0,0x13
   11400:	43c50513          	addi	a0,a0,1084 # 24838 <__clz_tab>
   11404:	00f507b3          	add	a5,a0,a5
   11408:	0007c503          	lbu	a0,0(a5) # 10000 <_start>
   1140c:	40a70533          	sub	a0,a4,a0
   11410:	00008067          	ret
   11414:	01000737          	lui	a4,0x1000
   11418:	01000793          	li	a5,16
   1141c:	fce56ae3          	bltu	a0,a4,113f0 <__clzsi2+0x14>
   11420:	01800793          	li	a5,24
   11424:	fcdff06f          	j	113f0 <__clzsi2+0x14>

00011428 <atexit>:
   11428:	00050593          	mv	a1,a0
   1142c:	00000693          	li	a3,0
   11430:	00000613          	li	a2,0
   11434:	00000513          	li	a0,0
   11438:	1780306f          	j	145b0 <__register_exitproc>

0001143c <__errno>:
   1143c:	81c18793          	addi	a5,gp,-2020 # 27aec <_impure_ptr>
   11440:	0007a503          	lw	a0,0(a5)
   11444:	00008067          	ret

00011448 <exit>:
   11448:	ff010113          	addi	sp,sp,-16
   1144c:	00000593          	li	a1,0
   11450:	00812423          	sw	s0,8(sp)
   11454:	00112623          	sw	ra,12(sp)
   11458:	00050413          	mv	s0,a0
   1145c:	1f0030ef          	jal	ra,1464c <__call_exitprocs>
   11460:	81818793          	addi	a5,gp,-2024 # 27ae8 <_global_impure_ptr>
   11464:	0007a503          	lw	a0,0(a5)
   11468:	03c52783          	lw	a5,60(a0)
   1146c:	00078463          	beqz	a5,11474 <exit+0x2c>
   11470:	000780e7          	jalr	a5
   11474:	00040513          	mv	a0,s0
   11478:	e88ff0ef          	jal	ra,10b00 <_exit>

0001147c <__libc_fini_array>:
   1147c:	ff010113          	addi	sp,sp,-16
   11480:	00812423          	sw	s0,8(sp)
   11484:	00015797          	auipc	a5,0x15
   11488:	0a478793          	addi	a5,a5,164 # 26528 <__init_array_end>
   1148c:	00015417          	auipc	s0,0x15
   11490:	0a040413          	addi	s0,s0,160 # 2652c <__fini_array_end>
   11494:	40f40433          	sub	s0,s0,a5
   11498:	00112623          	sw	ra,12(sp)
   1149c:	00912223          	sw	s1,4(sp)
   114a0:	40245413          	srai	s0,s0,0x2
   114a4:	02040263          	beqz	s0,114c8 <__libc_fini_array+0x4c>
   114a8:	00241493          	slli	s1,s0,0x2
   114ac:	ffc48493          	addi	s1,s1,-4 # 7fffc <__global_pointer$+0x57d2c>
   114b0:	00f484b3          	add	s1,s1,a5
   114b4:	0004a783          	lw	a5,0(s1)
   114b8:	fff40413          	addi	s0,s0,-1
   114bc:	ffc48493          	addi	s1,s1,-4
   114c0:	000780e7          	jalr	a5
   114c4:	fe0418e3          	bnez	s0,114b4 <__libc_fini_array+0x38>
   114c8:	00c12083          	lw	ra,12(sp)
   114cc:	00812403          	lw	s0,8(sp)
   114d0:	00412483          	lw	s1,4(sp)
   114d4:	01010113          	addi	sp,sp,16
   114d8:	00008067          	ret

000114dc <__libc_init_array>:
   114dc:	ff010113          	addi	sp,sp,-16
   114e0:	00812423          	sw	s0,8(sp)
   114e4:	01212023          	sw	s2,0(sp)
   114e8:	00015417          	auipc	s0,0x15
   114ec:	03840413          	addi	s0,s0,56 # 26520 <__preinit_array_end>
   114f0:	00015917          	auipc	s2,0x15
   114f4:	03090913          	addi	s2,s2,48 # 26520 <__preinit_array_end>
   114f8:	40890933          	sub	s2,s2,s0
   114fc:	00112623          	sw	ra,12(sp)
   11500:	00912223          	sw	s1,4(sp)
   11504:	40295913          	srai	s2,s2,0x2
   11508:	00090e63          	beqz	s2,11524 <__libc_init_array+0x48>
   1150c:	00000493          	li	s1,0
   11510:	00042783          	lw	a5,0(s0)
   11514:	00148493          	addi	s1,s1,1
   11518:	00440413          	addi	s0,s0,4
   1151c:	000780e7          	jalr	a5
   11520:	fe9918e3          	bne	s2,s1,11510 <__libc_init_array+0x34>
   11524:	00015417          	auipc	s0,0x15
   11528:	ffc40413          	addi	s0,s0,-4 # 26520 <__preinit_array_end>
   1152c:	00015917          	auipc	s2,0x15
   11530:	ffc90913          	addi	s2,s2,-4 # 26528 <__init_array_end>
   11534:	40890933          	sub	s2,s2,s0
   11538:	40295913          	srai	s2,s2,0x2
   1153c:	00090e63          	beqz	s2,11558 <__libc_init_array+0x7c>
   11540:	00000493          	li	s1,0
   11544:	00042783          	lw	a5,0(s0)
   11548:	00148493          	addi	s1,s1,1
   1154c:	00440413          	addi	s0,s0,4
   11550:	000780e7          	jalr	a5
   11554:	fe9918e3          	bne	s2,s1,11544 <__libc_init_array+0x68>
   11558:	00c12083          	lw	ra,12(sp)
   1155c:	00812403          	lw	s0,8(sp)
   11560:	00412483          	lw	s1,4(sp)
   11564:	00012903          	lw	s2,0(sp)
   11568:	01010113          	addi	sp,sp,16
   1156c:	00008067          	ret

00011570 <memset>:
   11570:	00f00313          	li	t1,15
   11574:	00050713          	mv	a4,a0
   11578:	02c37e63          	bgeu	t1,a2,115b4 <memset+0x44>
   1157c:	00f77793          	andi	a5,a4,15
   11580:	0a079063          	bnez	a5,11620 <memset+0xb0>
   11584:	08059263          	bnez	a1,11608 <memset+0x98>
   11588:	ff067693          	andi	a3,a2,-16
   1158c:	00f67613          	andi	a2,a2,15
   11590:	00e686b3          	add	a3,a3,a4
   11594:	00b72023          	sw	a1,0(a4) # 1000000 <__global_pointer$+0xfd7d30>
   11598:	00b72223          	sw	a1,4(a4)
   1159c:	00b72423          	sw	a1,8(a4)
   115a0:	00b72623          	sw	a1,12(a4)
   115a4:	01070713          	addi	a4,a4,16
   115a8:	fed766e3          	bltu	a4,a3,11594 <memset+0x24>
   115ac:	00061463          	bnez	a2,115b4 <memset+0x44>
   115b0:	00008067          	ret
   115b4:	40c306b3          	sub	a3,t1,a2
   115b8:	00269693          	slli	a3,a3,0x2
   115bc:	00000297          	auipc	t0,0x0
   115c0:	005686b3          	add	a3,a3,t0
   115c4:	00c68067          	jr	12(a3)
   115c8:	00b70723          	sb	a1,14(a4)
   115cc:	00b706a3          	sb	a1,13(a4)
   115d0:	00b70623          	sb	a1,12(a4)
   115d4:	00b705a3          	sb	a1,11(a4)
   115d8:	00b70523          	sb	a1,10(a4)
   115dc:	00b704a3          	sb	a1,9(a4)
   115e0:	00b70423          	sb	a1,8(a4)
   115e4:	00b703a3          	sb	a1,7(a4)
   115e8:	00b70323          	sb	a1,6(a4)
   115ec:	00b702a3          	sb	a1,5(a4)
   115f0:	00b70223          	sb	a1,4(a4)
   115f4:	00b701a3          	sb	a1,3(a4)
   115f8:	00b70123          	sb	a1,2(a4)
   115fc:	00b700a3          	sb	a1,1(a4)
   11600:	00b70023          	sb	a1,0(a4)
   11604:	00008067          	ret
   11608:	0ff5f593          	andi	a1,a1,255
   1160c:	00859693          	slli	a3,a1,0x8
   11610:	00d5e5b3          	or	a1,a1,a3
   11614:	01059693          	slli	a3,a1,0x10
   11618:	00d5e5b3          	or	a1,a1,a3
   1161c:	f6dff06f          	j	11588 <memset+0x18>
   11620:	00279693          	slli	a3,a5,0x2
   11624:	00000297          	auipc	t0,0x0
   11628:	005686b3          	add	a3,a3,t0
   1162c:	00008293          	mv	t0,ra
   11630:	fa0680e7          	jalr	-96(a3)
   11634:	00028093          	mv	ra,t0
   11638:	ff078793          	addi	a5,a5,-16
   1163c:	40f70733          	sub	a4,a4,a5
   11640:	00f60633          	add	a2,a2,a5
   11644:	f6c378e3          	bgeu	t1,a2,115b4 <memset+0x44>
   11648:	f3dff06f          	j	11584 <memset+0x14>

0001164c <_printf_r>:
   1164c:	fc010113          	addi	sp,sp,-64
   11650:	02c12423          	sw	a2,40(sp)
   11654:	02d12623          	sw	a3,44(sp)
   11658:	02f12a23          	sw	a5,52(sp)
   1165c:	02e12823          	sw	a4,48(sp)
   11660:	03012c23          	sw	a6,56(sp)
   11664:	03112e23          	sw	a7,60(sp)
   11668:	00058613          	mv	a2,a1
   1166c:	00852583          	lw	a1,8(a0)
   11670:	02810793          	addi	a5,sp,40
   11674:	00078693          	mv	a3,a5
   11678:	00112e23          	sw	ra,28(sp)
   1167c:	00f12623          	sw	a5,12(sp)
   11680:	1d0000ef          	jal	ra,11850 <_vfprintf_r>
   11684:	01c12083          	lw	ra,28(sp)
   11688:	04010113          	addi	sp,sp,64
   1168c:	00008067          	ret

00011690 <printf>:
   11690:	81c18313          	addi	t1,gp,-2020 # 27aec <_impure_ptr>
   11694:	00032303          	lw	t1,0(t1)
   11698:	fc010113          	addi	sp,sp,-64
   1169c:	02c12423          	sw	a2,40(sp)
   116a0:	02d12623          	sw	a3,44(sp)
   116a4:	02f12a23          	sw	a5,52(sp)
   116a8:	02b12223          	sw	a1,36(sp)
   116ac:	02e12823          	sw	a4,48(sp)
   116b0:	03012c23          	sw	a6,56(sp)
   116b4:	03112e23          	sw	a7,60(sp)
   116b8:	00832583          	lw	a1,8(t1)
   116bc:	02410793          	addi	a5,sp,36
   116c0:	00050613          	mv	a2,a0
   116c4:	00078693          	mv	a3,a5
   116c8:	00030513          	mv	a0,t1
   116cc:	00112e23          	sw	ra,28(sp)
   116d0:	00f12623          	sw	a5,12(sp)
   116d4:	17c000ef          	jal	ra,11850 <_vfprintf_r>
   116d8:	01c12083          	lw	ra,28(sp)
   116dc:	04010113          	addi	sp,sp,64
   116e0:	00008067          	ret

000116e4 <_puts_r>:
   116e4:	fc010113          	addi	sp,sp,-64
   116e8:	02812c23          	sw	s0,56(sp)
   116ec:	00050413          	mv	s0,a0
   116f0:	00058513          	mv	a0,a1
   116f4:	02912a23          	sw	s1,52(sp)
   116f8:	02112e23          	sw	ra,60(sp)
   116fc:	00058493          	mv	s1,a1
   11700:	0c4000ef          	jal	ra,117c4 <strlen>
   11704:	00150713          	addi	a4,a0,1
   11708:	00013697          	auipc	a3,0x13
   1170c:	23068693          	addi	a3,a3,560 # 24938 <__clz_tab+0x100>
   11710:	00e12e23          	sw	a4,28(sp)
   11714:	03842783          	lw	a5,56(s0)
   11718:	02010713          	addi	a4,sp,32
   1171c:	02d12423          	sw	a3,40(sp)
   11720:	00e12a23          	sw	a4,20(sp)
   11724:	00100693          	li	a3,1
   11728:	00200713          	li	a4,2
   1172c:	02912023          	sw	s1,32(sp)
   11730:	02a12223          	sw	a0,36(sp)
   11734:	02d12623          	sw	a3,44(sp)
   11738:	00e12c23          	sw	a4,24(sp)
   1173c:	00842583          	lw	a1,8(s0)
   11740:	06078063          	beqz	a5,117a0 <_puts_r+0xbc>
   11744:	00c59783          	lh	a5,12(a1)
   11748:	01279713          	slli	a4,a5,0x12
   1174c:	02074263          	bltz	a4,11770 <_puts_r+0x8c>
   11750:	0645a703          	lw	a4,100(a1)
   11754:	000026b7          	lui	a3,0x2
   11758:	00d7e7b3          	or	a5,a5,a3
   1175c:	ffffe6b7          	lui	a3,0xffffe
   11760:	fff68693          	addi	a3,a3,-1 # ffffdfff <__global_pointer$+0xfffd5d2f>
   11764:	00d77733          	and	a4,a4,a3
   11768:	00f59623          	sh	a5,12(a1)
   1176c:	06e5a223          	sw	a4,100(a1)
   11770:	01410613          	addi	a2,sp,20
   11774:	00040513          	mv	a0,s0
   11778:	285030ef          	jal	ra,151fc <__sfvwrite_r>
   1177c:	03c12083          	lw	ra,60(sp)
   11780:	03812403          	lw	s0,56(sp)
   11784:	00a03533          	snez	a0,a0
   11788:	40a00533          	neg	a0,a0
   1178c:	ff557513          	andi	a0,a0,-11
   11790:	03412483          	lw	s1,52(sp)
   11794:	00a50513          	addi	a0,a0,10
   11798:	04010113          	addi	sp,sp,64
   1179c:	00008067          	ret
   117a0:	00040513          	mv	a0,s0
   117a4:	00b12623          	sw	a1,12(sp)
   117a8:	5c8030ef          	jal	ra,14d70 <__sinit>
   117ac:	00c12583          	lw	a1,12(sp)
   117b0:	f95ff06f          	j	11744 <_puts_r+0x60>

000117b4 <puts>:
   117b4:	81c18793          	addi	a5,gp,-2020 # 27aec <_impure_ptr>
   117b8:	00050593          	mv	a1,a0
   117bc:	0007a503          	lw	a0,0(a5)
   117c0:	f25ff06f          	j	116e4 <_puts_r>

000117c4 <strlen>:
   117c4:	00357793          	andi	a5,a0,3
   117c8:	00050713          	mv	a4,a0
   117cc:	04079c63          	bnez	a5,11824 <strlen+0x60>
   117d0:	7f7f86b7          	lui	a3,0x7f7f8
   117d4:	f7f68693          	addi	a3,a3,-129 # 7f7f7f7f <__global_pointer$+0x7f7cfcaf>
   117d8:	fff00593          	li	a1,-1
   117dc:	00470713          	addi	a4,a4,4
   117e0:	ffc72603          	lw	a2,-4(a4)
   117e4:	00d677b3          	and	a5,a2,a3
   117e8:	00d787b3          	add	a5,a5,a3
   117ec:	00c7e7b3          	or	a5,a5,a2
   117f0:	00d7e7b3          	or	a5,a5,a3
   117f4:	feb784e3          	beq	a5,a1,117dc <strlen+0x18>
   117f8:	ffc74683          	lbu	a3,-4(a4)
   117fc:	40a707b3          	sub	a5,a4,a0
   11800:	ffd74603          	lbu	a2,-3(a4)
   11804:	ffe74503          	lbu	a0,-2(a4)
   11808:	04068063          	beqz	a3,11848 <strlen+0x84>
   1180c:	02060a63          	beqz	a2,11840 <strlen+0x7c>
   11810:	00a03533          	snez	a0,a0
   11814:	00f50533          	add	a0,a0,a5
   11818:	ffe50513          	addi	a0,a0,-2
   1181c:	00008067          	ret
   11820:	fa0688e3          	beqz	a3,117d0 <strlen+0xc>
   11824:	00074783          	lbu	a5,0(a4)
   11828:	00170713          	addi	a4,a4,1
   1182c:	00377693          	andi	a3,a4,3
   11830:	fe0798e3          	bnez	a5,11820 <strlen+0x5c>
   11834:	40a70733          	sub	a4,a4,a0
   11838:	fff70513          	addi	a0,a4,-1
   1183c:	00008067          	ret
   11840:	ffd78513          	addi	a0,a5,-3
   11844:	00008067          	ret
   11848:	ffc78513          	addi	a0,a5,-4
   1184c:	00008067          	ret

00011850 <_vfprintf_r>:
   11850:	e1010113          	addi	sp,sp,-496
   11854:	1e112623          	sw	ra,492(sp)
   11858:	1e812423          	sw	s0,488(sp)
   1185c:	1d812423          	sw	s8,456(sp)
   11860:	00b12223          	sw	a1,4(sp)
   11864:	00060c13          	mv	s8,a2
   11868:	00d12623          	sw	a3,12(sp)
   1186c:	1e912223          	sw	s1,484(sp)
   11870:	1f212023          	sw	s2,480(sp)
   11874:	1d312e23          	sw	s3,476(sp)
   11878:	1d412c23          	sw	s4,472(sp)
   1187c:	1d512a23          	sw	s5,468(sp)
   11880:	1d612823          	sw	s6,464(sp)
   11884:	1d712623          	sw	s7,460(sp)
   11888:	1d912223          	sw	s9,452(sp)
   1188c:	1da12023          	sw	s10,448(sp)
   11890:	1bb12e23          	sw	s11,444(sp)
   11894:	00050413          	mv	s0,a0
   11898:	00a12e23          	sw	a0,28(sp)
   1189c:	2b1060ef          	jal	ra,1834c <_localeconv_r>
   118a0:	00052783          	lw	a5,0(a0)
   118a4:	00078513          	mv	a0,a5
   118a8:	02f12823          	sw	a5,48(sp)
   118ac:	f19ff0ef          	jal	ra,117c4 <strlen>
   118b0:	02a12423          	sw	a0,40(sp)
   118b4:	0e012823          	sw	zero,240(sp)
   118b8:	0e012a23          	sw	zero,244(sp)
   118bc:	0e012c23          	sw	zero,248(sp)
   118c0:	0e012e23          	sw	zero,252(sp)
   118c4:	00040663          	beqz	s0,118d0 <_vfprintf_r+0x80>
   118c8:	03842783          	lw	a5,56(s0)
   118cc:	540784e3          	beqz	a5,12614 <_vfprintf_r+0xdc4>
   118d0:	00412603          	lw	a2,4(sp)
   118d4:	00c61703          	lh	a4,12(a2)
   118d8:	01071793          	slli	a5,a4,0x10
   118dc:	0107d793          	srli	a5,a5,0x10
   118e0:	01279693          	slli	a3,a5,0x12
   118e4:	0206c663          	bltz	a3,11910 <_vfprintf_r+0xc0>
   118e8:	06462683          	lw	a3,100(a2)
   118ec:	000027b7          	lui	a5,0x2
   118f0:	00f767b3          	or	a5,a4,a5
   118f4:	ffffe737          	lui	a4,0xffffe
   118f8:	fff70713          	addi	a4,a4,-1 # ffffdfff <__global_pointer$+0xfffd5d2f>
   118fc:	00e6f733          	and	a4,a3,a4
   11900:	00f61623          	sh	a5,12(a2)
   11904:	01079793          	slli	a5,a5,0x10
   11908:	06e62223          	sw	a4,100(a2)
   1190c:	0107d793          	srli	a5,a5,0x10
   11910:	0087f713          	andi	a4,a5,8
   11914:	16070863          	beqz	a4,11a84 <_vfprintf_r+0x234>
   11918:	00412703          	lw	a4,4(sp)
   1191c:	01072703          	lw	a4,16(a4)
   11920:	16070263          	beqz	a4,11a84 <_vfprintf_r+0x234>
   11924:	01a7f793          	andi	a5,a5,26
   11928:	00a00713          	li	a4,10
   1192c:	18e78063          	beq	a5,a4,11aac <_vfprintf_r+0x25c>
   11930:	000c0c93          	mv	s9,s8
   11934:	000cc703          	lbu	a4,0(s9)
   11938:	10c10793          	addi	a5,sp,268
   1193c:	0ef12223          	sw	a5,228(sp)
   11940:	0e012623          	sw	zero,236(sp)
   11944:	0e012423          	sw	zero,232(sp)
   11948:	00012c23          	sw	zero,24(sp)
   1194c:	02012623          	sw	zero,44(sp)
   11950:	02012c23          	sw	zero,56(sp)
   11954:	02012e23          	sw	zero,60(sp)
   11958:	04012023          	sw	zero,64(sp)
   1195c:	04012223          	sw	zero,68(sp)
   11960:	00012423          	sw	zero,8(sp)
   11964:	01000b93          	li	s7,16
   11968:	00078d13          	mv	s10,a5
   1196c:	01c12a03          	lw	s4,28(sp)
   11970:	3e070e63          	beqz	a4,11d6c <_vfprintf_r+0x51c>
   11974:	02500693          	li	a3,37
   11978:	00d71463          	bne	a4,a3,11980 <_vfprintf_r+0x130>
   1197c:	77c0106f          	j	130f8 <_vfprintf_r+0x18a8>
   11980:	000c8413          	mv	s0,s9
   11984:	00c0006f          	j	11990 <_vfprintf_r+0x140>
   11988:	14d78663          	beq	a5,a3,11ad4 <_vfprintf_r+0x284>
   1198c:	00090413          	mv	s0,s2
   11990:	00144783          	lbu	a5,1(s0)
   11994:	00140913          	addi	s2,s0,1
   11998:	fe0798e3          	bnez	a5,11988 <_vfprintf_r+0x138>
   1199c:	419904b3          	sub	s1,s2,s9
   119a0:	3c048663          	beqz	s1,11d6c <_vfprintf_r+0x51c>
   119a4:	0ec12683          	lw	a3,236(sp)
   119a8:	0e812703          	lw	a4,232(sp)
   119ac:	019d2023          	sw	s9,0(s10)
   119b0:	009686b3          	add	a3,a3,s1
   119b4:	00170713          	addi	a4,a4,1
   119b8:	009d2223          	sw	s1,4(s10)
   119bc:	0ed12623          	sw	a3,236(sp)
   119c0:	0ee12423          	sw	a4,232(sp)
   119c4:	00700693          	li	a3,7
   119c8:	008d0d13          	addi	s10,s10,8
   119cc:	10e6ca63          	blt	a3,a4,11ae0 <_vfprintf_r+0x290>
   119d0:	00812783          	lw	a5,8(sp)
   119d4:	00144703          	lbu	a4,1(s0)
   119d8:	009787b3          	add	a5,a5,s1
   119dc:	00f12423          	sw	a5,8(sp)
   119e0:	38070663          	beqz	a4,11d6c <_vfprintf_r+0x51c>
   119e4:	fff00313          	li	t1,-1
   119e8:	00190493          	addi	s1,s2,1
   119ec:	00194e03          	lbu	t3,1(s2)
   119f0:	0c0103a3          	sb	zero,199(sp)
   119f4:	00000413          	li	s0,0
   119f8:	00000913          	li	s2,0
   119fc:	00900993          	li	s3,9
   11a00:	02a00b13          	li	s6,42
   11a04:	00030c13          	mv	s8,t1
   11a08:	00148493          	addi	s1,s1,1
   11a0c:	000e0a93          	mv	s5,t3
   11a10:	05a00713          	li	a4,90
   11a14:	fe0a8793          	addi	a5,s5,-32 # 7fffe0 <__global_pointer$+0x7d7d10>
   11a18:	24f76063          	bltu	a4,a5,11c58 <_vfprintf_r+0x408>
   11a1c:	00013697          	auipc	a3,0x13
   11a20:	f2068693          	addi	a3,a3,-224 # 2493c <__clz_tab+0x104>
   11a24:	00279793          	slli	a5,a5,0x2
   11a28:	00d787b3          	add	a5,a5,a3
   11a2c:	0007a783          	lw	a5,0(a5) # 2000 <threadsense.2617+0x2000>
   11a30:	00d787b3          	add	a5,a5,a3
   11a34:	00078067          	jr	a5
   11a38:	000a0513          	mv	a0,s4
   11a3c:	111060ef          	jal	ra,1834c <_localeconv_r>
   11a40:	00452783          	lw	a5,4(a0)
   11a44:	00078513          	mv	a0,a5
   11a48:	04f12223          	sw	a5,68(sp)
   11a4c:	d79ff0ef          	jal	ra,117c4 <strlen>
   11a50:	04a12023          	sw	a0,64(sp)
   11a54:	00050a93          	mv	s5,a0
   11a58:	000a0513          	mv	a0,s4
   11a5c:	0f1060ef          	jal	ra,1834c <_localeconv_r>
   11a60:	00852783          	lw	a5,8(a0)
   11a64:	02f12e23          	sw	a5,60(sp)
   11a68:	000a8463          	beqz	s5,11a70 <_vfprintf_r+0x220>
   11a6c:	52c0106f          	j	12f98 <_vfprintf_r+0x1748>
   11a70:	0004ce03          	lbu	t3,0(s1)
   11a74:	f95ff06f          	j	11a08 <_vfprintf_r+0x1b8>
   11a78:	02096913          	ori	s2,s2,32
   11a7c:	0004ce03          	lbu	t3,0(s1)
   11a80:	f89ff06f          	j	11a08 <_vfprintf_r+0x1b8>
   11a84:	00412583          	lw	a1,4(sp)
   11a88:	01c12503          	lw	a0,28(sp)
   11a8c:	1bd020ef          	jal	ra,14448 <__swsetup_r>
   11a90:	00050463          	beqz	a0,11a98 <_vfprintf_r+0x248>
   11a94:	4640206f          	j	13ef8 <_vfprintf_r+0x26a8>
   11a98:	00412783          	lw	a5,4(sp)
   11a9c:	00a00713          	li	a4,10
   11aa0:	00c7d783          	lhu	a5,12(a5)
   11aa4:	01a7f793          	andi	a5,a5,26
   11aa8:	e8e794e3          	bne	a5,a4,11930 <_vfprintf_r+0xe0>
   11aac:	00412783          	lw	a5,4(sp)
   11ab0:	00e79783          	lh	a5,14(a5)
   11ab4:	e607cee3          	bltz	a5,11930 <_vfprintf_r+0xe0>
   11ab8:	00c12683          	lw	a3,12(sp)
   11abc:	00412583          	lw	a1,4(sp)
   11ac0:	01c12503          	lw	a0,28(sp)
   11ac4:	000c0613          	mv	a2,s8
   11ac8:	0c1020ef          	jal	ra,14388 <__sbprintf>
   11acc:	00a12423          	sw	a0,8(sp)
   11ad0:	0680006f          	j	11b38 <_vfprintf_r+0x2e8>
   11ad4:	419904b3          	sub	s1,s2,s9
   11ad8:	f00486e3          	beqz	s1,119e4 <_vfprintf_r+0x194>
   11adc:	ec9ff06f          	j	119a4 <_vfprintf_r+0x154>
   11ae0:	00412583          	lw	a1,4(sp)
   11ae4:	0e410613          	addi	a2,sp,228
   11ae8:	000a0513          	mv	a0,s4
   11aec:	6850b0ef          	jal	ra,1d970 <__sprint_r>
   11af0:	02051a63          	bnez	a0,11b24 <_vfprintf_r+0x2d4>
   11af4:	10c10d13          	addi	s10,sp,268
   11af8:	ed9ff06f          	j	119d0 <_vfprintf_r+0x180>
   11afc:	00412583          	lw	a1,4(sp)
   11b00:	0e410613          	addi	a2,sp,228
   11b04:	000a0513          	mv	a0,s4
   11b08:	6690b0ef          	jal	ra,1d970 <__sprint_r>
   11b0c:	54050263          	beqz	a0,12050 <_vfprintf_r+0x800>
   11b10:	01012783          	lw	a5,16(sp)
   11b14:	00078863          	beqz	a5,11b24 <_vfprintf_r+0x2d4>
   11b18:	01c12503          	lw	a0,28(sp)
   11b1c:	00078593          	mv	a1,a5
   11b20:	3c4030ef          	jal	ra,14ee4 <_free_r>
   11b24:	00412783          	lw	a5,4(sp)
   11b28:	00c7d783          	lhu	a5,12(a5)
   11b2c:	0407f793          	andi	a5,a5,64
   11b30:	00078463          	beqz	a5,11b38 <_vfprintf_r+0x2e8>
   11b34:	3c40206f          	j	13ef8 <_vfprintf_r+0x26a8>
   11b38:	1ec12083          	lw	ra,492(sp)
   11b3c:	1e812403          	lw	s0,488(sp)
   11b40:	00812503          	lw	a0,8(sp)
   11b44:	1e412483          	lw	s1,484(sp)
   11b48:	1e012903          	lw	s2,480(sp)
   11b4c:	1dc12983          	lw	s3,476(sp)
   11b50:	1d812a03          	lw	s4,472(sp)
   11b54:	1d412a83          	lw	s5,468(sp)
   11b58:	1d012b03          	lw	s6,464(sp)
   11b5c:	1cc12b83          	lw	s7,460(sp)
   11b60:	1c812c03          	lw	s8,456(sp)
   11b64:	1c412c83          	lw	s9,452(sp)
   11b68:	1c012d03          	lw	s10,448(sp)
   11b6c:	1bc12d83          	lw	s11,444(sp)
   11b70:	1f010113          	addi	sp,sp,496
   11b74:	00008067          	ret
   11b78:	00013797          	auipc	a5,0x13
   11b7c:	f6078793          	addi	a5,a5,-160 # 24ad8 <zeroes.4505+0x20>
   11b80:	02f12623          	sw	a5,44(sp)
   11b84:	02097793          	andi	a5,s2,32
   11b88:	000c0313          	mv	t1,s8
   11b8c:	10078063          	beqz	a5,11c8c <_vfprintf_r+0x43c>
   11b90:	00c12783          	lw	a5,12(sp)
   11b94:	00778793          	addi	a5,a5,7
   11b98:	ff87f793          	andi	a5,a5,-8
   11b9c:	0007ac03          	lw	s8,0(a5)
   11ba0:	0047ad83          	lw	s11,4(a5)
   11ba4:	00878713          	addi	a4,a5,8
   11ba8:	00e12623          	sw	a4,12(sp)
   11bac:	00197793          	andi	a5,s2,1
   11bb0:	00078863          	beqz	a5,11bc0 <_vfprintf_r+0x370>
   11bb4:	01bc67b3          	or	a5,s8,s11
   11bb8:	00078463          	beqz	a5,11bc0 <_vfprintf_r+0x370>
   11bbc:	3a00106f          	j	12f5c <_vfprintf_r+0x170c>
   11bc0:	bff97993          	andi	s3,s2,-1025
   11bc4:	00200793          	li	a5,2
   11bc8:	0c0103a3          	sb	zero,199(sp)
   11bcc:	fff00713          	li	a4,-1
   11bd0:	0ae30ce3          	beq	t1,a4,12488 <_vfprintf_r+0xc38>
   11bd4:	01bc6733          	or	a4,s8,s11
   11bd8:	f7f9f913          	andi	s2,s3,-129
   11bdc:	00070463          	beqz	a4,11be4 <_vfprintf_r+0x394>
   11be0:	7d90006f          	j	12bb8 <_vfprintf_r+0x1368>
   11be4:	2c031ee3          	bnez	t1,126c0 <_vfprintf_r+0xe70>
   11be8:	22079a63          	bnez	a5,11e1c <_vfprintf_r+0x5cc>
   11bec:	0019fb13          	andi	s6,s3,1
   11bf0:	1b010c93          	addi	s9,sp,432
   11bf4:	000b0463          	beqz	s6,11bfc <_vfprintf_r+0x3ac>
   11bf8:	3100106f          	j	12f08 <_vfprintf_r+0x16b8>
   11bfc:	000b0993          	mv	s3,s6
   11c00:	006b5463          	bge	s6,t1,11c08 <_vfprintf_r+0x3b8>
   11c04:	00030993          	mv	s3,t1
   11c08:	0c714703          	lbu	a4,199(sp)
   11c0c:	00012823          	sw	zero,16(sp)
   11c10:	02012223          	sw	zero,36(sp)
   11c14:	02012023          	sw	zero,32(sp)
   11c18:	00012a23          	sw	zero,20(sp)
   11c1c:	34070063          	beqz	a4,11f5c <_vfprintf_r+0x70c>
   11c20:	00198993          	addi	s3,s3,1
   11c24:	3380006f          	j	11f5c <_vfprintf_r+0x70c>
   11c28:	00000413          	li	s0,0
   11c2c:	fd0a8693          	addi	a3,s5,-48
   11c30:	00148493          	addi	s1,s1,1
   11c34:	00241793          	slli	a5,s0,0x2
   11c38:	fff4ca83          	lbu	s5,-1(s1)
   11c3c:	008787b3          	add	a5,a5,s0
   11c40:	00179793          	slli	a5,a5,0x1
   11c44:	00f68433          	add	s0,a3,a5
   11c48:	fd0a8693          	addi	a3,s5,-48
   11c4c:	fed9f2e3          	bgeu	s3,a3,11c30 <_vfprintf_r+0x3e0>
   11c50:	fe0a8793          	addi	a5,s5,-32
   11c54:	dcf774e3          	bgeu	a4,a5,11a1c <_vfprintf_r+0x1cc>
   11c58:	100a8a63          	beqz	s5,11d6c <_vfprintf_r+0x51c>
   11c5c:	15510623          	sb	s5,332(sp)
   11c60:	0c0103a3          	sb	zero,199(sp)
   11c64:	00100993          	li	s3,1
   11c68:	00100b13          	li	s6,1
   11c6c:	14c10c93          	addi	s9,sp,332
   11c70:	2d80006f          	j	11f48 <_vfprintf_r+0x6f8>
   11c74:	00013797          	auipc	a5,0x13
   11c78:	e7878793          	addi	a5,a5,-392 # 24aec <zeroes.4505+0x34>
   11c7c:	02f12623          	sw	a5,44(sp)
   11c80:	02097793          	andi	a5,s2,32
   11c84:	000c0313          	mv	t1,s8
   11c88:	f00794e3          	bnez	a5,11b90 <_vfprintf_r+0x340>
   11c8c:	00c12703          	lw	a4,12(sp)
   11c90:	01097793          	andi	a5,s2,16
   11c94:	00072c03          	lw	s8,0(a4)
   11c98:	00470713          	addi	a4,a4,4
   11c9c:	00e12623          	sw	a4,12(sp)
   11ca0:	00078463          	beqz	a5,11ca8 <_vfprintf_r+0x458>
   11ca4:	27c0106f          	j	12f20 <_vfprintf_r+0x16d0>
   11ca8:	04097793          	andi	a5,s2,64
   11cac:	00079463          	bnez	a5,11cb4 <_vfprintf_r+0x464>
   11cb0:	2680106f          	j	12f18 <_vfprintf_r+0x16c8>
   11cb4:	010c1c13          	slli	s8,s8,0x10
   11cb8:	010c5c13          	srli	s8,s8,0x10
   11cbc:	00000d93          	li	s11,0
   11cc0:	eedff06f          	j	11bac <_vfprintf_r+0x35c>
   11cc4:	0004ce03          	lbu	t3,0(s1)
   11cc8:	00496913          	ori	s2,s2,4
   11ccc:	d3dff06f          	j	11a08 <_vfprintf_r+0x1b8>
   11cd0:	0004ca83          	lbu	s5,0(s1)
   11cd4:	00148793          	addi	a5,s1,1
   11cd8:	016a9463          	bne	s5,s6,11ce0 <_vfprintf_r+0x490>
   11cdc:	6380206f          	j	14314 <_vfprintf_r+0x2ac4>
   11ce0:	fd0a8693          	addi	a3,s5,-48
   11ce4:	00078493          	mv	s1,a5
   11ce8:	00000c13          	li	s8,0
   11cec:	d2d9e4e3          	bltu	s3,a3,11a14 <_vfprintf_r+0x1c4>
   11cf0:	00148493          	addi	s1,s1,1
   11cf4:	002c1793          	slli	a5,s8,0x2
   11cf8:	fff4ca83          	lbu	s5,-1(s1)
   11cfc:	018787b3          	add	a5,a5,s8
   11d00:	00179793          	slli	a5,a5,0x1
   11d04:	00d78c33          	add	s8,a5,a3
   11d08:	fd0a8693          	addi	a3,s5,-48
   11d0c:	fed9f2e3          	bgeu	s3,a3,11cf0 <_vfprintf_r+0x4a0>
   11d10:	d05ff06f          	j	11a14 <_vfprintf_r+0x1c4>
   11d14:	00c12683          	lw	a3,12(sp)
   11d18:	02097793          	andi	a5,s2,32
   11d1c:	00468713          	addi	a4,a3,4
   11d20:	00078463          	beqz	a5,11d28 <_vfprintf_r+0x4d8>
   11d24:	2540106f          	j	12f78 <_vfprintf_r+0x1728>
   11d28:	01097793          	andi	a5,s2,16
   11d2c:	00078463          	beqz	a5,11d34 <_vfprintf_r+0x4e4>
   11d30:	6540106f          	j	13384 <_vfprintf_r+0x1b34>
   11d34:	04097793          	andi	a5,s2,64
   11d38:	00078463          	beqz	a5,11d40 <_vfprintf_r+0x4f0>
   11d3c:	2410106f          	j	1377c <_vfprintf_r+0x1f2c>
   11d40:	20097913          	andi	s2,s2,512
   11d44:	00091463          	bnez	s2,11d4c <_vfprintf_r+0x4fc>
   11d48:	63c0106f          	j	13384 <_vfprintf_r+0x1b34>
   11d4c:	00c12783          	lw	a5,12(sp)
   11d50:	00e12623          	sw	a4,12(sp)
   11d54:	00812703          	lw	a4,8(sp)
   11d58:	0007a783          	lw	a5,0(a5)
   11d5c:	00048c93          	mv	s9,s1
   11d60:	00e78023          	sb	a4,0(a5)
   11d64:	000cc703          	lbu	a4,0(s9)
   11d68:	c00716e3          	bnez	a4,11974 <_vfprintf_r+0x124>
   11d6c:	0ec12783          	lw	a5,236(sp)
   11d70:	da078ae3          	beqz	a5,11b24 <_vfprintf_r+0x2d4>
   11d74:	00412583          	lw	a1,4(sp)
   11d78:	01c12503          	lw	a0,28(sp)
   11d7c:	0e410613          	addi	a2,sp,228
   11d80:	3f10b0ef          	jal	ra,1d970 <__sprint_r>
   11d84:	da1ff06f          	j	11b24 <_vfprintf_r+0x2d4>
   11d88:	0004ce03          	lbu	t3,0(s1)
   11d8c:	06c00793          	li	a5,108
   11d90:	00fe1463          	bne	t3,a5,11d98 <_vfprintf_r+0x548>
   11d94:	2c80106f          	j	1305c <_vfprintf_r+0x180c>
   11d98:	01096913          	ori	s2,s2,16
   11d9c:	c6dff06f          	j	11a08 <_vfprintf_r+0x1b8>
   11da0:	0004ce03          	lbu	t3,0(s1)
   11da4:	06800793          	li	a5,104
   11da8:	00fe1463          	bne	t3,a5,11db0 <_vfprintf_r+0x560>
   11dac:	2a00106f          	j	1304c <_vfprintf_r+0x17fc>
   11db0:	04096913          	ori	s2,s2,64
   11db4:	c55ff06f          	j	11a08 <_vfprintf_r+0x1b8>
   11db8:	02097793          	andi	a5,s2,32
   11dbc:	000c0313          	mv	t1,s8
   11dc0:	060790e3          	bnez	a5,12620 <_vfprintf_r+0xdd0>
   11dc4:	00c12783          	lw	a5,12(sp)
   11dc8:	01097713          	andi	a4,s2,16
   11dcc:	00478793          	addi	a5,a5,4
   11dd0:	00070463          	beqz	a4,11dd8 <_vfprintf_r+0x588>
   11dd4:	58c0206f          	j	14360 <_vfprintf_r+0x2b10>
   11dd8:	04097713          	andi	a4,s2,64
   11ddc:	00071463          	bnez	a4,11de4 <_vfprintf_r+0x594>
   11de0:	6740106f          	j	13454 <_vfprintf_r+0x1c04>
   11de4:	00c12703          	lw	a4,12(sp)
   11de8:	00090993          	mv	s3,s2
   11dec:	00f12623          	sw	a5,12(sp)
   11df0:	00071c03          	lh	s8,0(a4)
   11df4:	41fc5d93          	srai	s11,s8,0x1f
   11df8:	000d8713          	mv	a4,s11
   11dfc:	66074463          	bltz	a4,12464 <_vfprintf_r+0xc14>
   11e00:	fff00793          	li	a5,-1
   11e04:	08f30ce3          	beq	t1,a5,1269c <_vfprintf_r+0xe4c>
   11e08:	01bc67b3          	or	a5,s8,s11
   11e0c:	f7f9f913          	andi	s2,s3,-129
   11e10:	080794e3          	bnez	a5,12698 <_vfprintf_r+0xe48>
   11e14:	00030463          	beqz	t1,11e1c <_vfprintf_r+0x5cc>
   11e18:	5c90106f          	j	13be0 <_vfprintf_r+0x2390>
   11e1c:	00000313          	li	t1,0
   11e20:	00000b13          	li	s6,0
   11e24:	1b010c93          	addi	s9,sp,432
   11e28:	dd5ff06f          	j	11bfc <_vfprintf_r+0x3ac>
   11e2c:	08096913          	ori	s2,s2,128
   11e30:	0004ce03          	lbu	t3,0(s1)
   11e34:	bd5ff06f          	j	11a08 <_vfprintf_r+0x1b8>
   11e38:	02097793          	andi	a5,s2,32
   11e3c:	000c0313          	mv	t1,s8
   11e40:	01096993          	ori	s3,s2,16
   11e44:	000794e3          	bnez	a5,1264c <_vfprintf_r+0xdfc>
   11e48:	00c12783          	lw	a5,12(sp)
   11e4c:	00478793          	addi	a5,a5,4
   11e50:	00c12703          	lw	a4,12(sp)
   11e54:	00000d93          	li	s11,0
   11e58:	00f12623          	sw	a5,12(sp)
   11e5c:	00072c03          	lw	s8,0(a4)
   11e60:	00100793          	li	a5,1
   11e64:	d65ff06f          	j	11bc8 <_vfprintf_r+0x378>
   11e68:	00c12783          	lw	a5,12(sp)
   11e6c:	0c0103a3          	sb	zero,199(sp)
   11e70:	000c0313          	mv	t1,s8
   11e74:	0007ac83          	lw	s9,0(a5)
   11e78:	00478c13          	addi	s8,a5,4
   11e7c:	000c9463          	bnez	s9,11e84 <_vfprintf_r+0x634>
   11e80:	1ec0106f          	j	1306c <_vfprintf_r+0x181c>
   11e84:	fff00713          	li	a4,-1
   11e88:	00e31463          	bne	t1,a4,11e90 <_vfprintf_r+0x640>
   11e8c:	5b80106f          	j	13444 <_vfprintf_r+0x1bf4>
   11e90:	00030613          	mv	a2,t1
   11e94:	00000593          	li	a1,0
   11e98:	000c8513          	mv	a0,s9
   11e9c:	00612623          	sw	t1,12(sp)
   11ea0:	7d1060ef          	jal	ra,18e70 <memchr>
   11ea4:	00a12823          	sw	a0,16(sp)
   11ea8:	00c12303          	lw	t1,12(sp)
   11eac:	00051463          	bnez	a0,11eb4 <_vfprintf_r+0x664>
   11eb0:	7950106f          	j	13e44 <_vfprintf_r+0x25f4>
   11eb4:	01012783          	lw	a5,16(sp)
   11eb8:	41978b33          	sub	s6,a5,s9
   11ebc:	0c714703          	lbu	a4,199(sp)
   11ec0:	fffb4993          	not	s3,s6
   11ec4:	41f9d993          	srai	s3,s3,0x1f
   11ec8:	01812623          	sw	s8,12(sp)
   11ecc:	00012823          	sw	zero,16(sp)
   11ed0:	02012223          	sw	zero,36(sp)
   11ed4:	02012023          	sw	zero,32(sp)
   11ed8:	00012a23          	sw	zero,20(sp)
   11edc:	013b79b3          	and	s3,s6,s3
   11ee0:	00000313          	li	t1,0
   11ee4:	d2071ee3          	bnez	a4,11c20 <_vfprintf_r+0x3d0>
   11ee8:	0740006f          	j	11f5c <_vfprintf_r+0x70c>
   11eec:	02097793          	andi	a5,s2,32
   11ef0:	000c0313          	mv	t1,s8
   11ef4:	01096913          	ori	s2,s2,16
   11ef8:	76079c63          	bnez	a5,12670 <_vfprintf_r+0xe20>
   11efc:	00c12783          	lw	a5,12(sp)
   11f00:	00478793          	addi	a5,a5,4
   11f04:	00c12703          	lw	a4,12(sp)
   11f08:	00000d93          	li	s11,0
   11f0c:	00f12623          	sw	a5,12(sp)
   11f10:	00072c03          	lw	s8,0(a4)
   11f14:	7780006f          	j	1268c <_vfprintf_r+0xe3c>
   11f18:	00896913          	ori	s2,s2,8
   11f1c:	0004ce03          	lbu	t3,0(s1)
   11f20:	ae9ff06f          	j	11a08 <_vfprintf_r+0x1b8>
   11f24:	00c12703          	lw	a4,12(sp)
   11f28:	0c0103a3          	sb	zero,199(sp)
   11f2c:	00100993          	li	s3,1
   11f30:	00072783          	lw	a5,0(a4)
   11f34:	00470713          	addi	a4,a4,4
   11f38:	00e12623          	sw	a4,12(sp)
   11f3c:	14f10623          	sb	a5,332(sp)
   11f40:	00100b13          	li	s6,1
   11f44:	14c10c93          	addi	s9,sp,332
   11f48:	00012823          	sw	zero,16(sp)
   11f4c:	00000313          	li	t1,0
   11f50:	02012223          	sw	zero,36(sp)
   11f54:	02012023          	sw	zero,32(sp)
   11f58:	00012a23          	sw	zero,20(sp)
   11f5c:	00297f93          	andi	t6,s2,2
   11f60:	000f8463          	beqz	t6,11f68 <_vfprintf_r+0x718>
   11f64:	00298993          	addi	s3,s3,2
   11f68:	08497d93          	andi	s11,s2,132
   11f6c:	0ec12703          	lw	a4,236(sp)
   11f70:	000d9663          	bnez	s11,11f7c <_vfprintf_r+0x72c>
   11f74:	41340833          	sub	a6,s0,s3
   11f78:	450044e3          	bgtz	a6,12bc0 <_vfprintf_r+0x1370>
   11f7c:	0c714683          	lbu	a3,199(sp)
   11f80:	02068a63          	beqz	a3,11fb4 <_vfprintf_r+0x764>
   11f84:	0e812683          	lw	a3,232(sp)
   11f88:	0c710613          	addi	a2,sp,199
   11f8c:	00cd2023          	sw	a2,0(s10)
   11f90:	00170713          	addi	a4,a4,1
   11f94:	00100613          	li	a2,1
   11f98:	00168693          	addi	a3,a3,1
   11f9c:	00cd2223          	sw	a2,4(s10)
   11fa0:	0ee12623          	sw	a4,236(sp)
   11fa4:	0ed12423          	sw	a3,232(sp)
   11fa8:	00700613          	li	a2,7
   11fac:	008d0d13          	addi	s10,s10,8
   11fb0:	0cd64263          	blt	a2,a3,12074 <_vfprintf_r+0x824>
   11fb4:	020f8a63          	beqz	t6,11fe8 <_vfprintf_r+0x798>
   11fb8:	0e812683          	lw	a3,232(sp)
   11fbc:	0c810613          	addi	a2,sp,200
   11fc0:	00cd2023          	sw	a2,0(s10)
   11fc4:	00270713          	addi	a4,a4,2
   11fc8:	00200613          	li	a2,2
   11fcc:	00168693          	addi	a3,a3,1
   11fd0:	00cd2223          	sw	a2,4(s10)
   11fd4:	0ee12623          	sw	a4,236(sp)
   11fd8:	0ed12423          	sw	a3,232(sp)
   11fdc:	00700613          	li	a2,7
   11fe0:	008d0d13          	addi	s10,s10,8
   11fe4:	50d640e3          	blt	a2,a3,12ce4 <_vfprintf_r+0x1494>
   11fe8:	08000693          	li	a3,128
   11fec:	06dd8ce3          	beq	s11,a3,12864 <_vfprintf_r+0x1014>
   11ff0:	41630c33          	sub	s8,t1,s6
   11ff4:	17804ce3          	bgtz	s8,1296c <_vfprintf_r+0x111c>
   11ff8:	10097693          	andi	a3,s2,256
   11ffc:	72069063          	bnez	a3,1271c <_vfprintf_r+0xecc>
   12000:	0e812783          	lw	a5,232(sp)
   12004:	01670733          	add	a4,a4,s6
   12008:	019d2023          	sw	s9,0(s10)
   1200c:	00178793          	addi	a5,a5,1
   12010:	016d2223          	sw	s6,4(s10)
   12014:	0ee12623          	sw	a4,236(sp)
   12018:	0ef12423          	sw	a5,232(sp)
   1201c:	00700693          	li	a3,7
   12020:	008d0d13          	addi	s10,s10,8
   12024:	26f6c8e3          	blt	a3,a5,12a94 <_vfprintf_r+0x1244>
   12028:	00497913          	andi	s2,s2,4
   1202c:	00090663          	beqz	s2,12038 <_vfprintf_r+0x7e8>
   12030:	41340933          	sub	s2,s0,s3
   12034:	07204863          	bgtz	s2,120a4 <_vfprintf_r+0x854>
   12038:	01345463          	bge	s0,s3,12040 <_vfprintf_r+0x7f0>
   1203c:	00098413          	mv	s0,s3
   12040:	00812783          	lw	a5,8(sp)
   12044:	008787b3          	add	a5,a5,s0
   12048:	00f12423          	sw	a5,8(sp)
   1204c:	aa0718e3          	bnez	a4,11afc <_vfprintf_r+0x2ac>
   12050:	01012783          	lw	a5,16(sp)
   12054:	0e012423          	sw	zero,232(sp)
   12058:	00078863          	beqz	a5,12068 <_vfprintf_r+0x818>
   1205c:	01012583          	lw	a1,16(sp)
   12060:	000a0513          	mv	a0,s4
   12064:	681020ef          	jal	ra,14ee4 <_free_r>
   12068:	10c10d13          	addi	s10,sp,268
   1206c:	00048c93          	mv	s9,s1
   12070:	cf5ff06f          	j	11d64 <_vfprintf_r+0x514>
   12074:	00412583          	lw	a1,4(sp)
   12078:	0e410613          	addi	a2,sp,228
   1207c:	000a0513          	mv	a0,s4
   12080:	04612423          	sw	t1,72(sp)
   12084:	03f12a23          	sw	t6,52(sp)
   12088:	0e90b0ef          	jal	ra,1d970 <__sprint_r>
   1208c:	a80512e3          	bnez	a0,11b10 <_vfprintf_r+0x2c0>
   12090:	0ec12703          	lw	a4,236(sp)
   12094:	10c10d13          	addi	s10,sp,268
   12098:	04812303          	lw	t1,72(sp)
   1209c:	03412f83          	lw	t6,52(sp)
   120a0:	f15ff06f          	j	11fb4 <_vfprintf_r+0x764>
   120a4:	0e812783          	lw	a5,232(sp)
   120a8:	00013c17          	auipc	s8,0x13
   120ac:	a00c0c13          	addi	s8,s8,-1536 # 24aa8 <blanks.4504>
   120b0:	072bd063          	bge	s7,s2,12110 <_vfprintf_r+0x8c0>
   120b4:	00700b13          	li	s6,7
   120b8:	00412a83          	lw	s5,4(sp)
   120bc:	00c0006f          	j	120c8 <_vfprintf_r+0x878>
   120c0:	ff090913          	addi	s2,s2,-16
   120c4:	052bd663          	bge	s7,s2,12110 <_vfprintf_r+0x8c0>
   120c8:	01070713          	addi	a4,a4,16
   120cc:	00178793          	addi	a5,a5,1
   120d0:	018d2023          	sw	s8,0(s10)
   120d4:	017d2223          	sw	s7,4(s10)
   120d8:	0ee12623          	sw	a4,236(sp)
   120dc:	0ef12423          	sw	a5,232(sp)
   120e0:	008d0d13          	addi	s10,s10,8
   120e4:	fcfb5ee3          	bge	s6,a5,120c0 <_vfprintf_r+0x870>
   120e8:	0e410613          	addi	a2,sp,228
   120ec:	000a8593          	mv	a1,s5
   120f0:	000a0513          	mv	a0,s4
   120f4:	07d0b0ef          	jal	ra,1d970 <__sprint_r>
   120f8:	a0051ce3          	bnez	a0,11b10 <_vfprintf_r+0x2c0>
   120fc:	ff090913          	addi	s2,s2,-16
   12100:	0ec12703          	lw	a4,236(sp)
   12104:	0e812783          	lw	a5,232(sp)
   12108:	10c10d13          	addi	s10,sp,268
   1210c:	fb2bcee3          	blt	s7,s2,120c8 <_vfprintf_r+0x878>
   12110:	01270733          	add	a4,a4,s2
   12114:	00178793          	addi	a5,a5,1
   12118:	018d2023          	sw	s8,0(s10)
   1211c:	012d2223          	sw	s2,4(s10)
   12120:	0ee12623          	sw	a4,236(sp)
   12124:	0ef12423          	sw	a5,232(sp)
   12128:	00700693          	li	a3,7
   1212c:	f0f6d6e3          	bge	a3,a5,12038 <_vfprintf_r+0x7e8>
   12130:	00412583          	lw	a1,4(sp)
   12134:	0e410613          	addi	a2,sp,228
   12138:	000a0513          	mv	a0,s4
   1213c:	0350b0ef          	jal	ra,1d970 <__sprint_r>
   12140:	9c0518e3          	bnez	a0,11b10 <_vfprintf_r+0x2c0>
   12144:	0ec12703          	lw	a4,236(sp)
   12148:	ef1ff06f          	j	12038 <_vfprintf_r+0x7e8>
   1214c:	00897713          	andi	a4,s2,8
   12150:	000c0313          	mv	t1,s8
   12154:	5c071ae3          	bnez	a4,12f28 <_vfprintf_r+0x16d8>
   12158:	00c12783          	lw	a5,12(sp)
   1215c:	0b010513          	addi	a0,sp,176
   12160:	01812823          	sw	s8,16(sp)
   12164:	00778793          	addi	a5,a5,7
   12168:	ff87f793          	andi	a5,a5,-8
   1216c:	0007a583          	lw	a1,0(a5)
   12170:	0047a603          	lw	a2,4(a5)
   12174:	00878793          	addi	a5,a5,8
   12178:	00f12623          	sw	a5,12(sp)
   1217c:	060120ef          	jal	ra,241dc <__extenddftf2>
   12180:	0b012703          	lw	a4,176(sp)
   12184:	01012303          	lw	t1,16(sp)
   12188:	0ee12823          	sw	a4,240(sp)
   1218c:	0b412703          	lw	a4,180(sp)
   12190:	0ee12a23          	sw	a4,244(sp)
   12194:	0b812703          	lw	a4,184(sp)
   12198:	0ee12c23          	sw	a4,248(sp)
   1219c:	0bc12703          	lw	a4,188(sp)
   121a0:	0ee12e23          	sw	a4,252(sp)
   121a4:	0f010513          	addi	a0,sp,240
   121a8:	00612823          	sw	t1,16(sp)
   121ac:	134060ef          	jal	ra,182e0 <_ldcheck>
   121b0:	0ca12623          	sw	a0,204(sp)
   121b4:	00200713          	li	a4,2
   121b8:	01012303          	lw	t1,16(sp)
   121bc:	00e51463          	bne	a0,a4,121c4 <_vfprintf_r+0x974>
   121c0:	1440106f          	j	13304 <_vfprintf_r+0x1ab4>
   121c4:	00100713          	li	a4,1
   121c8:	00e51463          	bne	a0,a4,121d0 <_vfprintf_r+0x980>
   121cc:	2e40106f          	j	134b0 <_vfprintf_r+0x1c60>
   121d0:	06100713          	li	a4,97
   121d4:	00ea9463          	bne	s5,a4,121dc <_vfprintf_r+0x98c>
   121d8:	5f50106f          	j	13fcc <_vfprintf_r+0x277c>
   121dc:	04100713          	li	a4,65
   121e0:	00ea9463          	bne	s5,a4,121e8 <_vfprintf_r+0x998>
   121e4:	6340106f          	j	13818 <_vfprintf_r+0x1fc8>
   121e8:	fdfaf793          	andi	a5,s5,-33
   121ec:	fff00713          	li	a4,-1
   121f0:	04f12423          	sw	a5,72(sp)
   121f4:	00e31463          	bne	t1,a4,121fc <_vfprintf_r+0x9ac>
   121f8:	6790106f          	j	14070 <_vfprintf_r+0x2820>
   121fc:	04700713          	li	a4,71
   12200:	00e79463          	bne	a5,a4,12208 <_vfprintf_r+0x9b8>
   12204:	65d0106f          	j	14060 <_vfprintf_r+0x2810>
   12208:	0fc12b03          	lw	s6,252(sp)
   1220c:	05212a23          	sw	s2,84(sp)
   12210:	10096713          	ori	a4,s2,256
   12214:	0f012f03          	lw	t5,240(sp)
   12218:	0f412d83          	lw	s11,244(sp)
   1221c:	0f812e83          	lw	t4,248(sp)
   12220:	000b5463          	bgez	s6,12228 <_vfprintf_r+0x9d8>
   12224:	27d0106f          	j	13ca0 <_vfprintf_r+0x2450>
   12228:	04012e23          	sw	zero,92(sp)
   1222c:	00070913          	mv	s2,a4
   12230:	00012823          	sw	zero,16(sp)
   12234:	04812703          	lw	a4,72(sp)
   12238:	04600793          	li	a5,70
   1223c:	00f71463          	bne	a4,a5,12244 <_vfprintf_r+0x9f4>
   12240:	2f50106f          	j	13d34 <_vfprintf_r+0x24e4>
   12244:	04500793          	li	a5,69
   12248:	00f71463          	bne	a4,a5,12250 <_vfprintf_r+0xa00>
   1224c:	51d0106f          	j	13f68 <_vfprintf_r+0x2718>
   12250:	0b010c13          	addi	s8,sp,176
   12254:	0d010793          	addi	a5,sp,208
   12258:	0cc10713          	addi	a4,sp,204
   1225c:	00030693          	mv	a3,t1
   12260:	0dc10813          	addi	a6,sp,220
   12264:	00200613          	li	a2,2
   12268:	000c0593          	mv	a1,s8
   1226c:	000a0513          	mv	a0,s4
   12270:	02612023          	sw	t1,32(sp)
   12274:	0be12823          	sw	t5,176(sp)
   12278:	01e12c23          	sw	t5,24(sp)
   1227c:	0bd12c23          	sw	t4,184(sp)
   12280:	01d12a23          	sw	t4,20(sp)
   12284:	0bb12a23          	sw	s11,180(sp)
   12288:	0b612e23          	sw	s6,188(sp)
   1228c:	561040ef          	jal	ra,16fec <_ldtoa_r>
   12290:	04812783          	lw	a5,72(sp)
   12294:	04700713          	li	a4,71
   12298:	00050c93          	mv	s9,a0
   1229c:	01412e83          	lw	t4,20(sp)
   122a0:	01812f03          	lw	t5,24(sp)
   122a4:	02012303          	lw	t1,32(sp)
   122a8:	00e78463          	beq	a5,a4,122b0 <_vfprintf_r+0xa60>
   122ac:	0bc0206f          	j	14368 <_vfprintf_r+0x2b18>
   122b0:	05412783          	lw	a5,84(sp)
   122b4:	0017f713          	andi	a4,a5,1
   122b8:	00070463          	beqz	a4,122c0 <_vfprintf_r+0xa70>
   122bc:	49d0106f          	j	13f58 <_vfprintf_r+0x2708>
   122c0:	0dc12703          	lw	a4,220(sp)
   122c4:	419707b3          	sub	a5,a4,s9
   122c8:	00f12c23          	sw	a5,24(sp)
   122cc:	0cc12783          	lw	a5,204(sp)
   122d0:	04700713          	li	a4,71
   122d4:	00f12a23          	sw	a5,20(sp)
   122d8:	04812783          	lw	a5,72(sp)
   122dc:	00e79463          	bne	a5,a4,122e4 <_vfprintf_r+0xa94>
   122e0:	1390106f          	j	13c18 <_vfprintf_r+0x23c8>
   122e4:	04812783          	lw	a5,72(sp)
   122e8:	04600713          	li	a4,70
   122ec:	00e79463          	bne	a5,a4,122f4 <_vfprintf_r+0xaa4>
   122f0:	3e50106f          	j	13ed4 <_vfprintf_r+0x2684>
   122f4:	01412783          	lw	a5,20(sp)
   122f8:	04100593          	li	a1,65
   122fc:	0ffaf693          	andi	a3,s5,255
   12300:	fff78713          	addi	a4,a5,-1
   12304:	04812783          	lw	a5,72(sp)
   12308:	0ce12623          	sw	a4,204(sp)
   1230c:	00000613          	li	a2,0
   12310:	00b79863          	bne	a5,a1,12320 <_vfprintf_r+0xad0>
   12314:	00f68693          	addi	a3,a3,15
   12318:	0ff6f693          	andi	a3,a3,255
   1231c:	00100613          	li	a2,1
   12320:	0cd10a23          	sb	a3,212(sp)
   12324:	02b00693          	li	a3,43
   12328:	00075a63          	bgez	a4,1233c <_vfprintf_r+0xaec>
   1232c:	01412783          	lw	a5,20(sp)
   12330:	00100713          	li	a4,1
   12334:	02d00693          	li	a3,45
   12338:	40f70733          	sub	a4,a4,a5
   1233c:	0cd10aa3          	sb	a3,213(sp)
   12340:	00900693          	li	a3,9
   12344:	00e6c463          	blt	a3,a4,1234c <_vfprintf_r+0xafc>
   12348:	5b90106f          	j	14100 <_vfprintf_r+0x28b0>
   1234c:	0e310813          	addi	a6,sp,227
   12350:	00080613          	mv	a2,a6
   12354:	00a00513          	li	a0,10
   12358:	06300313          	li	t1,99
   1235c:	00c0006f          	j	12368 <_vfprintf_r+0xb18>
   12360:	00058613          	mv	a2,a1
   12364:	00068713          	mv	a4,a3
   12368:	02a767b3          	rem	a5,a4,a0
   1236c:	fff60593          	addi	a1,a2,-1
   12370:	03078793          	addi	a5,a5,48
   12374:	fef60fa3          	sb	a5,-1(a2)
   12378:	02a746b3          	div	a3,a4,a0
   1237c:	fee342e3          	blt	t1,a4,12360 <_vfprintf_r+0xb10>
   12380:	03068713          	addi	a4,a3,48
   12384:	0ff77713          	andi	a4,a4,255
   12388:	ffe60693          	addi	a3,a2,-2
   1238c:	fee58fa3          	sb	a4,-1(a1)
   12390:	0106e463          	bltu	a3,a6,12398 <_vfprintf_r+0xb48>
   12394:	7ad0106f          	j	14340 <_vfprintf_r+0x2af0>
   12398:	0d610593          	addi	a1,sp,214
   1239c:	0080006f          	j	123a4 <_vfprintf_r+0xb54>
   123a0:	0006c703          	lbu	a4,0(a3)
   123a4:	00158593          	addi	a1,a1,1
   123a8:	00168693          	addi	a3,a3,1
   123ac:	fee58fa3          	sb	a4,-1(a1)
   123b0:	ff0698e3          	bne	a3,a6,123a0 <_vfprintf_r+0xb50>
   123b4:	0e510713          	addi	a4,sp,229
   123b8:	0d610793          	addi	a5,sp,214
   123bc:	40c70733          	sub	a4,a4,a2
   123c0:	00e78733          	add	a4,a5,a4
   123c4:	0d410693          	addi	a3,sp,212
   123c8:	40d707b3          	sub	a5,a4,a3
   123cc:	02f12c23          	sw	a5,56(sp)
   123d0:	01812783          	lw	a5,24(sp)
   123d4:	03812683          	lw	a3,56(sp)
   123d8:	00100713          	li	a4,1
   123dc:	00d78b33          	add	s6,a5,a3
   123e0:	00f74463          	blt	a4,a5,123e8 <_vfprintf_r+0xb98>
   123e4:	66d0106f          	j	14250 <_vfprintf_r+0x2a00>
   123e8:	02812783          	lw	a5,40(sp)
   123ec:	00fb0b33          	add	s6,s6,a5
   123f0:	05412783          	lw	a5,84(sp)
   123f4:	fffb4993          	not	s3,s6
   123f8:	41f9d993          	srai	s3,s3,0x1f
   123fc:	bff7f913          	andi	s2,a5,-1025
   12400:	10096913          	ori	s2,s2,256
   12404:	013b79b3          	and	s3,s6,s3
   12408:	02012223          	sw	zero,36(sp)
   1240c:	02012023          	sw	zero,32(sp)
   12410:	00012a23          	sw	zero,20(sp)
   12414:	05c12783          	lw	a5,92(sp)
   12418:	00079463          	bnez	a5,12420 <_vfprintf_r+0xbd0>
   1241c:	0710106f          	j	13c8c <_vfprintf_r+0x243c>
   12420:	02d00713          	li	a4,45
   12424:	0ce103a3          	sb	a4,199(sp)
   12428:	00000313          	li	t1,0
   1242c:	00198993          	addi	s3,s3,1
   12430:	b2dff06f          	j	11f5c <_vfprintf_r+0x70c>
   12434:	02097793          	andi	a5,s2,32
   12438:	000c0313          	mv	t1,s8
   1243c:	01096993          	ori	s3,s2,16
   12440:	1e079263          	bnez	a5,12624 <_vfprintf_r+0xdd4>
   12444:	00c12783          	lw	a5,12(sp)
   12448:	00478793          	addi	a5,a5,4
   1244c:	00c12703          	lw	a4,12(sp)
   12450:	00f12623          	sw	a5,12(sp)
   12454:	00072c03          	lw	s8,0(a4)
   12458:	41fc5d93          	srai	s11,s8,0x1f
   1245c:	000d8713          	mv	a4,s11
   12460:	9a0750e3          	bgez	a4,11e00 <_vfprintf_r+0x5b0>
   12464:	41800c33          	neg	s8,s8
   12468:	018037b3          	snez	a5,s8
   1246c:	41b00db3          	neg	s11,s11
   12470:	40fd8db3          	sub	s11,s11,a5
   12474:	02d00793          	li	a5,45
   12478:	0cf103a3          	sb	a5,199(sp)
   1247c:	fff00713          	li	a4,-1
   12480:	00100793          	li	a5,1
   12484:	f4e31863          	bne	t1,a4,11bd4 <_vfprintf_r+0x384>
   12488:	00100713          	li	a4,1
   1248c:	20e78863          	beq	a5,a4,1269c <_vfprintf_r+0xe4c>
   12490:	00200713          	li	a4,2
   12494:	24e78263          	beq	a5,a4,126d8 <_vfprintf_r+0xe88>
   12498:	1b010693          	addi	a3,sp,432
   1249c:	0080006f          	j	124a4 <_vfprintf_r+0xc54>
   124a0:	000c8693          	mv	a3,s9
   124a4:	01dd9793          	slli	a5,s11,0x1d
   124a8:	007c7713          	andi	a4,s8,7
   124ac:	003c5c13          	srli	s8,s8,0x3
   124b0:	03070713          	addi	a4,a4,48
   124b4:	0187ec33          	or	s8,a5,s8
   124b8:	003ddd93          	srli	s11,s11,0x3
   124bc:	fee68fa3          	sb	a4,-1(a3)
   124c0:	01bc67b3          	or	a5,s8,s11
   124c4:	fff68c93          	addi	s9,a3,-1
   124c8:	fc079ce3          	bnez	a5,124a0 <_vfprintf_r+0xc50>
   124cc:	0019f613          	andi	a2,s3,1
   124d0:	22060e63          	beqz	a2,1270c <_vfprintf_r+0xebc>
   124d4:	03000613          	li	a2,48
   124d8:	22c70a63          	beq	a4,a2,1270c <_vfprintf_r+0xebc>
   124dc:	ffe68693          	addi	a3,a3,-2
   124e0:	1b010793          	addi	a5,sp,432
   124e4:	fecc8fa3          	sb	a2,-1(s9)
   124e8:	40d78b33          	sub	s6,a5,a3
   124ec:	00098913          	mv	s2,s3
   124f0:	00068c93          	mv	s9,a3
   124f4:	f08ff06f          	j	11bfc <_vfprintf_r+0x3ac>
   124f8:	00c12703          	lw	a4,12(sp)
   124fc:	ffff87b7          	lui	a5,0xffff8
   12500:	8307c793          	xori	a5,a5,-2000
   12504:	0cf11423          	sh	a5,200(sp)
   12508:	00470793          	addi	a5,a4,4
   1250c:	00f12623          	sw	a5,12(sp)
   12510:	00012797          	auipc	a5,0x12
   12514:	5c878793          	addi	a5,a5,1480 # 24ad8 <zeroes.4505+0x20>
   12518:	000c0313          	mv	t1,s8
   1251c:	02f12623          	sw	a5,44(sp)
   12520:	00072c03          	lw	s8,0(a4)
   12524:	00000d93          	li	s11,0
   12528:	00296993          	ori	s3,s2,2
   1252c:	00200793          	li	a5,2
   12530:	07800a93          	li	s5,120
   12534:	e94ff06f          	j	11bc8 <_vfprintf_r+0x378>
   12538:	0c714783          	lbu	a5,199(sp)
   1253c:	0004ce03          	lbu	t3,0(s1)
   12540:	cc079463          	bnez	a5,11a08 <_vfprintf_r+0x1b8>
   12544:	02000793          	li	a5,32
   12548:	0cf103a3          	sb	a5,199(sp)
   1254c:	cbcff06f          	j	11a08 <_vfprintf_r+0x1b8>
   12550:	02b00793          	li	a5,43
   12554:	0cf103a3          	sb	a5,199(sp)
   12558:	0004ce03          	lbu	t3,0(s1)
   1255c:	cacff06f          	j	11a08 <_vfprintf_r+0x1b8>
   12560:	00c12783          	lw	a5,12(sp)
   12564:	0004ce03          	lbu	t3,0(s1)
   12568:	0007a403          	lw	s0,0(a5)
   1256c:	00478793          	addi	a5,a5,4
   12570:	00f12623          	sw	a5,12(sp)
   12574:	c8045a63          	bgez	s0,11a08 <_vfprintf_r+0x1b8>
   12578:	40800433          	neg	s0,s0
   1257c:	00496913          	ori	s2,s2,4
   12580:	c88ff06f          	j	11a08 <_vfprintf_r+0x1b8>
   12584:	00196913          	ori	s2,s2,1
   12588:	0004ce03          	lbu	t3,0(s1)
   1258c:	c7cff06f          	j	11a08 <_vfprintf_r+0x1b8>
   12590:	02097793          	andi	a5,s2,32
   12594:	000c0313          	mv	t1,s8
   12598:	0c079c63          	bnez	a5,12670 <_vfprintf_r+0xe20>
   1259c:	00c12683          	lw	a3,12(sp)
   125a0:	01097713          	andi	a4,s2,16
   125a4:	00468793          	addi	a5,a3,4
   125a8:	0006ac03          	lw	s8,0(a3)
   125ac:	94071ce3          	bnez	a4,11f04 <_vfprintf_r+0x6b4>
   125b0:	04097713          	andi	a4,s2,64
   125b4:	6c0702e3          	beqz	a4,13478 <_vfprintf_r+0x1c28>
   125b8:	010c1c13          	slli	s8,s8,0x10
   125bc:	010c5c13          	srli	s8,s8,0x10
   125c0:	00000d93          	li	s11,0
   125c4:	00f12623          	sw	a5,12(sp)
   125c8:	0c40006f          	j	1268c <_vfprintf_r+0xe3c>
   125cc:	02097793          	andi	a5,s2,32
   125d0:	000c0313          	mv	t1,s8
   125d4:	06079a63          	bnez	a5,12648 <_vfprintf_r+0xdf8>
   125d8:	00c12683          	lw	a3,12(sp)
   125dc:	01097713          	andi	a4,s2,16
   125e0:	00468793          	addi	a5,a3,4
   125e4:	0006ac03          	lw	s8,0(a3)
   125e8:	00070463          	beqz	a4,125f0 <_vfprintf_r+0xda0>
   125ec:	54d0106f          	j	14338 <_vfprintf_r+0x2ae8>
   125f0:	04097713          	andi	a4,s2,64
   125f4:	68070ee3          	beqz	a4,13490 <_vfprintf_r+0x1c40>
   125f8:	010c1c13          	slli	s8,s8,0x10
   125fc:	00f12623          	sw	a5,12(sp)
   12600:	010c5c13          	srli	s8,s8,0x10
   12604:	00000d93          	li	s11,0
   12608:	00090993          	mv	s3,s2
   1260c:	00100793          	li	a5,1
   12610:	db8ff06f          	j	11bc8 <_vfprintf_r+0x378>
   12614:	01c12503          	lw	a0,28(sp)
   12618:	758020ef          	jal	ra,14d70 <__sinit>
   1261c:	ab4ff06f          	j	118d0 <_vfprintf_r+0x80>
   12620:	00090993          	mv	s3,s2
   12624:	00c12783          	lw	a5,12(sp)
   12628:	00778793          	addi	a5,a5,7
   1262c:	ff87f793          	andi	a5,a5,-8
   12630:	0047a703          	lw	a4,4(a5)
   12634:	00878693          	addi	a3,a5,8
   12638:	00d12623          	sw	a3,12(sp)
   1263c:	0007ac03          	lw	s8,0(a5)
   12640:	00070d93          	mv	s11,a4
   12644:	fb8ff06f          	j	11dfc <_vfprintf_r+0x5ac>
   12648:	00090993          	mv	s3,s2
   1264c:	00c12783          	lw	a5,12(sp)
   12650:	00778793          	addi	a5,a5,7
   12654:	ff87f793          	andi	a5,a5,-8
   12658:	00878713          	addi	a4,a5,8
   1265c:	0007ac03          	lw	s8,0(a5)
   12660:	0047ad83          	lw	s11,4(a5)
   12664:	00e12623          	sw	a4,12(sp)
   12668:	00100793          	li	a5,1
   1266c:	d5cff06f          	j	11bc8 <_vfprintf_r+0x378>
   12670:	00c12783          	lw	a5,12(sp)
   12674:	00778793          	addi	a5,a5,7
   12678:	ff87f793          	andi	a5,a5,-8
   1267c:	0007ac03          	lw	s8,0(a5)
   12680:	0047ad83          	lw	s11,4(a5)
   12684:	00878713          	addi	a4,a5,8
   12688:	00e12623          	sw	a4,12(sp)
   1268c:	bff97993          	andi	s3,s2,-1025
   12690:	00000793          	li	a5,0
   12694:	d34ff06f          	j	11bc8 <_vfprintf_r+0x378>
   12698:	00090993          	mv	s3,s2
   1269c:	360d90e3          	bnez	s11,131fc <_vfprintf_r+0x19ac>
   126a0:	00900793          	li	a5,9
   126a4:	3587ece3          	bltu	a5,s8,131fc <_vfprintf_r+0x19ac>
   126a8:	030c0c13          	addi	s8,s8,48
   126ac:	1b8107a3          	sb	s8,431(sp)
   126b0:	00098913          	mv	s2,s3
   126b4:	00100b13          	li	s6,1
   126b8:	1af10c93          	addi	s9,sp,431
   126bc:	d40ff06f          	j	11bfc <_vfprintf_r+0x3ac>
   126c0:	00100713          	li	a4,1
   126c4:	00e79463          	bne	a5,a4,126cc <_vfprintf_r+0xe7c>
   126c8:	5180106f          	j	13be0 <_vfprintf_r+0x2390>
   126cc:	00200713          	li	a4,2
   126d0:	00090993          	mv	s3,s2
   126d4:	dce792e3          	bne	a5,a4,12498 <_vfprintf_r+0xc48>
   126d8:	02c12683          	lw	a3,44(sp)
   126dc:	1b010c93          	addi	s9,sp,432
   126e0:	00fc7793          	andi	a5,s8,15
   126e4:	00f687b3          	add	a5,a3,a5
   126e8:	0007c783          	lbu	a5,0(a5)
   126ec:	01cd9713          	slli	a4,s11,0x1c
   126f0:	004c5c13          	srli	s8,s8,0x4
   126f4:	fffc8c93          	addi	s9,s9,-1
   126f8:	01876c33          	or	s8,a4,s8
   126fc:	004ddd93          	srli	s11,s11,0x4
   12700:	00fc8023          	sb	a5,0(s9)
   12704:	01bc67b3          	or	a5,s8,s11
   12708:	fc079ce3          	bnez	a5,126e0 <_vfprintf_r+0xe90>
   1270c:	1b010793          	addi	a5,sp,432
   12710:	41978b33          	sub	s6,a5,s9
   12714:	00098913          	mv	s2,s3
   12718:	ce4ff06f          	j	11bfc <_vfprintf_r+0x3ac>
   1271c:	06500693          	li	a3,101
   12720:	3956da63          	bge	a3,s5,12ab4 <_vfprintf_r+0x1264>
   12724:	0f012683          	lw	a3,240(sp)
   12728:	0a010593          	addi	a1,sp,160
   1272c:	0b010513          	addi	a0,sp,176
   12730:	0ad12823          	sw	a3,176(sp)
   12734:	0f412683          	lw	a3,244(sp)
   12738:	02e12a23          	sw	a4,52(sp)
   1273c:	0a012023          	sw	zero,160(sp)
   12740:	0ad12a23          	sw	a3,180(sp)
   12744:	0f812683          	lw	a3,248(sp)
   12748:	0a012223          	sw	zero,164(sp)
   1274c:	0a012423          	sw	zero,168(sp)
   12750:	0ad12c23          	sw	a3,184(sp)
   12754:	0fc12683          	lw	a3,252(sp)
   12758:	0a012623          	sw	zero,172(sp)
   1275c:	0ad12e23          	sw	a3,188(sp)
   12760:	7250e0ef          	jal	ra,21684 <__eqtf2>
   12764:	03412703          	lw	a4,52(sp)
   12768:	5a051463          	bnez	a0,12d10 <_vfprintf_r+0x14c0>
   1276c:	0e812783          	lw	a5,232(sp)
   12770:	00012697          	auipc	a3,0x12
   12774:	39868693          	addi	a3,a3,920 # 24b08 <zeroes.4505+0x50>
   12778:	00170713          	addi	a4,a4,1
   1277c:	00dd2023          	sw	a3,0(s10)
   12780:	00178793          	addi	a5,a5,1
   12784:	00100693          	li	a3,1
   12788:	00dd2223          	sw	a3,4(s10)
   1278c:	0ee12623          	sw	a4,236(sp)
   12790:	0ef12423          	sw	a5,232(sp)
   12794:	00700713          	li	a4,7
   12798:	008d0d13          	addi	s10,s10,8
   1279c:	32f748e3          	blt	a4,a5,132cc <_vfprintf_r+0x1a7c>
   127a0:	0cc12783          	lw	a5,204(sp)
   127a4:	01812703          	lw	a4,24(sp)
   127a8:	00e7ca63          	blt	a5,a4,127bc <_vfprintf_r+0xf6c>
   127ac:	00197793          	andi	a5,s2,1
   127b0:	00079663          	bnez	a5,127bc <_vfprintf_r+0xf6c>
   127b4:	0ec12703          	lw	a4,236(sp)
   127b8:	871ff06f          	j	12028 <_vfprintf_r+0x7d8>
   127bc:	03012783          	lw	a5,48(sp)
   127c0:	02812683          	lw	a3,40(sp)
   127c4:	0ec12703          	lw	a4,236(sp)
   127c8:	00fd2023          	sw	a5,0(s10)
   127cc:	0e812783          	lw	a5,232(sp)
   127d0:	00e68733          	add	a4,a3,a4
   127d4:	00dd2223          	sw	a3,4(s10)
   127d8:	00178793          	addi	a5,a5,1
   127dc:	0ee12623          	sw	a4,236(sp)
   127e0:	0ef12423          	sw	a5,232(sp)
   127e4:	00700693          	li	a3,7
   127e8:	008d0d13          	addi	s10,s10,8
   127ec:	02f6cee3          	blt	a3,a5,13028 <_vfprintf_r+0x17d8>
   127f0:	01812783          	lw	a5,24(sp)
   127f4:	fff78b13          	addi	s6,a5,-1
   127f8:	836058e3          	blez	s6,12028 <_vfprintf_r+0x7d8>
   127fc:	0e812783          	lw	a5,232(sp)
   12800:	2f6bd6e3          	bge	s7,s6,132ec <_vfprintf_r+0x1a9c>
   12804:	00700c13          	li	s8,7
   12808:	00412a83          	lw	s5,4(sp)
   1280c:	00c0006f          	j	12818 <_vfprintf_r+0xfc8>
   12810:	ff0b0b13          	addi	s6,s6,-16
   12814:	2d6bdce3          	bge	s7,s6,132ec <_vfprintf_r+0x1a9c>
   12818:	01070713          	addi	a4,a4,16
   1281c:	00178793          	addi	a5,a5,1
   12820:	00012697          	auipc	a3,0x12
   12824:	29868693          	addi	a3,a3,664 # 24ab8 <zeroes.4505>
   12828:	00dd2023          	sw	a3,0(s10)
   1282c:	017d2223          	sw	s7,4(s10)
   12830:	0ee12623          	sw	a4,236(sp)
   12834:	0ef12423          	sw	a5,232(sp)
   12838:	008d0d13          	addi	s10,s10,8
   1283c:	fcfc5ae3          	bge	s8,a5,12810 <_vfprintf_r+0xfc0>
   12840:	0e410613          	addi	a2,sp,228
   12844:	000a8593          	mv	a1,s5
   12848:	000a0513          	mv	a0,s4
   1284c:	1240b0ef          	jal	ra,1d970 <__sprint_r>
   12850:	ac051063          	bnez	a0,11b10 <_vfprintf_r+0x2c0>
   12854:	0ec12703          	lw	a4,236(sp)
   12858:	0e812783          	lw	a5,232(sp)
   1285c:	10c10d13          	addi	s10,sp,268
   12860:	fb1ff06f          	j	12810 <_vfprintf_r+0xfc0>
   12864:	41340c33          	sub	s8,s0,s3
   12868:	f9805463          	blez	s8,11ff0 <_vfprintf_r+0x7a0>
   1286c:	0e812683          	lw	a3,232(sp)
   12870:	0b8bd463          	bge	s7,s8,12918 <_vfprintf_r+0x10c8>
   12874:	02912a23          	sw	s1,52(sp)
   12878:	000d0793          	mv	a5,s10
   1287c:	000c0493          	mv	s1,s8
   12880:	000c8d13          	mv	s10,s9
   12884:	00098c13          	mv	s8,s3
   12888:	000b0c93          	mv	s9,s6
   1288c:	00040993          	mv	s3,s0
   12890:	00700d93          	li	s11,7
   12894:	00412403          	lw	s0,4(sp)
   12898:	00030b13          	mv	s6,t1
   1289c:	00c0006f          	j	128a8 <_vfprintf_r+0x1058>
   128a0:	ff048493          	addi	s1,s1,-16
   128a4:	049bda63          	bge	s7,s1,128f8 <_vfprintf_r+0x10a8>
   128a8:	01070713          	addi	a4,a4,16
   128ac:	00168693          	addi	a3,a3,1
   128b0:	00012617          	auipc	a2,0x12
   128b4:	20860613          	addi	a2,a2,520 # 24ab8 <zeroes.4505>
   128b8:	00c7a023          	sw	a2,0(a5)
   128bc:	0177a223          	sw	s7,4(a5)
   128c0:	0ee12623          	sw	a4,236(sp)
   128c4:	0ed12423          	sw	a3,232(sp)
   128c8:	00878793          	addi	a5,a5,8
   128cc:	fcdddae3          	bge	s11,a3,128a0 <_vfprintf_r+0x1050>
   128d0:	0e410613          	addi	a2,sp,228
   128d4:	00040593          	mv	a1,s0
   128d8:	000a0513          	mv	a0,s4
   128dc:	0940b0ef          	jal	ra,1d970 <__sprint_r>
   128e0:	a2051863          	bnez	a0,11b10 <_vfprintf_r+0x2c0>
   128e4:	ff048493          	addi	s1,s1,-16
   128e8:	0ec12703          	lw	a4,236(sp)
   128ec:	0e812683          	lw	a3,232(sp)
   128f0:	10c10793          	addi	a5,sp,268
   128f4:	fa9bcae3          	blt	s7,s1,128a8 <_vfprintf_r+0x1058>
   128f8:	00098413          	mv	s0,s3
   128fc:	000c0993          	mv	s3,s8
   12900:	00048c13          	mv	s8,s1
   12904:	03412483          	lw	s1,52(sp)
   12908:	000b0313          	mv	t1,s6
   1290c:	000c8b13          	mv	s6,s9
   12910:	000d0c93          	mv	s9,s10
   12914:	00078d13          	mv	s10,a5
   12918:	01870733          	add	a4,a4,s8
   1291c:	00168693          	addi	a3,a3,1
   12920:	00012797          	auipc	a5,0x12
   12924:	19878793          	addi	a5,a5,408 # 24ab8 <zeroes.4505>
   12928:	00fd2023          	sw	a5,0(s10)
   1292c:	018d2223          	sw	s8,4(s10)
   12930:	0ee12623          	sw	a4,236(sp)
   12934:	0ed12423          	sw	a3,232(sp)
   12938:	00700613          	li	a2,7
   1293c:	008d0d13          	addi	s10,s10,8
   12940:	ead65863          	bge	a2,a3,11ff0 <_vfprintf_r+0x7a0>
   12944:	00412583          	lw	a1,4(sp)
   12948:	0e410613          	addi	a2,sp,228
   1294c:	000a0513          	mv	a0,s4
   12950:	02612a23          	sw	t1,52(sp)
   12954:	01c0b0ef          	jal	ra,1d970 <__sprint_r>
   12958:	9a051c63          	bnez	a0,11b10 <_vfprintf_r+0x2c0>
   1295c:	0ec12703          	lw	a4,236(sp)
   12960:	10c10d13          	addi	s10,sp,268
   12964:	03412303          	lw	t1,52(sp)
   12968:	e88ff06f          	j	11ff0 <_vfprintf_r+0x7a0>
   1296c:	0e812683          	lw	a3,232(sp)
   12970:	098bd863          	bge	s7,s8,12a00 <_vfprintf_r+0x11b0>
   12974:	02912a23          	sw	s1,52(sp)
   12978:	00700d93          	li	s11,7
   1297c:	000c0493          	mv	s1,s8
   12980:	000b0c13          	mv	s8,s6
   12984:	00098b13          	mv	s6,s3
   12988:	00040993          	mv	s3,s0
   1298c:	00412403          	lw	s0,4(sp)
   12990:	00c0006f          	j	1299c <_vfprintf_r+0x114c>
   12994:	ff048493          	addi	s1,s1,-16
   12998:	049bda63          	bge	s7,s1,129ec <_vfprintf_r+0x119c>
   1299c:	01070713          	addi	a4,a4,16
   129a0:	00168693          	addi	a3,a3,1
   129a4:	00012797          	auipc	a5,0x12
   129a8:	11478793          	addi	a5,a5,276 # 24ab8 <zeroes.4505>
   129ac:	00fd2023          	sw	a5,0(s10)
   129b0:	017d2223          	sw	s7,4(s10)
   129b4:	0ee12623          	sw	a4,236(sp)
   129b8:	0ed12423          	sw	a3,232(sp)
   129bc:	008d0d13          	addi	s10,s10,8
   129c0:	fcdddae3          	bge	s11,a3,12994 <_vfprintf_r+0x1144>
   129c4:	0e410613          	addi	a2,sp,228
   129c8:	00040593          	mv	a1,s0
   129cc:	000a0513          	mv	a0,s4
   129d0:	7a10a0ef          	jal	ra,1d970 <__sprint_r>
   129d4:	92051e63          	bnez	a0,11b10 <_vfprintf_r+0x2c0>
   129d8:	ff048493          	addi	s1,s1,-16
   129dc:	0ec12703          	lw	a4,236(sp)
   129e0:	0e812683          	lw	a3,232(sp)
   129e4:	10c10d13          	addi	s10,sp,268
   129e8:	fa9bcae3          	blt	s7,s1,1299c <_vfprintf_r+0x114c>
   129ec:	00098413          	mv	s0,s3
   129f0:	000b0993          	mv	s3,s6
   129f4:	000c0b13          	mv	s6,s8
   129f8:	00048c13          	mv	s8,s1
   129fc:	03412483          	lw	s1,52(sp)
   12a00:	01870733          	add	a4,a4,s8
   12a04:	00168693          	addi	a3,a3,1
   12a08:	00012797          	auipc	a5,0x12
   12a0c:	0b078793          	addi	a5,a5,176 # 24ab8 <zeroes.4505>
   12a10:	00fd2023          	sw	a5,0(s10)
   12a14:	018d2223          	sw	s8,4(s10)
   12a18:	0ee12623          	sw	a4,236(sp)
   12a1c:	0ed12423          	sw	a3,232(sp)
   12a20:	00700613          	li	a2,7
   12a24:	008d0d13          	addi	s10,s10,8
   12a28:	dcd65863          	bge	a2,a3,11ff8 <_vfprintf_r+0x7a8>
   12a2c:	00412583          	lw	a1,4(sp)
   12a30:	0e410613          	addi	a2,sp,228
   12a34:	000a0513          	mv	a0,s4
   12a38:	7390a0ef          	jal	ra,1d970 <__sprint_r>
   12a3c:	8c051a63          	bnez	a0,11b10 <_vfprintf_r+0x2c0>
   12a40:	0ec12703          	lw	a4,236(sp)
   12a44:	10c10d13          	addi	s10,sp,268
   12a48:	db0ff06f          	j	11ff8 <_vfprintf_r+0x7a8>
   12a4c:	00197593          	andi	a1,s2,1
   12a50:	08059263          	bnez	a1,12ad4 <_vfprintf_r+0x1284>
   12a54:	00dd2223          	sw	a3,4(s10)
   12a58:	0ee12623          	sw	a4,236(sp)
   12a5c:	0f612423          	sw	s6,232(sp)
   12a60:	00700793          	li	a5,7
   12a64:	5967ca63          	blt	a5,s6,12ff8 <_vfprintf_r+0x17a8>
   12a68:	00260a93          	addi	s5,a2,2
   12a6c:	010d0d13          	addi	s10,s10,16
   12a70:	03812683          	lw	a3,56(sp)
   12a74:	0d410793          	addi	a5,sp,212
   12a78:	00fc2023          	sw	a5,0(s8)
   12a7c:	00e68733          	add	a4,a3,a4
   12a80:	00dc2223          	sw	a3,4(s8)
   12a84:	0ee12623          	sw	a4,236(sp)
   12a88:	0f512423          	sw	s5,232(sp)
   12a8c:	00700793          	li	a5,7
   12a90:	d957dc63          	bge	a5,s5,12028 <_vfprintf_r+0x7d8>
   12a94:	00412583          	lw	a1,4(sp)
   12a98:	0e410613          	addi	a2,sp,228
   12a9c:	000a0513          	mv	a0,s4
   12aa0:	6d10a0ef          	jal	ra,1d970 <__sprint_r>
   12aa4:	86051663          	bnez	a0,11b10 <_vfprintf_r+0x2c0>
   12aa8:	0ec12703          	lw	a4,236(sp)
   12aac:	10c10d13          	addi	s10,sp,268
   12ab0:	d78ff06f          	j	12028 <_vfprintf_r+0x7d8>
   12ab4:	0e812603          	lw	a2,232(sp)
   12ab8:	01812783          	lw	a5,24(sp)
   12abc:	00100693          	li	a3,1
   12ac0:	019d2023          	sw	s9,0(s10)
   12ac4:	00170713          	addi	a4,a4,1
   12ac8:	00160b13          	addi	s6,a2,1
   12acc:	008d0c13          	addi	s8,s10,8
   12ad0:	f6f6dee3          	bge	a3,a5,12a4c <_vfprintf_r+0x11fc>
   12ad4:	00100693          	li	a3,1
   12ad8:	00dd2223          	sw	a3,4(s10)
   12adc:	0ee12623          	sw	a4,236(sp)
   12ae0:	0f612423          	sw	s6,232(sp)
   12ae4:	00700693          	li	a3,7
   12ae8:	6166cc63          	blt	a3,s6,13100 <_vfprintf_r+0x18b0>
   12aec:	02812783          	lw	a5,40(sp)
   12af0:	03012683          	lw	a3,48(sp)
   12af4:	001b0b13          	addi	s6,s6,1
   12af8:	00f70733          	add	a4,a4,a5
   12afc:	00dc2023          	sw	a3,0(s8)
   12b00:	00fc2223          	sw	a5,4(s8)
   12b04:	0ee12623          	sw	a4,236(sp)
   12b08:	0f612423          	sw	s6,232(sp)
   12b0c:	00700693          	li	a3,7
   12b10:	008c0c13          	addi	s8,s8,8
   12b14:	6166ca63          	blt	a3,s6,13128 <_vfprintf_r+0x18d8>
   12b18:	0f012683          	lw	a3,240(sp)
   12b1c:	01812783          	lw	a5,24(sp)
   12b20:	001b0813          	addi	a6,s6,1
   12b24:	0ad12823          	sw	a3,176(sp)
   12b28:	0f412683          	lw	a3,244(sp)
   12b2c:	0a010593          	addi	a1,sp,160
   12b30:	0b010513          	addi	a0,sp,176
   12b34:	0ad12a23          	sw	a3,180(sp)
   12b38:	0f812683          	lw	a3,248(sp)
   12b3c:	02e12223          	sw	a4,36(sp)
   12b40:	00080a93          	mv	s5,a6
   12b44:	0ad12c23          	sw	a3,184(sp)
   12b48:	0fc12683          	lw	a3,252(sp)
   12b4c:	03012023          	sw	a6,32(sp)
   12b50:	0a012023          	sw	zero,160(sp)
   12b54:	0ad12e23          	sw	a3,188(sp)
   12b58:	fff78693          	addi	a3,a5,-1
   12b5c:	00d12a23          	sw	a3,20(sp)
   12b60:	0a012223          	sw	zero,164(sp)
   12b64:	0a012423          	sw	zero,168(sp)
   12b68:	0a012623          	sw	zero,172(sp)
   12b6c:	3190e0ef          	jal	ra,21684 <__eqtf2>
   12b70:	008c0d13          	addi	s10,s8,8
   12b74:	01412683          	lw	a3,20(sp)
   12b78:	02012803          	lw	a6,32(sp)
   12b7c:	02412703          	lw	a4,36(sp)
   12b80:	30050863          	beqz	a0,12e90 <_vfprintf_r+0x1640>
   12b84:	001c8793          	addi	a5,s9,1
   12b88:	00d70733          	add	a4,a4,a3
   12b8c:	00fc2023          	sw	a5,0(s8)
   12b90:	00dc2223          	sw	a3,4(s8)
   12b94:	0ee12623          	sw	a4,236(sp)
   12b98:	0f512423          	sw	s5,232(sp)
   12b9c:	00700793          	li	a5,7
   12ba0:	4557cc63          	blt	a5,s5,12ff8 <_vfprintf_r+0x17a8>
   12ba4:	010c0793          	addi	a5,s8,16
   12ba8:	002b0a93          	addi	s5,s6,2
   12bac:	000d0c13          	mv	s8,s10
   12bb0:	00078d13          	mv	s10,a5
   12bb4:	ebdff06f          	j	12a70 <_vfprintf_r+0x1220>
   12bb8:	00090993          	mv	s3,s2
   12bbc:	8cdff06f          	j	12488 <_vfprintf_r+0xc38>
   12bc0:	0e812683          	lw	a3,232(sp)
   12bc4:	00012c17          	auipc	s8,0x12
   12bc8:	ee4c0c13          	addi	s8,s8,-284 # 24aa8 <blanks.4504>
   12bcc:	0d0bd063          	bge	s7,a6,12c8c <_vfprintf_r+0x143c>
   12bd0:	04912423          	sw	s1,72(sp)
   12bd4:	05212623          	sw	s2,76(sp)
   12bd8:	000d0793          	mv	a5,s10
   12bdc:	000c0913          	mv	s2,s8
   12be0:	000c8d13          	mv	s10,s9
   12be4:	00098c13          	mv	s8,s3
   12be8:	000b0c93          	mv	s9,s6
   12bec:	00040993          	mv	s3,s0
   12bf0:	00700293          	li	t0,7
   12bf4:	03f12a23          	sw	t6,52(sp)
   12bf8:	00412483          	lw	s1,4(sp)
   12bfc:	00030b13          	mv	s6,t1
   12c00:	00080413          	mv	s0,a6
   12c04:	00c0006f          	j	12c10 <_vfprintf_r+0x13c0>
   12c08:	ff040413          	addi	s0,s0,-16
   12c0c:	048bda63          	bge	s7,s0,12c60 <_vfprintf_r+0x1410>
   12c10:	01070713          	addi	a4,a4,16
   12c14:	00168693          	addi	a3,a3,1
   12c18:	0127a023          	sw	s2,0(a5)
   12c1c:	0177a223          	sw	s7,4(a5)
   12c20:	0ee12623          	sw	a4,236(sp)
   12c24:	0ed12423          	sw	a3,232(sp)
   12c28:	00878793          	addi	a5,a5,8
   12c2c:	fcd2dee3          	bge	t0,a3,12c08 <_vfprintf_r+0x13b8>
   12c30:	0e410613          	addi	a2,sp,228
   12c34:	00048593          	mv	a1,s1
   12c38:	000a0513          	mv	a0,s4
   12c3c:	5350a0ef          	jal	ra,1d970 <__sprint_r>
   12c40:	00050463          	beqz	a0,12c48 <_vfprintf_r+0x13f8>
   12c44:	ecdfe06f          	j	11b10 <_vfprintf_r+0x2c0>
   12c48:	ff040413          	addi	s0,s0,-16
   12c4c:	0ec12703          	lw	a4,236(sp)
   12c50:	0e812683          	lw	a3,232(sp)
   12c54:	10c10793          	addi	a5,sp,268
   12c58:	00700293          	li	t0,7
   12c5c:	fa8bcae3          	blt	s7,s0,12c10 <_vfprintf_r+0x13c0>
   12c60:	00040813          	mv	a6,s0
   12c64:	03412f83          	lw	t6,52(sp)
   12c68:	00098413          	mv	s0,s3
   12c6c:	04812483          	lw	s1,72(sp)
   12c70:	000c0993          	mv	s3,s8
   12c74:	00090c13          	mv	s8,s2
   12c78:	04c12903          	lw	s2,76(sp)
   12c7c:	000b0313          	mv	t1,s6
   12c80:	000c8b13          	mv	s6,s9
   12c84:	000d0c93          	mv	s9,s10
   12c88:	00078d13          	mv	s10,a5
   12c8c:	01070733          	add	a4,a4,a6
   12c90:	00168693          	addi	a3,a3,1
   12c94:	018d2023          	sw	s8,0(s10)
   12c98:	010d2223          	sw	a6,4(s10)
   12c9c:	0ee12623          	sw	a4,236(sp)
   12ca0:	0ed12423          	sw	a3,232(sp)
   12ca4:	00700613          	li	a2,7
   12ca8:	008d0d13          	addi	s10,s10,8
   12cac:	acd65863          	bge	a2,a3,11f7c <_vfprintf_r+0x72c>
   12cb0:	00412583          	lw	a1,4(sp)
   12cb4:	0e410613          	addi	a2,sp,228
   12cb8:	000a0513          	mv	a0,s4
   12cbc:	04612423          	sw	t1,72(sp)
   12cc0:	03f12a23          	sw	t6,52(sp)
   12cc4:	4ad0a0ef          	jal	ra,1d970 <__sprint_r>
   12cc8:	00050463          	beqz	a0,12cd0 <_vfprintf_r+0x1480>
   12ccc:	e45fe06f          	j	11b10 <_vfprintf_r+0x2c0>
   12cd0:	0ec12703          	lw	a4,236(sp)
   12cd4:	10c10d13          	addi	s10,sp,268
   12cd8:	04812303          	lw	t1,72(sp)
   12cdc:	03412f83          	lw	t6,52(sp)
   12ce0:	a9cff06f          	j	11f7c <_vfprintf_r+0x72c>
   12ce4:	00412583          	lw	a1,4(sp)
   12ce8:	0e410613          	addi	a2,sp,228
   12cec:	000a0513          	mv	a0,s4
   12cf0:	02612a23          	sw	t1,52(sp)
   12cf4:	47d0a0ef          	jal	ra,1d970 <__sprint_r>
   12cf8:	00050463          	beqz	a0,12d00 <_vfprintf_r+0x14b0>
   12cfc:	e15fe06f          	j	11b10 <_vfprintf_r+0x2c0>
   12d00:	0ec12703          	lw	a4,236(sp)
   12d04:	10c10d13          	addi	s10,sp,268
   12d08:	03412303          	lw	t1,52(sp)
   12d0c:	adcff06f          	j	11fe8 <_vfprintf_r+0x798>
   12d10:	0cc12603          	lw	a2,204(sp)
   12d14:	42c05e63          	blez	a2,13150 <_vfprintf_r+0x1900>
   12d18:	01812783          	lw	a5,24(sp)
   12d1c:	01412683          	lw	a3,20(sp)
   12d20:	00078b13          	mv	s6,a5
   12d24:	28f6cc63          	blt	a3,a5,12fbc <_vfprintf_r+0x176c>
   12d28:	03605663          	blez	s6,12d54 <_vfprintf_r+0x1504>
   12d2c:	0e812683          	lw	a3,232(sp)
   12d30:	01670733          	add	a4,a4,s6
   12d34:	019d2023          	sw	s9,0(s10)
   12d38:	00168693          	addi	a3,a3,1
   12d3c:	016d2223          	sw	s6,4(s10)
   12d40:	0ee12623          	sw	a4,236(sp)
   12d44:	0ed12423          	sw	a3,232(sp)
   12d48:	00700613          	li	a2,7
   12d4c:	008d0d13          	addi	s10,s10,8
   12d50:	1ed642e3          	blt	a2,a3,13734 <_vfprintf_r+0x1ee4>
   12d54:	fffb4693          	not	a3,s6
   12d58:	01412783          	lw	a5,20(sp)
   12d5c:	41f6d693          	srai	a3,a3,0x1f
   12d60:	00db7b33          	and	s6,s6,a3
   12d64:	41678b33          	sub	s6,a5,s6
   12d68:	33604263          	bgtz	s6,1308c <_vfprintf_r+0x183c>
   12d6c:	01412783          	lw	a5,20(sp)
   12d70:	40097693          	andi	a3,s2,1024
   12d74:	00fc8ab3          	add	s5,s9,a5
   12d78:	7a069c63          	bnez	a3,13530 <_vfprintf_r+0x1ce0>
   12d7c:	0cc12b03          	lw	s6,204(sp)
   12d80:	01812783          	lw	a5,24(sp)
   12d84:	00fb4663          	blt	s6,a5,12d90 <_vfprintf_r+0x1540>
   12d88:	00197693          	andi	a3,s2,1
   12d8c:	1c068ae3          	beqz	a3,13760 <_vfprintf_r+0x1f10>
   12d90:	03012683          	lw	a3,48(sp)
   12d94:	02812783          	lw	a5,40(sp)
   12d98:	00700613          	li	a2,7
   12d9c:	00dd2023          	sw	a3,0(s10)
   12da0:	0e812683          	lw	a3,232(sp)
   12da4:	00f70733          	add	a4,a4,a5
   12da8:	00fd2223          	sw	a5,4(s10)
   12dac:	00168693          	addi	a3,a3,1
   12db0:	0ee12623          	sw	a4,236(sp)
   12db4:	0ed12423          	sw	a3,232(sp)
   12db8:	008d0d13          	addi	s10,s10,8
   12dbc:	00d65463          	bge	a2,a3,12dc4 <_vfprintf_r+0x1574>
   12dc0:	05c0106f          	j	13e1c <_vfprintf_r+0x25cc>
   12dc4:	01812683          	lw	a3,24(sp)
   12dc8:	00dc87b3          	add	a5,s9,a3
   12dcc:	41668b33          	sub	s6,a3,s6
   12dd0:	415787b3          	sub	a5,a5,s5
   12dd4:	000b0c13          	mv	s8,s6
   12dd8:	0167d463          	bge	a5,s6,12de0 <_vfprintf_r+0x1590>
   12ddc:	00078c13          	mv	s8,a5
   12de0:	03805863          	blez	s8,12e10 <_vfprintf_r+0x15c0>
   12de4:	0e812783          	lw	a5,232(sp)
   12de8:	01870733          	add	a4,a4,s8
   12dec:	015d2023          	sw	s5,0(s10)
   12df0:	00178793          	addi	a5,a5,1
   12df4:	018d2223          	sw	s8,4(s10)
   12df8:	0ee12623          	sw	a4,236(sp)
   12dfc:	0ef12423          	sw	a5,232(sp)
   12e00:	00700693          	li	a3,7
   12e04:	008d0d13          	addi	s10,s10,8
   12e08:	00f6d463          	bge	a3,a5,12e10 <_vfprintf_r+0x15c0>
   12e0c:	0980106f          	j	13ea4 <_vfprintf_r+0x2654>
   12e10:	fffc4793          	not	a5,s8
   12e14:	41f7d793          	srai	a5,a5,0x1f
   12e18:	00fc7c33          	and	s8,s8,a5
   12e1c:	418b0b33          	sub	s6,s6,s8
   12e20:	a1605463          	blez	s6,12028 <_vfprintf_r+0x7d8>
   12e24:	0e812783          	lw	a5,232(sp)
   12e28:	4d6bd263          	bge	s7,s6,132ec <_vfprintf_r+0x1a9c>
   12e2c:	00700c13          	li	s8,7
   12e30:	00412a83          	lw	s5,4(sp)
   12e34:	00c0006f          	j	12e40 <_vfprintf_r+0x15f0>
   12e38:	ff0b0b13          	addi	s6,s6,-16
   12e3c:	4b6bd863          	bge	s7,s6,132ec <_vfprintf_r+0x1a9c>
   12e40:	01070713          	addi	a4,a4,16
   12e44:	00178793          	addi	a5,a5,1
   12e48:	00012697          	auipc	a3,0x12
   12e4c:	c7068693          	addi	a3,a3,-912 # 24ab8 <zeroes.4505>
   12e50:	00dd2023          	sw	a3,0(s10)
   12e54:	017d2223          	sw	s7,4(s10)
   12e58:	0ee12623          	sw	a4,236(sp)
   12e5c:	0ef12423          	sw	a5,232(sp)
   12e60:	008d0d13          	addi	s10,s10,8
   12e64:	fcfc5ae3          	bge	s8,a5,12e38 <_vfprintf_r+0x15e8>
   12e68:	0e410613          	addi	a2,sp,228
   12e6c:	000a8593          	mv	a1,s5
   12e70:	000a0513          	mv	a0,s4
   12e74:	2fd0a0ef          	jal	ra,1d970 <__sprint_r>
   12e78:	00050463          	beqz	a0,12e80 <_vfprintf_r+0x1630>
   12e7c:	c95fe06f          	j	11b10 <_vfprintf_r+0x2c0>
   12e80:	0ec12703          	lw	a4,236(sp)
   12e84:	0e812783          	lw	a5,232(sp)
   12e88:	10c10d13          	addi	s10,sp,268
   12e8c:	fadff06f          	j	12e38 <_vfprintf_r+0x15e8>
   12e90:	bed050e3          	blez	a3,12a70 <_vfprintf_r+0x1220>
   12e94:	00dbc463          	blt	s7,a3,12e9c <_vfprintf_r+0x164c>
   12e98:	4740106f          	j	1430c <_vfprintf_r+0x2abc>
   12e9c:	00700a93          	li	s5,7
   12ea0:	00068d13          	mv	s10,a3
   12ea4:	00412c83          	lw	s9,4(sp)
   12ea8:	00080b13          	mv	s6,a6
   12eac:	0100006f          	j	12ebc <_vfprintf_r+0x166c>
   12eb0:	ff0d0d13          	addi	s10,s10,-16
   12eb4:	11abda63          	bge	s7,s10,12fc8 <_vfprintf_r+0x1778>
   12eb8:	001b0b13          	addi	s6,s6,1
   12ebc:	01070713          	addi	a4,a4,16
   12ec0:	00012797          	auipc	a5,0x12
   12ec4:	bf878793          	addi	a5,a5,-1032 # 24ab8 <zeroes.4505>
   12ec8:	00fc2023          	sw	a5,0(s8)
   12ecc:	017c2223          	sw	s7,4(s8)
   12ed0:	0ee12623          	sw	a4,236(sp)
   12ed4:	0f612423          	sw	s6,232(sp)
   12ed8:	008c0c13          	addi	s8,s8,8
   12edc:	fd6adae3          	bge	s5,s6,12eb0 <_vfprintf_r+0x1660>
   12ee0:	0e410613          	addi	a2,sp,228
   12ee4:	000c8593          	mv	a1,s9
   12ee8:	000a0513          	mv	a0,s4
   12eec:	2850a0ef          	jal	ra,1d970 <__sprint_r>
   12ef0:	00050463          	beqz	a0,12ef8 <_vfprintf_r+0x16a8>
   12ef4:	c1dfe06f          	j	11b10 <_vfprintf_r+0x2c0>
   12ef8:	0ec12703          	lw	a4,236(sp)
   12efc:	0e812b03          	lw	s6,232(sp)
   12f00:	10c10c13          	addi	s8,sp,268
   12f04:	fadff06f          	j	12eb0 <_vfprintf_r+0x1660>
   12f08:	03000793          	li	a5,48
   12f0c:	1af107a3          	sb	a5,431(sp)
   12f10:	1af10c93          	addi	s9,sp,431
   12f14:	ce9fe06f          	j	11bfc <_vfprintf_r+0x3ac>
   12f18:	20097793          	andi	a5,s2,512
   12f1c:	0a079ce3          	bnez	a5,137d4 <_vfprintf_r+0x1f84>
   12f20:	00000d93          	li	s11,0
   12f24:	c89fe06f          	j	11bac <_vfprintf_r+0x35c>
   12f28:	00c12783          	lw	a5,12(sp)
   12f2c:	0007a703          	lw	a4,0(a5)
   12f30:	00478793          	addi	a5,a5,4
   12f34:	00f12623          	sw	a5,12(sp)
   12f38:	00072583          	lw	a1,0(a4)
   12f3c:	00472603          	lw	a2,4(a4)
   12f40:	00872683          	lw	a3,8(a4)
   12f44:	00c72703          	lw	a4,12(a4)
   12f48:	0eb12823          	sw	a1,240(sp)
   12f4c:	0ec12a23          	sw	a2,244(sp)
   12f50:	0ed12c23          	sw	a3,248(sp)
   12f54:	0ee12e23          	sw	a4,252(sp)
   12f58:	a4cff06f          	j	121a4 <_vfprintf_r+0x954>
   12f5c:	03000793          	li	a5,48
   12f60:	00296913          	ori	s2,s2,2
   12f64:	0cf10423          	sb	a5,200(sp)
   12f68:	0d5104a3          	sb	s5,201(sp)
   12f6c:	bff97993          	andi	s3,s2,-1025
   12f70:	00200793          	li	a5,2
   12f74:	c55fe06f          	j	11bc8 <_vfprintf_r+0x378>
   12f78:	00812603          	lw	a2,8(sp)
   12f7c:	0006a783          	lw	a5,0(a3)
   12f80:	00e12623          	sw	a4,12(sp)
   12f84:	41f65693          	srai	a3,a2,0x1f
   12f88:	00c7a023          	sw	a2,0(a5)
   12f8c:	00d7a223          	sw	a3,4(a5)
   12f90:	00048c93          	mv	s9,s1
   12f94:	dd1fe06f          	j	11d64 <_vfprintf_r+0x514>
   12f98:	03c12783          	lw	a5,60(sp)
   12f9c:	0004ce03          	lbu	t3,0(s1)
   12fa0:	00079463          	bnez	a5,12fa8 <_vfprintf_r+0x1758>
   12fa4:	a65fe06f          	j	11a08 <_vfprintf_r+0x1b8>
   12fa8:	0007c783          	lbu	a5,0(a5)
   12fac:	00079463          	bnez	a5,12fb4 <_vfprintf_r+0x1764>
   12fb0:	a59fe06f          	j	11a08 <_vfprintf_r+0x1b8>
   12fb4:	40096913          	ori	s2,s2,1024
   12fb8:	a51fe06f          	j	11a08 <_vfprintf_r+0x1b8>
   12fbc:	00068b13          	mv	s6,a3
   12fc0:	d76046e3          	bgtz	s6,12d2c <_vfprintf_r+0x14dc>
   12fc4:	d91ff06f          	j	12d54 <_vfprintf_r+0x1504>
   12fc8:	000d0693          	mv	a3,s10
   12fcc:	001b0a93          	addi	s5,s6,1
   12fd0:	008c0793          	addi	a5,s8,8
   12fd4:	00d70733          	add	a4,a4,a3
   12fd8:	00012617          	auipc	a2,0x12
   12fdc:	ae060613          	addi	a2,a2,-1312 # 24ab8 <zeroes.4505>
   12fe0:	00dc2223          	sw	a3,4(s8)
   12fe4:	00cc2023          	sw	a2,0(s8)
   12fe8:	0ee12623          	sw	a4,236(sp)
   12fec:	0f512423          	sw	s5,232(sp)
   12ff0:	00700693          	li	a3,7
   12ff4:	6f56de63          	bge	a3,s5,136f0 <_vfprintf_r+0x1ea0>
   12ff8:	00412583          	lw	a1,4(sp)
   12ffc:	0e410613          	addi	a2,sp,228
   13000:	000a0513          	mv	a0,s4
   13004:	16d0a0ef          	jal	ra,1d970 <__sprint_r>
   13008:	00050463          	beqz	a0,13010 <_vfprintf_r+0x17c0>
   1300c:	b05fe06f          	j	11b10 <_vfprintf_r+0x2c0>
   13010:	0e812603          	lw	a2,232(sp)
   13014:	0ec12703          	lw	a4,236(sp)
   13018:	11410d13          	addi	s10,sp,276
   1301c:	00160a93          	addi	s5,a2,1
   13020:	10c10c13          	addi	s8,sp,268
   13024:	a4dff06f          	j	12a70 <_vfprintf_r+0x1220>
   13028:	00412583          	lw	a1,4(sp)
   1302c:	0e410613          	addi	a2,sp,228
   13030:	000a0513          	mv	a0,s4
   13034:	13d0a0ef          	jal	ra,1d970 <__sprint_r>
   13038:	00050463          	beqz	a0,13040 <_vfprintf_r+0x17f0>
   1303c:	ad5fe06f          	j	11b10 <_vfprintf_r+0x2c0>
   13040:	0ec12703          	lw	a4,236(sp)
   13044:	10c10d13          	addi	s10,sp,268
   13048:	fa8ff06f          	j	127f0 <_vfprintf_r+0xfa0>
   1304c:	0014ce03          	lbu	t3,1(s1)
   13050:	20096913          	ori	s2,s2,512
   13054:	00148493          	addi	s1,s1,1
   13058:	9b1fe06f          	j	11a08 <_vfprintf_r+0x1b8>
   1305c:	0014ce03          	lbu	t3,1(s1)
   13060:	02096913          	ori	s2,s2,32
   13064:	00148493          	addi	s1,s1,1
   13068:	9a1fe06f          	j	11a08 <_vfprintf_r+0x1b8>
   1306c:	00600793          	li	a5,6
   13070:	00030b13          	mv	s6,t1
   13074:	6e67e263          	bltu	a5,t1,13758 <_vfprintf_r+0x1f08>
   13078:	000b0993          	mv	s3,s6
   1307c:	01812623          	sw	s8,12(sp)
   13080:	00012c97          	auipc	s9,0x12
   13084:	a80c8c93          	addi	s9,s9,-1408 # 24b00 <zeroes.4505+0x48>
   13088:	ec1fe06f          	j	11f48 <_vfprintf_r+0x6f8>
   1308c:	0e812683          	lw	a3,232(sp)
   13090:	456bd863          	bge	s7,s6,134e0 <_vfprintf_r+0x1c90>
   13094:	00700a93          	li	s5,7
   13098:	00412c03          	lw	s8,4(sp)
   1309c:	00c0006f          	j	130a8 <_vfprintf_r+0x1858>
   130a0:	ff0b0b13          	addi	s6,s6,-16
   130a4:	436bde63          	bge	s7,s6,134e0 <_vfprintf_r+0x1c90>
   130a8:	01070713          	addi	a4,a4,16
   130ac:	00168693          	addi	a3,a3,1
   130b0:	00012797          	auipc	a5,0x12
   130b4:	a0878793          	addi	a5,a5,-1528 # 24ab8 <zeroes.4505>
   130b8:	00fd2023          	sw	a5,0(s10)
   130bc:	017d2223          	sw	s7,4(s10)
   130c0:	0ee12623          	sw	a4,236(sp)
   130c4:	0ed12423          	sw	a3,232(sp)
   130c8:	008d0d13          	addi	s10,s10,8
   130cc:	fcdadae3          	bge	s5,a3,130a0 <_vfprintf_r+0x1850>
   130d0:	0e410613          	addi	a2,sp,228
   130d4:	000c0593          	mv	a1,s8
   130d8:	000a0513          	mv	a0,s4
   130dc:	0950a0ef          	jal	ra,1d970 <__sprint_r>
   130e0:	00050463          	beqz	a0,130e8 <_vfprintf_r+0x1898>
   130e4:	a2dfe06f          	j	11b10 <_vfprintf_r+0x2c0>
   130e8:	0ec12703          	lw	a4,236(sp)
   130ec:	0e812683          	lw	a3,232(sp)
   130f0:	10c10d13          	addi	s10,sp,268
   130f4:	fadff06f          	j	130a0 <_vfprintf_r+0x1850>
   130f8:	000c8913          	mv	s2,s9
   130fc:	8e9fe06f          	j	119e4 <_vfprintf_r+0x194>
   13100:	00412583          	lw	a1,4(sp)
   13104:	0e410613          	addi	a2,sp,228
   13108:	000a0513          	mv	a0,s4
   1310c:	0650a0ef          	jal	ra,1d970 <__sprint_r>
   13110:	00050463          	beqz	a0,13118 <_vfprintf_r+0x18c8>
   13114:	9fdfe06f          	j	11b10 <_vfprintf_r+0x2c0>
   13118:	0ec12703          	lw	a4,236(sp)
   1311c:	0e812b03          	lw	s6,232(sp)
   13120:	10c10c13          	addi	s8,sp,268
   13124:	9c9ff06f          	j	12aec <_vfprintf_r+0x129c>
   13128:	00412583          	lw	a1,4(sp)
   1312c:	0e410613          	addi	a2,sp,228
   13130:	000a0513          	mv	a0,s4
   13134:	03d0a0ef          	jal	ra,1d970 <__sprint_r>
   13138:	00050463          	beqz	a0,13140 <_vfprintf_r+0x18f0>
   1313c:	9d5fe06f          	j	11b10 <_vfprintf_r+0x2c0>
   13140:	0ec12703          	lw	a4,236(sp)
   13144:	0e812b03          	lw	s6,232(sp)
   13148:	10c10c13          	addi	s8,sp,268
   1314c:	9cdff06f          	j	12b18 <_vfprintf_r+0x12c8>
   13150:	0e812683          	lw	a3,232(sp)
   13154:	00012597          	auipc	a1,0x12
   13158:	9b458593          	addi	a1,a1,-1612 # 24b08 <zeroes.4505+0x50>
   1315c:	00bd2023          	sw	a1,0(s10)
   13160:	00170713          	addi	a4,a4,1
   13164:	00100593          	li	a1,1
   13168:	00168693          	addi	a3,a3,1
   1316c:	00bd2223          	sw	a1,4(s10)
   13170:	0ee12623          	sw	a4,236(sp)
   13174:	0ed12423          	sw	a3,232(sp)
   13178:	00700593          	li	a1,7
   1317c:	008d0d13          	addi	s10,s10,8
   13180:	58d5c063          	blt	a1,a3,13700 <_vfprintf_r+0x1eb0>
   13184:	20061e63          	bnez	a2,133a0 <_vfprintf_r+0x1b50>
   13188:	01812783          	lw	a5,24(sp)
   1318c:	00197693          	andi	a3,s2,1
   13190:	00f6e6b3          	or	a3,a3,a5
   13194:	00069463          	bnez	a3,1319c <_vfprintf_r+0x194c>
   13198:	e91fe06f          	j	12028 <_vfprintf_r+0x7d8>
   1319c:	03012683          	lw	a3,48(sp)
   131a0:	02812783          	lw	a5,40(sp)
   131a4:	00700613          	li	a2,7
   131a8:	00dd2023          	sw	a3,0(s10)
   131ac:	0e812683          	lw	a3,232(sp)
   131b0:	00e78733          	add	a4,a5,a4
   131b4:	00fd2223          	sw	a5,4(s10)
   131b8:	00168693          	addi	a3,a3,1
   131bc:	0ee12623          	sw	a4,236(sp)
   131c0:	0ed12423          	sw	a3,232(sp)
   131c4:	008d0893          	addi	a7,s10,8
   131c8:	62d64063          	blt	a2,a3,137e8 <_vfprintf_r+0x1f98>
   131cc:	01812783          	lw	a5,24(sp)
   131d0:	00168693          	addi	a3,a3,1
   131d4:	0198a023          	sw	s9,0(a7)
   131d8:	00e78733          	add	a4,a5,a4
   131dc:	00f8a223          	sw	a5,4(a7)
   131e0:	0ee12623          	sw	a4,236(sp)
   131e4:	0ed12423          	sw	a3,232(sp)
   131e8:	00700793          	li	a5,7
   131ec:	00888d13          	addi	s10,a7,8
   131f0:	00d7c463          	blt	a5,a3,131f8 <_vfprintf_r+0x19a8>
   131f4:	e35fe06f          	j	12028 <_vfprintf_r+0x7d8>
   131f8:	89dff06f          	j	12a94 <_vfprintf_r+0x1244>
   131fc:	1b010c93          	addi	s9,sp,432
   13200:	00000793          	li	a5,0
   13204:	4009f913          	andi	s2,s3,1024
   13208:	00912823          	sw	s1,16(sp)
   1320c:	01312a23          	sw	s3,20(sp)
   13210:	0ff00b13          	li	s6,255
   13214:	000c8993          	mv	s3,s9
   13218:	02612023          	sw	t1,32(sp)
   1321c:	000a0c93          	mv	s9,s4
   13220:	03c12483          	lw	s1,60(sp)
   13224:	000d8a13          	mv	s4,s11
   13228:	000d0d93          	mv	s11,s10
   1322c:	00040d13          	mv	s10,s0
   13230:	00078413          	mv	s0,a5
   13234:	0240006f          	j	13258 <_vfprintf_r+0x1a08>
   13238:	00a00613          	li	a2,10
   1323c:	00000693          	li	a3,0
   13240:	000c0513          	mv	a0,s8
   13244:	000a0593          	mv	a1,s4
   13248:	63c0d0ef          	jal	ra,20884 <__udivdi3>
   1324c:	2c0a0ee3          	beqz	s4,13d28 <_vfprintf_r+0x24d8>
   13250:	00050c13          	mv	s8,a0
   13254:	00058a13          	mv	s4,a1
   13258:	00a00613          	li	a2,10
   1325c:	00000693          	li	a3,0
   13260:	000c0513          	mv	a0,s8
   13264:	000a0593          	mv	a1,s4
   13268:	2510d0ef          	jal	ra,20cb8 <__umoddi3>
   1326c:	03050513          	addi	a0,a0,48
   13270:	fea98fa3          	sb	a0,-1(s3)
   13274:	00140413          	addi	s0,s0,1
   13278:	fff98993          	addi	s3,s3,-1
   1327c:	fa090ee3          	beqz	s2,13238 <_vfprintf_r+0x19e8>
   13280:	0004c683          	lbu	a3,0(s1)
   13284:	fad41ae3          	bne	s0,a3,13238 <_vfprintf_r+0x19e8>
   13288:	fb6408e3          	beq	s0,s6,13238 <_vfprintf_r+0x19e8>
   1328c:	240a1ee3          	bnez	s4,13ce8 <_vfprintf_r+0x2498>
   13290:	00900793          	li	a5,9
   13294:	2587eae3          	bltu	a5,s8,13ce8 <_vfprintf_r+0x2498>
   13298:	000c8a13          	mv	s4,s9
   1329c:	00098c93          	mv	s9,s3
   132a0:	01412983          	lw	s3,20(sp)
   132a4:	1b010793          	addi	a5,sp,432
   132a8:	00812c23          	sw	s0,24(sp)
   132ac:	02912e23          	sw	s1,60(sp)
   132b0:	000d0413          	mv	s0,s10
   132b4:	02012303          	lw	t1,32(sp)
   132b8:	01012483          	lw	s1,16(sp)
   132bc:	000d8d13          	mv	s10,s11
   132c0:	41978b33          	sub	s6,a5,s9
   132c4:	00098913          	mv	s2,s3
   132c8:	935fe06f          	j	11bfc <_vfprintf_r+0x3ac>
   132cc:	00412583          	lw	a1,4(sp)
   132d0:	0e410613          	addi	a2,sp,228
   132d4:	000a0513          	mv	a0,s4
   132d8:	6980a0ef          	jal	ra,1d970 <__sprint_r>
   132dc:	00050463          	beqz	a0,132e4 <_vfprintf_r+0x1a94>
   132e0:	831fe06f          	j	11b10 <_vfprintf_r+0x2c0>
   132e4:	10c10d13          	addi	s10,sp,268
   132e8:	cb8ff06f          	j	127a0 <_vfprintf_r+0xf50>
   132ec:	00011697          	auipc	a3,0x11
   132f0:	7cc68693          	addi	a3,a3,1996 # 24ab8 <zeroes.4505>
   132f4:	01670733          	add	a4,a4,s6
   132f8:	00178793          	addi	a5,a5,1
   132fc:	00dd2023          	sw	a3,0(s10)
   13300:	d11fe06f          	j	12010 <_vfprintf_r+0x7c0>
   13304:	0f012783          	lw	a5,240(sp)
   13308:	0a010593          	addi	a1,sp,160
   1330c:	0b010513          	addi	a0,sp,176
   13310:	0af12823          	sw	a5,176(sp)
   13314:	0f412783          	lw	a5,244(sp)
   13318:	0a012023          	sw	zero,160(sp)
   1331c:	0a012223          	sw	zero,164(sp)
   13320:	0af12a23          	sw	a5,180(sp)
   13324:	0f812783          	lw	a5,248(sp)
   13328:	0a012423          	sw	zero,168(sp)
   1332c:	0a012623          	sw	zero,172(sp)
   13330:	0af12c23          	sw	a5,184(sp)
   13334:	0fc12783          	lw	a5,252(sp)
   13338:	0af12e23          	sw	a5,188(sp)
   1333c:	5580e0ef          	jal	ra,21894 <__letf2>
   13340:	2c0546e3          	bltz	a0,13e0c <_vfprintf_r+0x25bc>
   13344:	0c714703          	lbu	a4,199(sp)
   13348:	04700693          	li	a3,71
   1334c:	00011c97          	auipc	s9,0x11
   13350:	77cc8c93          	addi	s9,s9,1916 # 24ac8 <zeroes.4505+0x10>
   13354:	3d56ca63          	blt	a3,s5,13728 <_vfprintf_r+0x1ed8>
   13358:	00012823          	sw	zero,16(sp)
   1335c:	02012223          	sw	zero,36(sp)
   13360:	02012023          	sw	zero,32(sp)
   13364:	00012a23          	sw	zero,20(sp)
   13368:	f7f97913          	andi	s2,s2,-129
   1336c:	00300993          	li	s3,3
   13370:	00300b13          	li	s6,3
   13374:	00000313          	li	t1,0
   13378:	00070463          	beqz	a4,13380 <_vfprintf_r+0x1b30>
   1337c:	8a5fe06f          	j	11c20 <_vfprintf_r+0x3d0>
   13380:	bddfe06f          	j	11f5c <_vfprintf_r+0x70c>
   13384:	00c12783          	lw	a5,12(sp)
   13388:	00048c93          	mv	s9,s1
   1338c:	0007a783          	lw	a5,0(a5)
   13390:	00e12623          	sw	a4,12(sp)
   13394:	00812703          	lw	a4,8(sp)
   13398:	00e7a023          	sw	a4,0(a5)
   1339c:	9c9fe06f          	j	11d64 <_vfprintf_r+0x514>
   133a0:	03012683          	lw	a3,48(sp)
   133a4:	02812783          	lw	a5,40(sp)
   133a8:	00700593          	li	a1,7
   133ac:	00dd2023          	sw	a3,0(s10)
   133b0:	0e812683          	lw	a3,232(sp)
   133b4:	00e78733          	add	a4,a5,a4
   133b8:	00fd2223          	sw	a5,4(s10)
   133bc:	00168693          	addi	a3,a3,1
   133c0:	0ee12623          	sw	a4,236(sp)
   133c4:	0ed12423          	sw	a3,232(sp)
   133c8:	008d0893          	addi	a7,s10,8
   133cc:	40d5ce63          	blt	a1,a3,137e8 <_vfprintf_r+0x1f98>
   133d0:	de065ee3          	bgez	a2,131cc <_vfprintf_r+0x197c>
   133d4:	ff000593          	li	a1,-16
   133d8:	40c00b33          	neg	s6,a2
   133dc:	32b654e3          	bge	a2,a1,13f04 <_vfprintf_r+0x26b4>
   133e0:	00700c13          	li	s8,7
   133e4:	00412a83          	lw	s5,4(sp)
   133e8:	00c0006f          	j	133f4 <_vfprintf_r+0x1ba4>
   133ec:	ff0b0b13          	addi	s6,s6,-16
   133f0:	316bdae3          	bge	s7,s6,13f04 <_vfprintf_r+0x26b4>
   133f4:	01070713          	addi	a4,a4,16
   133f8:	00168693          	addi	a3,a3,1
   133fc:	00011797          	auipc	a5,0x11
   13400:	6bc78793          	addi	a5,a5,1724 # 24ab8 <zeroes.4505>
   13404:	00f8a023          	sw	a5,0(a7)
   13408:	0178a223          	sw	s7,4(a7)
   1340c:	0ee12623          	sw	a4,236(sp)
   13410:	0ed12423          	sw	a3,232(sp)
   13414:	00888893          	addi	a7,a7,8
   13418:	fcdc5ae3          	bge	s8,a3,133ec <_vfprintf_r+0x1b9c>
   1341c:	0e410613          	addi	a2,sp,228
   13420:	000a8593          	mv	a1,s5
   13424:	000a0513          	mv	a0,s4
   13428:	5480a0ef          	jal	ra,1d970 <__sprint_r>
   1342c:	00050463          	beqz	a0,13434 <_vfprintf_r+0x1be4>
   13430:	ee0fe06f          	j	11b10 <_vfprintf_r+0x2c0>
   13434:	0ec12703          	lw	a4,236(sp)
   13438:	0e812683          	lw	a3,232(sp)
   1343c:	10c10893          	addi	a7,sp,268
   13440:	fadff06f          	j	133ec <_vfprintf_r+0x1b9c>
   13444:	000c8513          	mv	a0,s9
   13448:	b7cfe0ef          	jal	ra,117c4 <strlen>
   1344c:	00050b13          	mv	s6,a0
   13450:	a6dfe06f          	j	11ebc <_vfprintf_r+0x66c>
   13454:	20097713          	andi	a4,s2,512
   13458:	36070063          	beqz	a4,137b8 <_vfprintf_r+0x1f68>
   1345c:	00c12703          	lw	a4,12(sp)
   13460:	00090993          	mv	s3,s2
   13464:	00f12623          	sw	a5,12(sp)
   13468:	00070c03          	lb	s8,0(a4)
   1346c:	41fc5d93          	srai	s11,s8,0x1f
   13470:	000d8713          	mv	a4,s11
   13474:	989fe06f          	j	11dfc <_vfprintf_r+0x5ac>
   13478:	20097713          	andi	a4,s2,512
   1347c:	32070863          	beqz	a4,137ac <_vfprintf_r+0x1f5c>
   13480:	0ffc7c13          	andi	s8,s8,255
   13484:	00000d93          	li	s11,0
   13488:	00f12623          	sw	a5,12(sp)
   1348c:	a00ff06f          	j	1268c <_vfprintf_r+0xe3c>
   13490:	20097713          	andi	a4,s2,512
   13494:	30070263          	beqz	a4,13798 <_vfprintf_r+0x1f48>
   13498:	00f12623          	sw	a5,12(sp)
   1349c:	0ffc7c13          	andi	s8,s8,255
   134a0:	00000d93          	li	s11,0
   134a4:	00090993          	mv	s3,s2
   134a8:	00100793          	li	a5,1
   134ac:	f1cfe06f          	j	11bc8 <_vfprintf_r+0x378>
   134b0:	0fc12783          	lw	a5,252(sp)
   134b4:	3207d663          	bgez	a5,137e0 <_vfprintf_r+0x1f90>
   134b8:	02d00793          	li	a5,45
   134bc:	0cf103a3          	sb	a5,199(sp)
   134c0:	02d00713          	li	a4,45
   134c4:	04700693          	li	a3,71
   134c8:	00011c97          	auipc	s9,0x11
   134cc:	608c8c93          	addi	s9,s9,1544 # 24ad0 <zeroes.4505+0x18>
   134d0:	e956d4e3          	bge	a3,s5,13358 <_vfprintf_r+0x1b08>
   134d4:	00011c97          	auipc	s9,0x11
   134d8:	600c8c93          	addi	s9,s9,1536 # 24ad4 <zeroes.4505+0x1c>
   134dc:	e7dff06f          	j	13358 <_vfprintf_r+0x1b08>
   134e0:	01670733          	add	a4,a4,s6
   134e4:	00168693          	addi	a3,a3,1
   134e8:	00011797          	auipc	a5,0x11
   134ec:	5d078793          	addi	a5,a5,1488 # 24ab8 <zeroes.4505>
   134f0:	00fd2023          	sw	a5,0(s10)
   134f4:	016d2223          	sw	s6,4(s10)
   134f8:	0ee12623          	sw	a4,236(sp)
   134fc:	0ed12423          	sw	a3,232(sp)
   13500:	00700613          	li	a2,7
   13504:	008d0d13          	addi	s10,s10,8
   13508:	86d652e3          	bge	a2,a3,12d6c <_vfprintf_r+0x151c>
   1350c:	00412583          	lw	a1,4(sp)
   13510:	0e410613          	addi	a2,sp,228
   13514:	000a0513          	mv	a0,s4
   13518:	4580a0ef          	jal	ra,1d970 <__sprint_r>
   1351c:	00050463          	beqz	a0,13524 <_vfprintf_r+0x1cd4>
   13520:	df0fe06f          	j	11b10 <_vfprintf_r+0x2c0>
   13524:	0ec12703          	lw	a4,236(sp)
   13528:	10c10d13          	addi	s10,sp,268
   1352c:	841ff06f          	j	12d6c <_vfprintf_r+0x151c>
   13530:	01812783          	lw	a5,24(sp)
   13534:	02012c03          	lw	s8,32(sp)
   13538:	00912a23          	sw	s1,20(sp)
   1353c:	03212a23          	sw	s2,52(sp)
   13540:	04812423          	sw	s0,72(sp)
   13544:	02412483          	lw	s1,36(sp)
   13548:	03312023          	sw	s3,32(sp)
   1354c:	03912223          	sw	s9,36(sp)
   13550:	00fc8db3          	add	s11,s9,a5
   13554:	00700b13          	li	s6,7
   13558:	04012903          	lw	s2,64(sp)
   1355c:	03c12403          	lw	s0,60(sp)
   13560:	000d0693          	mv	a3,s10
   13564:	00412983          	lw	s3,4(sp)
   13568:	04412c83          	lw	s9,68(sp)
   1356c:	080c0863          	beqz	s8,135fc <_vfprintf_r+0x1dac>
   13570:	08049863          	bnez	s1,13600 <_vfprintf_r+0x1db0>
   13574:	fff40413          	addi	s0,s0,-1
   13578:	fffc0c13          	addi	s8,s8,-1
   1357c:	0e812783          	lw	a5,232(sp)
   13580:	01270733          	add	a4,a4,s2
   13584:	0196a023          	sw	s9,0(a3)
   13588:	00178793          	addi	a5,a5,1
   1358c:	0126a223          	sw	s2,4(a3)
   13590:	0ee12623          	sw	a4,236(sp)
   13594:	0ef12423          	sw	a5,232(sp)
   13598:	00868693          	addi	a3,a3,8
   1359c:	10fb4463          	blt	s6,a5,136a4 <_vfprintf_r+0x1e54>
   135a0:	00044603          	lbu	a2,0(s0)
   135a4:	415d85b3          	sub	a1,s11,s5
   135a8:	00060d13          	mv	s10,a2
   135ac:	00c5d463          	bge	a1,a2,135b4 <_vfprintf_r+0x1d64>
   135b0:	00058d13          	mv	s10,a1
   135b4:	03a05663          	blez	s10,135e0 <_vfprintf_r+0x1d90>
   135b8:	0e812603          	lw	a2,232(sp)
   135bc:	01a70733          	add	a4,a4,s10
   135c0:	0156a023          	sw	s5,0(a3)
   135c4:	00160613          	addi	a2,a2,1
   135c8:	01a6a223          	sw	s10,4(a3)
   135cc:	0ee12623          	sw	a4,236(sp)
   135d0:	0ec12423          	sw	a2,232(sp)
   135d4:	0ecb4a63          	blt	s6,a2,136c8 <_vfprintf_r+0x1e78>
   135d8:	00044603          	lbu	a2,0(s0)
   135dc:	00868693          	addi	a3,a3,8
   135e0:	fffd4593          	not	a1,s10
   135e4:	41f5d593          	srai	a1,a1,0x1f
   135e8:	00bd77b3          	and	a5,s10,a1
   135ec:	40f60d33          	sub	s10,a2,a5
   135f0:	01a04c63          	bgtz	s10,13608 <_vfprintf_r+0x1db8>
   135f4:	00ca8ab3          	add	s5,s5,a2
   135f8:	f60c1ce3          	bnez	s8,13570 <_vfprintf_r+0x1d20>
   135fc:	5e048663          	beqz	s1,13be8 <_vfprintf_r+0x2398>
   13600:	fff48493          	addi	s1,s1,-1
   13604:	f79ff06f          	j	1357c <_vfprintf_r+0x1d2c>
   13608:	0e812603          	lw	a2,232(sp)
   1360c:	01abc863          	blt	s7,s10,1361c <_vfprintf_r+0x1dcc>
   13610:	0600006f          	j	13670 <_vfprintf_r+0x1e20>
   13614:	ff0d0d13          	addi	s10,s10,-16
   13618:	05abdc63          	bge	s7,s10,13670 <_vfprintf_r+0x1e20>
   1361c:	01070713          	addi	a4,a4,16
   13620:	00160613          	addi	a2,a2,1
   13624:	00011797          	auipc	a5,0x11
   13628:	49478793          	addi	a5,a5,1172 # 24ab8 <zeroes.4505>
   1362c:	00f6a023          	sw	a5,0(a3)
   13630:	0176a223          	sw	s7,4(a3)
   13634:	0ee12623          	sw	a4,236(sp)
   13638:	0ec12423          	sw	a2,232(sp)
   1363c:	00868693          	addi	a3,a3,8
   13640:	fccb5ae3          	bge	s6,a2,13614 <_vfprintf_r+0x1dc4>
   13644:	0e410613          	addi	a2,sp,228
   13648:	00098593          	mv	a1,s3
   1364c:	000a0513          	mv	a0,s4
   13650:	3200a0ef          	jal	ra,1d970 <__sprint_r>
   13654:	00050463          	beqz	a0,1365c <_vfprintf_r+0x1e0c>
   13658:	cb8fe06f          	j	11b10 <_vfprintf_r+0x2c0>
   1365c:	ff0d0d13          	addi	s10,s10,-16
   13660:	0ec12703          	lw	a4,236(sp)
   13664:	0e812603          	lw	a2,232(sp)
   13668:	10c10693          	addi	a3,sp,268
   1366c:	fbabc8e3          	blt	s7,s10,1361c <_vfprintf_r+0x1dcc>
   13670:	01a70733          	add	a4,a4,s10
   13674:	00160613          	addi	a2,a2,1
   13678:	00011797          	auipc	a5,0x11
   1367c:	44078793          	addi	a5,a5,1088 # 24ab8 <zeroes.4505>
   13680:	00f6a023          	sw	a5,0(a3)
   13684:	01a6a223          	sw	s10,4(a3)
   13688:	0ee12623          	sw	a4,236(sp)
   1368c:	0ec12423          	sw	a2,232(sp)
   13690:	62cb4663          	blt	s6,a2,13cbc <_vfprintf_r+0x246c>
   13694:	00044603          	lbu	a2,0(s0)
   13698:	00868693          	addi	a3,a3,8
   1369c:	00ca8ab3          	add	s5,s5,a2
   136a0:	f59ff06f          	j	135f8 <_vfprintf_r+0x1da8>
   136a4:	0e410613          	addi	a2,sp,228
   136a8:	00098593          	mv	a1,s3
   136ac:	000a0513          	mv	a0,s4
   136b0:	2c00a0ef          	jal	ra,1d970 <__sprint_r>
   136b4:	00050463          	beqz	a0,136bc <_vfprintf_r+0x1e6c>
   136b8:	c58fe06f          	j	11b10 <_vfprintf_r+0x2c0>
   136bc:	0ec12703          	lw	a4,236(sp)
   136c0:	10c10693          	addi	a3,sp,268
   136c4:	eddff06f          	j	135a0 <_vfprintf_r+0x1d50>
   136c8:	0e410613          	addi	a2,sp,228
   136cc:	00098593          	mv	a1,s3
   136d0:	000a0513          	mv	a0,s4
   136d4:	29c0a0ef          	jal	ra,1d970 <__sprint_r>
   136d8:	00050463          	beqz	a0,136e0 <_vfprintf_r+0x1e90>
   136dc:	c34fe06f          	j	11b10 <_vfprintf_r+0x2c0>
   136e0:	00044603          	lbu	a2,0(s0)
   136e4:	0ec12703          	lw	a4,236(sp)
   136e8:	10c10693          	addi	a3,sp,268
   136ec:	ef5ff06f          	j	135e0 <_vfprintf_r+0x1d90>
   136f0:	001a8a93          	addi	s5,s5,1
   136f4:	00878d13          	addi	s10,a5,8
   136f8:	00078c13          	mv	s8,a5
   136fc:	b74ff06f          	j	12a70 <_vfprintf_r+0x1220>
   13700:	00412583          	lw	a1,4(sp)
   13704:	0e410613          	addi	a2,sp,228
   13708:	000a0513          	mv	a0,s4
   1370c:	2640a0ef          	jal	ra,1d970 <__sprint_r>
   13710:	00050463          	beqz	a0,13718 <_vfprintf_r+0x1ec8>
   13714:	bfcfe06f          	j	11b10 <_vfprintf_r+0x2c0>
   13718:	0cc12603          	lw	a2,204(sp)
   1371c:	0ec12703          	lw	a4,236(sp)
   13720:	10c10d13          	addi	s10,sp,268
   13724:	a61ff06f          	j	13184 <_vfprintf_r+0x1934>
   13728:	00011c97          	auipc	s9,0x11
   1372c:	3a4c8c93          	addi	s9,s9,932 # 24acc <zeroes.4505+0x14>
   13730:	c29ff06f          	j	13358 <_vfprintf_r+0x1b08>
   13734:	00412583          	lw	a1,4(sp)
   13738:	0e410613          	addi	a2,sp,228
   1373c:	000a0513          	mv	a0,s4
   13740:	2300a0ef          	jal	ra,1d970 <__sprint_r>
   13744:	00050463          	beqz	a0,1374c <_vfprintf_r+0x1efc>
   13748:	bc8fe06f          	j	11b10 <_vfprintf_r+0x2c0>
   1374c:	0ec12703          	lw	a4,236(sp)
   13750:	10c10d13          	addi	s10,sp,268
   13754:	e00ff06f          	j	12d54 <_vfprintf_r+0x1504>
   13758:	00600b13          	li	s6,6
   1375c:	91dff06f          	j	13078 <_vfprintf_r+0x1828>
   13760:	01812683          	lw	a3,24(sp)
   13764:	00dc87b3          	add	a5,s9,a3
   13768:	41668b33          	sub	s6,a3,s6
   1376c:	41578c33          	sub	s8,a5,s5
   13770:	eb8b5063          	bge	s6,s8,12e10 <_vfprintf_r+0x15c0>
   13774:	000b0c13          	mv	s8,s6
   13778:	e98ff06f          	j	12e10 <_vfprintf_r+0x15c0>
   1377c:	00c12783          	lw	a5,12(sp)
   13780:	00e12623          	sw	a4,12(sp)
   13784:	00812703          	lw	a4,8(sp)
   13788:	0007a783          	lw	a5,0(a5)
   1378c:	00048c93          	mv	s9,s1
   13790:	00e79023          	sh	a4,0(a5)
   13794:	dd0fe06f          	j	11d64 <_vfprintf_r+0x514>
   13798:	00f12623          	sw	a5,12(sp)
   1379c:	00000d93          	li	s11,0
   137a0:	00090993          	mv	s3,s2
   137a4:	00100793          	li	a5,1
   137a8:	c20fe06f          	j	11bc8 <_vfprintf_r+0x378>
   137ac:	00000d93          	li	s11,0
   137b0:	00f12623          	sw	a5,12(sp)
   137b4:	ed9fe06f          	j	1268c <_vfprintf_r+0xe3c>
   137b8:	00c12703          	lw	a4,12(sp)
   137bc:	00090993          	mv	s3,s2
   137c0:	00f12623          	sw	a5,12(sp)
   137c4:	00072c03          	lw	s8,0(a4)
   137c8:	41fc5d93          	srai	s11,s8,0x1f
   137cc:	000d8713          	mv	a4,s11
   137d0:	e2cfe06f          	j	11dfc <_vfprintf_r+0x5ac>
   137d4:	0ffc7c13          	andi	s8,s8,255
   137d8:	00000d93          	li	s11,0
   137dc:	bd0fe06f          	j	11bac <_vfprintf_r+0x35c>
   137e0:	0c714703          	lbu	a4,199(sp)
   137e4:	ce1ff06f          	j	134c4 <_vfprintf_r+0x1c74>
   137e8:	00412583          	lw	a1,4(sp)
   137ec:	0e410613          	addi	a2,sp,228
   137f0:	000a0513          	mv	a0,s4
   137f4:	17c0a0ef          	jal	ra,1d970 <__sprint_r>
   137f8:	00050463          	beqz	a0,13800 <_vfprintf_r+0x1fb0>
   137fc:	b14fe06f          	j	11b10 <_vfprintf_r+0x2c0>
   13800:	0cc12603          	lw	a2,204(sp)
   13804:	0ec12703          	lw	a4,236(sp)
   13808:	0e812683          	lw	a3,232(sp)
   1380c:	10c10893          	addi	a7,sp,268
   13810:	9a065ee3          	bgez	a2,131cc <_vfprintf_r+0x197c>
   13814:	bc1ff06f          	j	133d4 <_vfprintf_r+0x1b84>
   13818:	03000793          	li	a5,48
   1381c:	0cf10423          	sb	a5,200(sp)
   13820:	05800793          	li	a5,88
   13824:	0cf104a3          	sb	a5,201(sp)
   13828:	00296793          	ori	a5,s2,2
   1382c:	06300713          	li	a4,99
   13830:	04f12a23          	sw	a5,84(sp)
   13834:	00012823          	sw	zero,16(sp)
   13838:	14c10c93          	addi	s9,sp,332
   1383c:	7a674063          	blt	a4,t1,13fdc <_vfprintf_r+0x278c>
   13840:	0fc12b03          	lw	s6,252(sp)
   13844:	fdfaf793          	andi	a5,s5,-33
   13848:	04f12423          	sw	a5,72(sp)
   1384c:	04012e23          	sw	zero,92(sp)
   13850:	10296913          	ori	s2,s2,258
   13854:	0f012f03          	lw	t5,240(sp)
   13858:	0f412d83          	lw	s11,244(sp)
   1385c:	0f812e83          	lw	t4,248(sp)
   13860:	440b4463          	bltz	s6,13ca8 <_vfprintf_r+0x2458>
   13864:	06100713          	li	a4,97
   13868:	0cea8ee3          	beq	s5,a4,14144 <_vfprintf_r+0x28f4>
   1386c:	04100713          	li	a4,65
   13870:	00ea8463          	beq	s5,a4,13878 <_vfprintf_r+0x2028>
   13874:	9c1fe06f          	j	12234 <_vfprintf_r+0x9e4>
   13878:	0b010c13          	addi	s8,sp,176
   1387c:	000c0513          	mv	a0,s8
   13880:	02612a23          	sw	t1,52(sp)
   13884:	0be12823          	sw	t5,176(sp)
   13888:	0bd12c23          	sw	t4,184(sp)
   1388c:	0b612e23          	sw	s6,188(sp)
   13890:	0bb12a23          	sw	s11,180(sp)
   13894:	355100ef          	jal	ra,243e8 <__trunctfdf2>
   13898:	0cc10613          	addi	a2,sp,204
   1389c:	72d060ef          	jal	ra,1a7c8 <frexp>
   138a0:	00058613          	mv	a2,a1
   138a4:	00050593          	mv	a1,a0
   138a8:	000c0513          	mv	a0,s8
   138ac:	131100ef          	jal	ra,241dc <__extenddftf2>
   138b0:	0b012703          	lw	a4,176(sp)
   138b4:	09010793          	addi	a5,sp,144
   138b8:	0a010993          	addi	s3,sp,160
   138bc:	08e12823          	sw	a4,144(sp)
   138c0:	0b412703          	lw	a4,180(sp)
   138c4:	08010613          	addi	a2,sp,128
   138c8:	00078593          	mv	a1,a5
   138cc:	08e12a23          	sw	a4,148(sp)
   138d0:	0b812703          	lw	a4,184(sp)
   138d4:	00098513          	mv	a0,s3
   138d8:	00078b13          	mv	s6,a5
   138dc:	08e12c23          	sw	a4,152(sp)
   138e0:	0bc12703          	lw	a4,188(sp)
   138e4:	04c12623          	sw	a2,76(sp)
   138e8:	05312c23          	sw	s3,88(sp)
   138ec:	08e12e23          	sw	a4,156(sp)
   138f0:	3ffc0737          	lui	a4,0x3ffc0
   138f4:	08e12623          	sw	a4,140(sp)
   138f8:	08012023          	sw	zero,128(sp)
   138fc:	08012223          	sw	zero,132(sp)
   13900:	08012423          	sw	zero,136(sp)
   13904:	0d40e0ef          	jal	ra,219d8 <__multf3>
   13908:	0a012703          	lw	a4,160(sp)
   1390c:	0a412683          	lw	a3,164(sp)
   13910:	0a812803          	lw	a6,168(sp)
   13914:	0ac12e83          	lw	t4,172(sp)
   13918:	00098593          	mv	a1,s3
   1391c:	000c0513          	mv	a0,s8
   13920:	0ae12823          	sw	a4,176(sp)
   13924:	02e12223          	sw	a4,36(sp)
   13928:	0ad12a23          	sw	a3,180(sp)
   1392c:	02d12023          	sw	a3,32(sp)
   13930:	0b012c23          	sw	a6,184(sp)
   13934:	01012c23          	sw	a6,24(sp)
   13938:	0bd12e23          	sw	t4,188(sp)
   1393c:	01d12a23          	sw	t4,20(sp)
   13940:	0a012023          	sw	zero,160(sp)
   13944:	0a012223          	sw	zero,164(sp)
   13948:	0a012423          	sw	zero,168(sp)
   1394c:	0a012623          	sw	zero,172(sp)
   13950:	5350d0ef          	jal	ra,21684 <__eqtf2>
   13954:	01412e83          	lw	t4,20(sp)
   13958:	01812803          	lw	a6,24(sp)
   1395c:	02012683          	lw	a3,32(sp)
   13960:	02412703          	lw	a4,36(sp)
   13964:	03412303          	lw	t1,52(sp)
   13968:	00051663          	bnez	a0,13974 <_vfprintf_r+0x2124>
   1396c:	00100613          	li	a2,1
   13970:	0cc12623          	sw	a2,204(sp)
   13974:	00011797          	auipc	a5,0x11
   13978:	17878793          	addi	a5,a5,376 # 24aec <zeroes.4505+0x34>
   1397c:	02f12a23          	sw	a5,52(sp)
   13980:	fff30d93          	addi	s11,t1,-1
   13984:	01912a23          	sw	s9,20(sp)
   13988:	06912023          	sw	s1,96(sp)
   1398c:	07512223          	sw	s5,100(sp)
   13990:	06812623          	sw	s0,108(sp)
   13994:	07a12a23          	sw	s10,116(sp)
   13998:	07412c23          	sw	s4,120(sp)
   1399c:	07912e23          	sw	s9,124(sp)
   139a0:	07212423          	sw	s2,104(sp)
   139a4:	000d8c93          	mv	s9,s11
   139a8:	06612823          	sw	t1,112(sp)
   139ac:	00070d13          	mv	s10,a4
   139b0:	00068d93          	mv	s11,a3
   139b4:	00080a13          	mv	s4,a6
   139b8:	000e8a93          	mv	s5,t4
   139bc:	000b0493          	mv	s1,s6
   139c0:	05812403          	lw	s0,88(sp)
   139c4:	0540006f          	j	13a18 <_vfprintf_r+0x21c8>
   139c8:	00040593          	mv	a1,s0
   139cc:	000c0513          	mv	a0,s8
   139d0:	02c12223          	sw	a2,36(sp)
   139d4:	03e12023          	sw	t5,32(sp)
   139d8:	01f12c23          	sw	t6,24(sp)
   139dc:	0bf12a23          	sw	t6,180(sp)
   139e0:	0be12c23          	sw	t5,184(sp)
   139e4:	0ac12e23          	sw	a2,188(sp)
   139e8:	0b212823          	sw	s2,176(sp)
   139ec:	0a012023          	sw	zero,160(sp)
   139f0:	0a012223          	sw	zero,164(sp)
   139f4:	0a012423          	sw	zero,168(sp)
   139f8:	0a012623          	sw	zero,172(sp)
   139fc:	4890d0ef          	jal	ra,21684 <__eqtf2>
   13a00:	fffc8c93          	addi	s9,s9,-1
   13a04:	01812f83          	lw	t6,24(sp)
   13a08:	02012f03          	lw	t5,32(sp)
   13a0c:	02412603          	lw	a2,36(sp)
   13a10:	0e050463          	beqz	a0,13af8 <_vfprintf_r+0x22a8>
   13a14:	01612a23          	sw	s6,20(sp)
   13a18:	400307b7          	lui	a5,0x40030
   13a1c:	00048613          	mv	a2,s1
   13a20:	00040593          	mv	a1,s0
   13a24:	000c0513          	mv	a0,s8
   13a28:	08f12e23          	sw	a5,156(sp)
   13a2c:	0ba12023          	sw	s10,160(sp)
   13a30:	0bb12223          	sw	s11,164(sp)
   13a34:	0b412423          	sw	s4,168(sp)
   13a38:	0b512623          	sw	s5,172(sp)
   13a3c:	08012823          	sw	zero,144(sp)
   13a40:	08012a23          	sw	zero,148(sp)
   13a44:	08012c23          	sw	zero,152(sp)
   13a48:	7910d0ef          	jal	ra,219d8 <__multf3>
   13a4c:	000c0513          	mv	a0,s8
   13a50:	4b4100ef          	jal	ra,23f04 <__fixtfsi>
   13a54:	00050593          	mv	a1,a0
   13a58:	00050993          	mv	s3,a0
   13a5c:	000c0513          	mv	a0,s8
   13a60:	0bc12b03          	lw	s6,188(sp)
   13a64:	0b012a83          	lw	s5,176(sp)
   13a68:	0b412a03          	lw	s4,180(sp)
   13a6c:	0b812903          	lw	s2,184(sp)
   13a70:	5e4100ef          	jal	ra,24054 <__floatsitf>
   13a74:	0b012703          	lw	a4,176(sp)
   13a78:	04c12603          	lw	a2,76(sp)
   13a7c:	00048593          	mv	a1,s1
   13a80:	08e12023          	sw	a4,128(sp)
   13a84:	0b412703          	lw	a4,180(sp)
   13a88:	00040513          	mv	a0,s0
   13a8c:	09612e23          	sw	s6,156(sp)
   13a90:	08e12223          	sw	a4,132(sp)
   13a94:	0b812703          	lw	a4,184(sp)
   13a98:	09512823          	sw	s5,144(sp)
   13a9c:	09412a23          	sw	s4,148(sp)
   13aa0:	08e12423          	sw	a4,136(sp)
   13aa4:	0bc12703          	lw	a4,188(sp)
   13aa8:	09212c23          	sw	s2,152(sp)
   13aac:	08e12623          	sw	a4,140(sp)
   13ab0:	7350e0ef          	jal	ra,229e4 <__subtf3>
   13ab4:	03412783          	lw	a5,52(sp)
   13ab8:	0a012903          	lw	s2,160(sp)
   13abc:	0a412f83          	lw	t6,164(sp)
   13ac0:	01378733          	add	a4,a5,s3
   13ac4:	01412783          	lw	a5,20(sp)
   13ac8:	00074703          	lbu	a4,0(a4) # 3ffc0000 <__global_pointer$+0x3ff97d30>
   13acc:	0a812f03          	lw	t5,168(sp)
   13ad0:	0ac12603          	lw	a2,172(sp)
   13ad4:	00178b13          	addi	s6,a5,1 # 40030001 <__global_pointer$+0x40007d31>
   13ad8:	feeb0fa3          	sb	a4,-1(s6)
   13adc:	05912823          	sw	s9,80(sp)
   13ae0:	fff00793          	li	a5,-1
   13ae4:	00090d13          	mv	s10,s2
   13ae8:	000f8d93          	mv	s11,t6
   13aec:	000f0a13          	mv	s4,t5
   13af0:	00060a93          	mv	s5,a2
   13af4:	ecfc9ae3          	bne	s9,a5,139c8 <_vfprintf_r+0x2178>
   13af8:	07012303          	lw	t1,112(sp)
   13afc:	05812583          	lw	a1,88(sp)
   13b00:	00090293          	mv	t0,s2
   13b04:	3ffe0db7          	lui	s11,0x3ffe0
   13b08:	000c0513          	mv	a0,s8
   13b0c:	00612c23          	sw	t1,24(sp)
   13b10:	06012483          	lw	s1,96(sp)
   13b14:	0a512823          	sw	t0,176(sp)
   13b18:	06512023          	sw	t0,96(sp)
   13b1c:	0bf12a23          	sw	t6,180(sp)
   13b20:	05f12623          	sw	t6,76(sp)
   13b24:	0be12c23          	sw	t5,184(sp)
   13b28:	03e12223          	sw	t5,36(sp)
   13b2c:	0ac12e23          	sw	a2,188(sp)
   13b30:	02c12023          	sw	a2,32(sp)
   13b34:	0a012023          	sw	zero,160(sp)
   13b38:	0a012223          	sw	zero,164(sp)
   13b3c:	0a012423          	sw	zero,168(sp)
   13b40:	0bb12623          	sw	s11,172(sp)
   13b44:	40d0d0ef          	jal	ra,21750 <__getf2>
   13b48:	06412a83          	lw	s5,100(sp)
   13b4c:	06c12403          	lw	s0,108(sp)
   13b50:	07412d03          	lw	s10,116(sp)
   13b54:	07812a03          	lw	s4,120(sp)
   13b58:	07c12c83          	lw	s9,124(sp)
   13b5c:	06812903          	lw	s2,104(sp)
   13b60:	01812303          	lw	t1,24(sp)
   13b64:	48a04e63          	bgtz	a0,14000 <_vfprintf_r+0x27b0>
   13b68:	06012283          	lw	t0,96(sp)
   13b6c:	04c12f83          	lw	t6,76(sp)
   13b70:	02412f03          	lw	t5,36(sp)
   13b74:	02012603          	lw	a2,32(sp)
   13b78:	05812583          	lw	a1,88(sp)
   13b7c:	000c0513          	mv	a0,s8
   13b80:	0a512823          	sw	t0,176(sp)
   13b84:	0bf12a23          	sw	t6,180(sp)
   13b88:	0be12c23          	sw	t5,184(sp)
   13b8c:	0ac12e23          	sw	a2,188(sp)
   13b90:	0a012023          	sw	zero,160(sp)
   13b94:	0a012223          	sw	zero,164(sp)
   13b98:	0a012423          	sw	zero,168(sp)
   13b9c:	0bb12623          	sw	s11,172(sp)
   13ba0:	2e50d0ef          	jal	ra,21684 <__eqtf2>
   13ba4:	01812303          	lw	t1,24(sp)
   13ba8:	00051663          	bnez	a0,13bb4 <_vfprintf_r+0x2364>
   13bac:	0019f993          	andi	s3,s3,1
   13bb0:	44099863          	bnez	s3,14000 <_vfprintf_r+0x27b0>
   13bb4:	05012783          	lw	a5,80(sp)
   13bb8:	03000693          	li	a3,48
   13bbc:	00178713          	addi	a4,a5,1
   13bc0:	00eb0733          	add	a4,s6,a4
   13bc4:	0007c863          	bltz	a5,13bd4 <_vfprintf_r+0x2384>
   13bc8:	001b0b13          	addi	s6,s6,1
   13bcc:	fedb0fa3          	sb	a3,-1(s6)
   13bd0:	ff671ce3          	bne	a4,s6,13bc8 <_vfprintf_r+0x2378>
   13bd4:	419b07b3          	sub	a5,s6,s9
   13bd8:	00f12c23          	sw	a5,24(sp)
   13bdc:	ef0fe06f          	j	122cc <_vfprintf_r+0xa7c>
   13be0:	00090993          	mv	s3,s2
   13be4:	ac5fe06f          	j	126a8 <_vfprintf_r+0xe58>
   13be8:	02412c83          	lw	s9,36(sp)
   13bec:	01812783          	lw	a5,24(sp)
   13bf0:	02812e23          	sw	s0,60(sp)
   13bf4:	00068d13          	mv	s10,a3
   13bf8:	00fc86b3          	add	a3,s9,a5
   13bfc:	01412483          	lw	s1,20(sp)
   13c00:	03412903          	lw	s2,52(sp)
   13c04:	04812403          	lw	s0,72(sp)
   13c08:	02012983          	lw	s3,32(sp)
   13c0c:	9756f863          	bgeu	a3,s5,12d7c <_vfprintf_r+0x152c>
   13c10:	00068a93          	mv	s5,a3
   13c14:	968ff06f          	j	12d7c <_vfprintf_r+0x152c>
   13c18:	01412783          	lw	a5,20(sp)
   13c1c:	ffd00713          	li	a4,-3
   13c20:	00e7c463          	blt	a5,a4,13c28 <_vfprintf_r+0x23d8>
   13c24:	00f35a63          	bge	t1,a5,13c38 <_vfprintf_r+0x23e8>
   13c28:	ffea8a93          	addi	s5,s5,-2
   13c2c:	fdfaf793          	andi	a5,s5,-33
   13c30:	04f12423          	sw	a5,72(sp)
   13c34:	ec0fe06f          	j	122f4 <_vfprintf_r+0xaa4>
   13c38:	01812703          	lw	a4,24(sp)
   13c3c:	01412783          	lw	a5,20(sp)
   13c40:	22e7c863          	blt	a5,a4,13e70 <_vfprintf_r+0x2620>
   13c44:	05412703          	lw	a4,84(sp)
   13c48:	00078b13          	mv	s6,a5
   13c4c:	00177713          	andi	a4,a4,1
   13c50:	00070663          	beqz	a4,13c5c <_vfprintf_r+0x240c>
   13c54:	02812703          	lw	a4,40(sp)
   13c58:	00e78b33          	add	s6,a5,a4
   13c5c:	05412783          	lw	a5,84(sp)
   13c60:	4007f713          	andi	a4,a5,1024
   13c64:	00070663          	beqz	a4,13c70 <_vfprintf_r+0x2420>
   13c68:	01412783          	lw	a5,20(sp)
   13c6c:	40f04663          	bgtz	a5,14078 <_vfprintf_r+0x2828>
   13c70:	fffb4993          	not	s3,s6
   13c74:	41f9d993          	srai	s3,s3,0x1f
   13c78:	013b79b3          	and	s3,s6,s3
   13c7c:	06700a93          	li	s5,103
   13c80:	02012223          	sw	zero,36(sp)
   13c84:	02012023          	sw	zero,32(sp)
   13c88:	f8cfe06f          	j	12414 <_vfprintf_r+0xbc4>
   13c8c:	0c714703          	lbu	a4,199(sp)
   13c90:	00000313          	li	t1,0
   13c94:	00070463          	beqz	a4,13c9c <_vfprintf_r+0x244c>
   13c98:	f89fd06f          	j	11c20 <_vfprintf_r+0x3d0>
   13c9c:	ac0fe06f          	j	11f5c <_vfprintf_r+0x70c>
   13ca0:	00012823          	sw	zero,16(sp)
   13ca4:	00070913          	mv	s2,a4
   13ca8:	80000737          	lui	a4,0x80000
   13cac:	02d00793          	li	a5,45
   13cb0:	01674b33          	xor	s6,a4,s6
   13cb4:	04f12e23          	sw	a5,92(sp)
   13cb8:	badff06f          	j	13864 <_vfprintf_r+0x2014>
   13cbc:	0e410613          	addi	a2,sp,228
   13cc0:	00098593          	mv	a1,s3
   13cc4:	000a0513          	mv	a0,s4
   13cc8:	4a9090ef          	jal	ra,1d970 <__sprint_r>
   13ccc:	00050463          	beqz	a0,13cd4 <_vfprintf_r+0x2484>
   13cd0:	e41fd06f          	j	11b10 <_vfprintf_r+0x2c0>
   13cd4:	00044603          	lbu	a2,0(s0)
   13cd8:	0ec12703          	lw	a4,236(sp)
   13cdc:	10c10693          	addi	a3,sp,268
   13ce0:	00ca8ab3          	add	s5,s5,a2
   13ce4:	915ff06f          	j	135f8 <_vfprintf_r+0x1da8>
   13ce8:	04012783          	lw	a5,64(sp)
   13cec:	04412583          	lw	a1,68(sp)
   13cf0:	00000413          	li	s0,0
   13cf4:	40f989b3          	sub	s3,s3,a5
   13cf8:	00078613          	mv	a2,a5
   13cfc:	00098513          	mv	a0,s3
   13d00:	7e9060ef          	jal	ra,1ace8 <strncpy>
   13d04:	0014c803          	lbu	a6,1(s1)
   13d08:	00a00613          	li	a2,10
   13d0c:	00000693          	li	a3,0
   13d10:	01003833          	snez	a6,a6
   13d14:	000c0513          	mv	a0,s8
   13d18:	000a0593          	mv	a1,s4
   13d1c:	010484b3          	add	s1,s1,a6
   13d20:	3650c0ef          	jal	ra,20884 <__udivdi3>
   13d24:	d2cff06f          	j	13250 <_vfprintf_r+0x1a00>
   13d28:	00900793          	li	a5,9
   13d2c:	d387e263          	bltu	a5,s8,13250 <_vfprintf_r+0x1a00>
   13d30:	d68ff06f          	j	13298 <_vfprintf_r+0x1a48>
   13d34:	0b010c13          	addi	s8,sp,176
   13d38:	00030693          	mv	a3,t1
   13d3c:	0cc10713          	addi	a4,sp,204
   13d40:	0dc10813          	addi	a6,sp,220
   13d44:	0d010793          	addi	a5,sp,208
   13d48:	00300613          	li	a2,3
   13d4c:	000c0593          	mv	a1,s8
   13d50:	000a0513          	mv	a0,s4
   13d54:	02612023          	sw	t1,32(sp)
   13d58:	0be12823          	sw	t5,176(sp)
   13d5c:	01e12c23          	sw	t5,24(sp)
   13d60:	0bd12c23          	sw	t4,184(sp)
   13d64:	01d12a23          	sw	t4,20(sp)
   13d68:	0bb12a23          	sw	s11,180(sp)
   13d6c:	0b612e23          	sw	s6,188(sp)
   13d70:	27c030ef          	jal	ra,16fec <_ldtoa_r>
   13d74:	00054683          	lbu	a3,0(a0)
   13d78:	03000713          	li	a4,48
   13d7c:	00050c93          	mv	s9,a0
   13d80:	01412e83          	lw	t4,20(sp)
   13d84:	01812f03          	lw	t5,24(sp)
   13d88:	02012303          	lw	t1,32(sp)
   13d8c:	4ce68c63          	beq	a3,a4,14264 <_vfprintf_r+0x2a14>
   13d90:	0a010793          	addi	a5,sp,160
   13d94:	04f12c23          	sw	a5,88(sp)
   13d98:	0cc12703          	lw	a4,204(sp)
   13d9c:	006709b3          	add	s3,a4,t1
   13da0:	013c89b3          	add	s3,s9,s3
   13da4:	05812583          	lw	a1,88(sp)
   13da8:	000c0513          	mv	a0,s8
   13dac:	00612a23          	sw	t1,20(sp)
   13db0:	0be12823          	sw	t5,176(sp)
   13db4:	0bb12a23          	sw	s11,180(sp)
   13db8:	0bd12c23          	sw	t4,184(sp)
   13dbc:	0b612e23          	sw	s6,188(sp)
   13dc0:	0a012023          	sw	zero,160(sp)
   13dc4:	0a012223          	sw	zero,164(sp)
   13dc8:	0a012423          	sw	zero,168(sp)
   13dcc:	0a012623          	sw	zero,172(sp)
   13dd0:	0b50d0ef          	jal	ra,21684 <__eqtf2>
   13dd4:	00098713          	mv	a4,s3
   13dd8:	01412303          	lw	t1,20(sp)
   13ddc:	00051463          	bnez	a0,13de4 <_vfprintf_r+0x2594>
   13de0:	ce4fe06f          	j	122c4 <_vfprintf_r+0xa74>
   13de4:	0dc12703          	lw	a4,220(sp)
   13de8:	03000613          	li	a2,48
   13dec:	01376463          	bltu	a4,s3,13df4 <_vfprintf_r+0x25a4>
   13df0:	cd4fe06f          	j	122c4 <_vfprintf_r+0xa74>
   13df4:	00170793          	addi	a5,a4,1 # 80000001 <__global_pointer$+0x7ffd7d31>
   13df8:	0cf12e23          	sw	a5,220(sp)
   13dfc:	00c70023          	sb	a2,0(a4)
   13e00:	0dc12703          	lw	a4,220(sp)
   13e04:	ff3768e3          	bltu	a4,s3,13df4 <_vfprintf_r+0x25a4>
   13e08:	cbcfe06f          	j	122c4 <_vfprintf_r+0xa74>
   13e0c:	02d00793          	li	a5,45
   13e10:	0cf103a3          	sb	a5,199(sp)
   13e14:	02d00713          	li	a4,45
   13e18:	d30ff06f          	j	13348 <_vfprintf_r+0x1af8>
   13e1c:	00412583          	lw	a1,4(sp)
   13e20:	0e410613          	addi	a2,sp,228
   13e24:	000a0513          	mv	a0,s4
   13e28:	349090ef          	jal	ra,1d970 <__sprint_r>
   13e2c:	00050463          	beqz	a0,13e34 <_vfprintf_r+0x25e4>
   13e30:	ce1fd06f          	j	11b10 <_vfprintf_r+0x2c0>
   13e34:	0cc12b03          	lw	s6,204(sp)
   13e38:	0ec12703          	lw	a4,236(sp)
   13e3c:	10c10d13          	addi	s10,sp,268
   13e40:	f85fe06f          	j	12dc4 <_vfprintf_r+0x1574>
   13e44:	0c714703          	lbu	a4,199(sp)
   13e48:	01812623          	sw	s8,12(sp)
   13e4c:	02012223          	sw	zero,36(sp)
   13e50:	02012023          	sw	zero,32(sp)
   13e54:	00012a23          	sw	zero,20(sp)
   13e58:	00030993          	mv	s3,t1
   13e5c:	00030b13          	mv	s6,t1
   13e60:	00000313          	li	t1,0
   13e64:	00070463          	beqz	a4,13e6c <_vfprintf_r+0x261c>
   13e68:	db9fd06f          	j	11c20 <_vfprintf_r+0x3d0>
   13e6c:	8f0fe06f          	j	11f5c <_vfprintf_r+0x70c>
   13e70:	01812783          	lw	a5,24(sp)
   13e74:	02812703          	lw	a4,40(sp)
   13e78:	06700a93          	li	s5,103
   13e7c:	00e78b33          	add	s6,a5,a4
   13e80:	01412783          	lw	a5,20(sp)
   13e84:	42f05e63          	blez	a5,142c0 <_vfprintf_r+0x2a70>
   13e88:	05412783          	lw	a5,84(sp)
   13e8c:	4007f713          	andi	a4,a5,1024
   13e90:	1e071663          	bnez	a4,1407c <_vfprintf_r+0x282c>
   13e94:	fffb4993          	not	s3,s6
   13e98:	41f9d993          	srai	s3,s3,0x1f
   13e9c:	013b79b3          	and	s3,s6,s3
   13ea0:	de1ff06f          	j	13c80 <_vfprintf_r+0x2430>
   13ea4:	00412583          	lw	a1,4(sp)
   13ea8:	0e410613          	addi	a2,sp,228
   13eac:	000a0513          	mv	a0,s4
   13eb0:	2c1090ef          	jal	ra,1d970 <__sprint_r>
   13eb4:	00050463          	beqz	a0,13ebc <_vfprintf_r+0x266c>
   13eb8:	c59fd06f          	j	11b10 <_vfprintf_r+0x2c0>
   13ebc:	0cc12b03          	lw	s6,204(sp)
   13ec0:	01812783          	lw	a5,24(sp)
   13ec4:	0ec12703          	lw	a4,236(sp)
   13ec8:	10c10d13          	addi	s10,sp,268
   13ecc:	41678b33          	sub	s6,a5,s6
   13ed0:	f41fe06f          	j	12e10 <_vfprintf_r+0x15c0>
   13ed4:	05412783          	lw	a5,84(sp)
   13ed8:	0017f713          	andi	a4,a5,1
   13edc:	01412783          	lw	a5,20(sp)
   13ee0:	00676733          	or	a4,a4,t1
   13ee4:	3ef05a63          	blez	a5,142d8 <_vfprintf_r+0x2a88>
   13ee8:	24071463          	bnez	a4,14130 <_vfprintf_r+0x28e0>
   13eec:	01412b03          	lw	s6,20(sp)
   13ef0:	06600a93          	li	s5,102
   13ef4:	f95ff06f          	j	13e88 <_vfprintf_r+0x2638>
   13ef8:	fff00793          	li	a5,-1
   13efc:	00f12423          	sw	a5,8(sp)
   13f00:	c39fd06f          	j	11b38 <_vfprintf_r+0x2e8>
   13f04:	01670733          	add	a4,a4,s6
   13f08:	00168693          	addi	a3,a3,1
   13f0c:	00011797          	auipc	a5,0x11
   13f10:	bac78793          	addi	a5,a5,-1108 # 24ab8 <zeroes.4505>
   13f14:	00f8a023          	sw	a5,0(a7)
   13f18:	0168a223          	sw	s6,4(a7)
   13f1c:	0ee12623          	sw	a4,236(sp)
   13f20:	0ed12423          	sw	a3,232(sp)
   13f24:	00700613          	li	a2,7
   13f28:	00888893          	addi	a7,a7,8
   13f2c:	aad65063          	bge	a2,a3,131cc <_vfprintf_r+0x197c>
   13f30:	00412583          	lw	a1,4(sp)
   13f34:	0e410613          	addi	a2,sp,228
   13f38:	000a0513          	mv	a0,s4
   13f3c:	235090ef          	jal	ra,1d970 <__sprint_r>
   13f40:	00050463          	beqz	a0,13f48 <_vfprintf_r+0x26f8>
   13f44:	bcdfd06f          	j	11b10 <_vfprintf_r+0x2c0>
   13f48:	0ec12703          	lw	a4,236(sp)
   13f4c:	0e812683          	lw	a3,232(sp)
   13f50:	10c10893          	addi	a7,sp,268
   13f54:	a78ff06f          	j	131cc <_vfprintf_r+0x197c>
   13f58:	0a010793          	addi	a5,sp,160
   13f5c:	006c89b3          	add	s3,s9,t1
   13f60:	04f12c23          	sw	a5,88(sp)
   13f64:	e41ff06f          	j	13da4 <_vfprintf_r+0x2554>
   13f68:	00130993          	addi	s3,t1,1
   13f6c:	0b010c13          	addi	s8,sp,176
   13f70:	0dc10813          	addi	a6,sp,220
   13f74:	0d010793          	addi	a5,sp,208
   13f78:	0cc10713          	addi	a4,sp,204
   13f7c:	00098693          	mv	a3,s3
   13f80:	00200613          	li	a2,2
   13f84:	000c0593          	mv	a1,s8
   13f88:	000a0513          	mv	a0,s4
   13f8c:	02612023          	sw	t1,32(sp)
   13f90:	0be12823          	sw	t5,176(sp)
   13f94:	01e12c23          	sw	t5,24(sp)
   13f98:	0bd12c23          	sw	t4,184(sp)
   13f9c:	01d12a23          	sw	t4,20(sp)
   13fa0:	0bb12a23          	sw	s11,180(sp)
   13fa4:	0b612e23          	sw	s6,188(sp)
   13fa8:	044030ef          	jal	ra,16fec <_ldtoa_r>
   13fac:	01412e83          	lw	t4,20(sp)
   13fb0:	01812f03          	lw	t5,24(sp)
   13fb4:	02012303          	lw	t1,32(sp)
   13fb8:	00050c93          	mv	s9,a0
   13fbc:	0a010793          	addi	a5,sp,160
   13fc0:	013c89b3          	add	s3,s9,s3
   13fc4:	04f12c23          	sw	a5,88(sp)
   13fc8:	dddff06f          	j	13da4 <_vfprintf_r+0x2554>
   13fcc:	03000793          	li	a5,48
   13fd0:	0cf10423          	sb	a5,200(sp)
   13fd4:	07800793          	li	a5,120
   13fd8:	84dff06f          	j	13824 <_vfprintf_r+0x1fd4>
   13fdc:	00130593          	addi	a1,t1,1
   13fe0:	000a0513          	mv	a0,s4
   13fe4:	00612823          	sw	t1,16(sp)
   13fe8:	608040ef          	jal	ra,185f0 <_malloc_r>
   13fec:	00050c93          	mv	s9,a0
   13ff0:	01012303          	lw	t1,16(sp)
   13ff4:	34050c63          	beqz	a0,1434c <_vfprintf_r+0x2afc>
   13ff8:	00a12823          	sw	a0,16(sp)
   13ffc:	845ff06f          	j	13840 <_vfprintf_r+0x1ff0>
   14000:	01412783          	lw	a5,20(sp)
   14004:	000b0713          	mv	a4,s6
   14008:	0cf12e23          	sw	a5,220(sp)
   1400c:	03412783          	lw	a5,52(sp)
   14010:	fffb4683          	lbu	a3,-1(s6)
   14014:	00f7c603          	lbu	a2,15(a5)
   14018:	02d61063          	bne	a2,a3,14038 <_vfprintf_r+0x27e8>
   1401c:	03000593          	li	a1,48
   14020:	feb70fa3          	sb	a1,-1(a4)
   14024:	0dc12703          	lw	a4,220(sp)
   14028:	fff70793          	addi	a5,a4,-1
   1402c:	0cf12e23          	sw	a5,220(sp)
   14030:	fff74683          	lbu	a3,-1(a4)
   14034:	fed606e3          	beq	a2,a3,14020 <_vfprintf_r+0x27d0>
   14038:	00168613          	addi	a2,a3,1
   1403c:	03900593          	li	a1,57
   14040:	0ff67613          	andi	a2,a2,255
   14044:	00b68663          	beq	a3,a1,14050 <_vfprintf_r+0x2800>
   14048:	fec70fa3          	sb	a2,-1(a4)
   1404c:	b89ff06f          	j	13bd4 <_vfprintf_r+0x2384>
   14050:	03412783          	lw	a5,52(sp)
   14054:	00a7c603          	lbu	a2,10(a5)
   14058:	fec70fa3          	sb	a2,-1(a4)
   1405c:	b79ff06f          	j	13bd4 <_vfprintf_r+0x2384>
   14060:	00030463          	beqz	t1,14068 <_vfprintf_r+0x2818>
   14064:	9a4fe06f          	j	12208 <_vfprintf_r+0x9b8>
   14068:	00100313          	li	t1,1
   1406c:	99cfe06f          	j	12208 <_vfprintf_r+0x9b8>
   14070:	00600313          	li	t1,6
   14074:	994fe06f          	j	12208 <_vfprintf_r+0x9b8>
   14078:	06700a93          	li	s5,103
   1407c:	03c12583          	lw	a1,60(sp)
   14080:	01412783          	lw	a5,20(sp)
   14084:	02012223          	sw	zero,36(sp)
   14088:	0005c703          	lbu	a4,0(a1)
   1408c:	02012023          	sw	zero,32(sp)
   14090:	0ff00613          	li	a2,255
   14094:	02c70e63          	beq	a4,a2,140d0 <_vfprintf_r+0x2880>
   14098:	02f75c63          	bge	a4,a5,140d0 <_vfprintf_r+0x2880>
   1409c:	0015c683          	lbu	a3,1(a1)
   140a0:	40e787b3          	sub	a5,a5,a4
   140a4:	00068e63          	beqz	a3,140c0 <_vfprintf_r+0x2870>
   140a8:	02012703          	lw	a4,32(sp)
   140ac:	00158593          	addi	a1,a1,1
   140b0:	00170713          	addi	a4,a4,1
   140b4:	02e12023          	sw	a4,32(sp)
   140b8:	00068713          	mv	a4,a3
   140bc:	fd9ff06f          	j	14094 <_vfprintf_r+0x2844>
   140c0:	02412683          	lw	a3,36(sp)
   140c4:	00168693          	addi	a3,a3,1
   140c8:	02d12223          	sw	a3,36(sp)
   140cc:	fc9ff06f          	j	14094 <_vfprintf_r+0x2844>
   140d0:	00f12a23          	sw	a5,20(sp)
   140d4:	02412703          	lw	a4,36(sp)
   140d8:	02012783          	lw	a5,32(sp)
   140dc:	02b12e23          	sw	a1,60(sp)
   140e0:	00e78733          	add	a4,a5,a4
   140e4:	04012783          	lw	a5,64(sp)
   140e8:	02f70733          	mul	a4,a4,a5
   140ec:	01670b33          	add	s6,a4,s6
   140f0:	fffb4993          	not	s3,s6
   140f4:	41f9d993          	srai	s3,s3,0x1f
   140f8:	013b79b3          	and	s3,s6,s3
   140fc:	b18fe06f          	j	12414 <_vfprintf_r+0xbc4>
   14100:	0d610693          	addi	a3,sp,214
   14104:	00061863          	bnez	a2,14114 <_vfprintf_r+0x28c4>
   14108:	03000693          	li	a3,48
   1410c:	0cd10b23          	sb	a3,214(sp)
   14110:	0d710693          	addi	a3,sp,215
   14114:	1b010793          	addi	a5,sp,432
   14118:	40f68633          	sub	a2,a3,a5
   1411c:	03070713          	addi	a4,a4,48
   14120:	0dd60793          	addi	a5,a2,221
   14124:	00e68023          	sb	a4,0(a3)
   14128:	02f12c23          	sw	a5,56(sp)
   1412c:	aa4fe06f          	j	123d0 <_vfprintf_r+0xb80>
   14130:	02812703          	lw	a4,40(sp)
   14134:	06600a93          	li	s5,102
   14138:	00e78b33          	add	s6,a5,a4
   1413c:	006b0b33          	add	s6,s6,t1
   14140:	d49ff06f          	j	13e88 <_vfprintf_r+0x2638>
   14144:	0b010c13          	addi	s8,sp,176
   14148:	000c0513          	mv	a0,s8
   1414c:	02612a23          	sw	t1,52(sp)
   14150:	0be12823          	sw	t5,176(sp)
   14154:	0bd12c23          	sw	t4,184(sp)
   14158:	0b612e23          	sw	s6,188(sp)
   1415c:	0bb12a23          	sw	s11,180(sp)
   14160:	288100ef          	jal	ra,243e8 <__trunctfdf2>
   14164:	0cc10613          	addi	a2,sp,204
   14168:	660060ef          	jal	ra,1a7c8 <frexp>
   1416c:	00058613          	mv	a2,a1
   14170:	00050593          	mv	a1,a0
   14174:	000c0513          	mv	a0,s8
   14178:	064100ef          	jal	ra,241dc <__extenddftf2>
   1417c:	0b012703          	lw	a4,176(sp)
   14180:	09010793          	addi	a5,sp,144
   14184:	0a010993          	addi	s3,sp,160
   14188:	08e12823          	sw	a4,144(sp)
   1418c:	0b412703          	lw	a4,180(sp)
   14190:	08010613          	addi	a2,sp,128
   14194:	00078593          	mv	a1,a5
   14198:	08e12a23          	sw	a4,148(sp)
   1419c:	0b812703          	lw	a4,184(sp)
   141a0:	00098513          	mv	a0,s3
   141a4:	00078b13          	mv	s6,a5
   141a8:	08e12c23          	sw	a4,152(sp)
   141ac:	0bc12703          	lw	a4,188(sp)
   141b0:	04c12623          	sw	a2,76(sp)
   141b4:	05312c23          	sw	s3,88(sp)
   141b8:	08e12e23          	sw	a4,156(sp)
   141bc:	3ffc0737          	lui	a4,0x3ffc0
   141c0:	08e12623          	sw	a4,140(sp)
   141c4:	08012023          	sw	zero,128(sp)
   141c8:	08012223          	sw	zero,132(sp)
   141cc:	08012423          	sw	zero,136(sp)
   141d0:	0090d0ef          	jal	ra,219d8 <__multf3>
   141d4:	0a012703          	lw	a4,160(sp)
   141d8:	0a412683          	lw	a3,164(sp)
   141dc:	0a812803          	lw	a6,168(sp)
   141e0:	0ac12e83          	lw	t4,172(sp)
   141e4:	00098593          	mv	a1,s3
   141e8:	000c0513          	mv	a0,s8
   141ec:	0ae12823          	sw	a4,176(sp)
   141f0:	02e12223          	sw	a4,36(sp)
   141f4:	0ad12a23          	sw	a3,180(sp)
   141f8:	02d12023          	sw	a3,32(sp)
   141fc:	0b012c23          	sw	a6,184(sp)
   14200:	01012c23          	sw	a6,24(sp)
   14204:	0bd12e23          	sw	t4,188(sp)
   14208:	01d12a23          	sw	t4,20(sp)
   1420c:	0a012023          	sw	zero,160(sp)
   14210:	0a012223          	sw	zero,164(sp)
   14214:	0a012423          	sw	zero,168(sp)
   14218:	0a012623          	sw	zero,172(sp)
   1421c:	4680d0ef          	jal	ra,21684 <__eqtf2>
   14220:	01412e83          	lw	t4,20(sp)
   14224:	01812803          	lw	a6,24(sp)
   14228:	02012683          	lw	a3,32(sp)
   1422c:	02412703          	lw	a4,36(sp)
   14230:	03412303          	lw	t1,52(sp)
   14234:	00051663          	bnez	a0,14240 <_vfprintf_r+0x29f0>
   14238:	00100613          	li	a2,1
   1423c:	0cc12623          	sw	a2,204(sp)
   14240:	00011797          	auipc	a5,0x11
   14244:	89878793          	addi	a5,a5,-1896 # 24ad8 <zeroes.4505+0x20>
   14248:	02f12a23          	sw	a5,52(sp)
   1424c:	f34ff06f          	j	13980 <_vfprintf_r+0x2130>
   14250:	05412783          	lw	a5,84(sp)
   14254:	0017f713          	andi	a4,a5,1
   14258:	00071463          	bnez	a4,14260 <_vfprintf_r+0x2a10>
   1425c:	994fe06f          	j	123f0 <_vfprintf_r+0xba0>
   14260:	988fe06f          	j	123e8 <_vfprintf_r+0xb98>
   14264:	0a010593          	addi	a1,sp,160
   14268:	000c0513          	mv	a0,s8
   1426c:	02612023          	sw	t1,32(sp)
   14270:	0be12823          	sw	t5,176(sp)
   14274:	01e12c23          	sw	t5,24(sp)
   14278:	0bd12c23          	sw	t4,184(sp)
   1427c:	01d12a23          	sw	t4,20(sp)
   14280:	04b12c23          	sw	a1,88(sp)
   14284:	0bb12a23          	sw	s11,180(sp)
   14288:	0b612e23          	sw	s6,188(sp)
   1428c:	0a012023          	sw	zero,160(sp)
   14290:	0a012223          	sw	zero,164(sp)
   14294:	0a012423          	sw	zero,168(sp)
   14298:	0a012623          	sw	zero,172(sp)
   1429c:	3e80d0ef          	jal	ra,21684 <__eqtf2>
   142a0:	01412e83          	lw	t4,20(sp)
   142a4:	01812f03          	lw	t5,24(sp)
   142a8:	02012303          	lw	t1,32(sp)
   142ac:	ae0506e3          	beqz	a0,13d98 <_vfprintf_r+0x2548>
   142b0:	00100713          	li	a4,1
   142b4:	40670733          	sub	a4,a4,t1
   142b8:	0ce12623          	sw	a4,204(sp)
   142bc:	ae1ff06f          	j	13d9c <_vfprintf_r+0x254c>
   142c0:	40fb0b33          	sub	s6,s6,a5
   142c4:	001b0b13          	addi	s6,s6,1
   142c8:	fffb4993          	not	s3,s6
   142cc:	41f9d993          	srai	s3,s3,0x1f
   142d0:	013b79b3          	and	s3,s6,s3
   142d4:	9adff06f          	j	13c80 <_vfprintf_r+0x2430>
   142d8:	00071a63          	bnez	a4,142ec <_vfprintf_r+0x2a9c>
   142dc:	00100993          	li	s3,1
   142e0:	06600a93          	li	s5,102
   142e4:	00100b13          	li	s6,1
   142e8:	999ff06f          	j	13c80 <_vfprintf_r+0x2430>
   142ec:	02812783          	lw	a5,40(sp)
   142f0:	06600a93          	li	s5,102
   142f4:	00178b13          	addi	s6,a5,1
   142f8:	006b0b33          	add	s6,s6,t1
   142fc:	fffb4993          	not	s3,s6
   14300:	41f9d993          	srai	s3,s3,0x1f
   14304:	013b79b3          	and	s3,s6,s3
   14308:	979ff06f          	j	13c80 <_vfprintf_r+0x2430>
   1430c:	000d0793          	mv	a5,s10
   14310:	cc5fe06f          	j	12fd4 <_vfprintf_r+0x1784>
   14314:	00c12703          	lw	a4,12(sp)
   14318:	00072c03          	lw	s8,0(a4) # 3ffc0000 <__global_pointer$+0x3ff97d30>
   1431c:	00470713          	addi	a4,a4,4
   14320:	000c5463          	bgez	s8,14328 <_vfprintf_r+0x2ad8>
   14324:	fff00c13          	li	s8,-1
   14328:	0014ce03          	lbu	t3,1(s1)
   1432c:	00e12623          	sw	a4,12(sp)
   14330:	00078493          	mv	s1,a5
   14334:	ed4fd06f          	j	11a08 <_vfprintf_r+0x1b8>
   14338:	00090993          	mv	s3,s2
   1433c:	b15fd06f          	j	11e50 <_vfprintf_r+0x600>
   14340:	00200793          	li	a5,2
   14344:	02f12c23          	sw	a5,56(sp)
   14348:	888fe06f          	j	123d0 <_vfprintf_r+0xb80>
   1434c:	00412703          	lw	a4,4(sp)
   14350:	00c75783          	lhu	a5,12(a4)
   14354:	0407e793          	ori	a5,a5,64
   14358:	00f71623          	sh	a5,12(a4)
   1435c:	fc8fd06f          	j	11b24 <_vfprintf_r+0x2d4>
   14360:	00090993          	mv	s3,s2
   14364:	8e8fe06f          	j	1244c <_vfprintf_r+0xbfc>
   14368:	00030993          	mv	s3,t1
   1436c:	c51ff06f          	j	13fbc <_vfprintf_r+0x276c>

00014370 <vfprintf>:
   14370:	81c18793          	addi	a5,gp,-2020 # 27aec <_impure_ptr>
   14374:	00060693          	mv	a3,a2
   14378:	00058613          	mv	a2,a1
   1437c:	00050593          	mv	a1,a0
   14380:	0007a503          	lw	a0,0(a5)
   14384:	cccfd06f          	j	11850 <_vfprintf_r>

00014388 <__sbprintf>:
   14388:	00c5d783          	lhu	a5,12(a1)
   1438c:	0645ae03          	lw	t3,100(a1)
   14390:	00e5d303          	lhu	t1,14(a1)
   14394:	01c5a883          	lw	a7,28(a1)
   14398:	0245a803          	lw	a6,36(a1)
   1439c:	b8010113          	addi	sp,sp,-1152
   143a0:	ffd7f793          	andi	a5,a5,-3
   143a4:	40000713          	li	a4,1024
   143a8:	46812c23          	sw	s0,1144(sp)
   143ac:	00f11a23          	sh	a5,20(sp)
   143b0:	00058413          	mv	s0,a1
   143b4:	07010793          	addi	a5,sp,112
   143b8:	00810593          	addi	a1,sp,8
   143bc:	46912a23          	sw	s1,1140(sp)
   143c0:	47212823          	sw	s2,1136(sp)
   143c4:	46112e23          	sw	ra,1148(sp)
   143c8:	00050913          	mv	s2,a0
   143cc:	07c12623          	sw	t3,108(sp)
   143d0:	00611b23          	sh	t1,22(sp)
   143d4:	03112223          	sw	a7,36(sp)
   143d8:	03012623          	sw	a6,44(sp)
   143dc:	00f12423          	sw	a5,8(sp)
   143e0:	00f12c23          	sw	a5,24(sp)
   143e4:	00e12823          	sw	a4,16(sp)
   143e8:	00e12e23          	sw	a4,28(sp)
   143ec:	02012023          	sw	zero,32(sp)
   143f0:	c60fd0ef          	jal	ra,11850 <_vfprintf_r>
   143f4:	00050493          	mv	s1,a0
   143f8:	02055c63          	bgez	a0,14430 <__sbprintf+0xa8>
   143fc:	01415783          	lhu	a5,20(sp)
   14400:	0407f793          	andi	a5,a5,64
   14404:	00078863          	beqz	a5,14414 <__sbprintf+0x8c>
   14408:	00c45783          	lhu	a5,12(s0)
   1440c:	0407e793          	ori	a5,a5,64
   14410:	00f41623          	sh	a5,12(s0)
   14414:	47c12083          	lw	ra,1148(sp)
   14418:	47812403          	lw	s0,1144(sp)
   1441c:	00048513          	mv	a0,s1
   14420:	47012903          	lw	s2,1136(sp)
   14424:	47412483          	lw	s1,1140(sp)
   14428:	48010113          	addi	sp,sp,1152
   1442c:	00008067          	ret
   14430:	00810593          	addi	a1,sp,8
   14434:	00090513          	mv	a0,s2
   14438:	58c000ef          	jal	ra,149c4 <_fflush_r>
   1443c:	fc0500e3          	beqz	a0,143fc <__sbprintf+0x74>
   14440:	fff00493          	li	s1,-1
   14444:	fb9ff06f          	j	143fc <__sbprintf+0x74>

00014448 <__swsetup_r>:
   14448:	81c18793          	addi	a5,gp,-2020 # 27aec <_impure_ptr>
   1444c:	0007a783          	lw	a5,0(a5)
   14450:	ff010113          	addi	sp,sp,-16
   14454:	00812423          	sw	s0,8(sp)
   14458:	00912223          	sw	s1,4(sp)
   1445c:	00112623          	sw	ra,12(sp)
   14460:	00050493          	mv	s1,a0
   14464:	00058413          	mv	s0,a1
   14468:	00078663          	beqz	a5,14474 <__swsetup_r+0x2c>
   1446c:	0387a703          	lw	a4,56(a5)
   14470:	08070663          	beqz	a4,144fc <__swsetup_r+0xb4>
   14474:	00c41703          	lh	a4,12(s0)
   14478:	01071793          	slli	a5,a4,0x10
   1447c:	0107d793          	srli	a5,a5,0x10
   14480:	0087f693          	andi	a3,a5,8
   14484:	08068a63          	beqz	a3,14518 <__swsetup_r+0xd0>
   14488:	01042683          	lw	a3,16(s0)
   1448c:	0a068a63          	beqz	a3,14540 <__swsetup_r+0xf8>
   14490:	0017f713          	andi	a4,a5,1
   14494:	02070863          	beqz	a4,144c4 <__swsetup_r+0x7c>
   14498:	01442783          	lw	a5,20(s0)
   1449c:	00042423          	sw	zero,8(s0)
   144a0:	00000513          	li	a0,0
   144a4:	40f007b3          	neg	a5,a5
   144a8:	00f42c23          	sw	a5,24(s0)
   144ac:	02068a63          	beqz	a3,144e0 <__swsetup_r+0x98>
   144b0:	00c12083          	lw	ra,12(sp)
   144b4:	00812403          	lw	s0,8(sp)
   144b8:	00412483          	lw	s1,4(sp)
   144bc:	01010113          	addi	sp,sp,16
   144c0:	00008067          	ret
   144c4:	0027f793          	andi	a5,a5,2
   144c8:	00000713          	li	a4,0
   144cc:	00079463          	bnez	a5,144d4 <__swsetup_r+0x8c>
   144d0:	01442703          	lw	a4,20(s0)
   144d4:	00e42423          	sw	a4,8(s0)
   144d8:	00000513          	li	a0,0
   144dc:	fc069ae3          	bnez	a3,144b0 <__swsetup_r+0x68>
   144e0:	00c41783          	lh	a5,12(s0)
   144e4:	0807f713          	andi	a4,a5,128
   144e8:	fc0704e3          	beqz	a4,144b0 <__swsetup_r+0x68>
   144ec:	0407e793          	ori	a5,a5,64
   144f0:	00f41623          	sh	a5,12(s0)
   144f4:	fff00513          	li	a0,-1
   144f8:	fb9ff06f          	j	144b0 <__swsetup_r+0x68>
   144fc:	00078513          	mv	a0,a5
   14500:	071000ef          	jal	ra,14d70 <__sinit>
   14504:	00c41703          	lh	a4,12(s0)
   14508:	01071793          	slli	a5,a4,0x10
   1450c:	0107d793          	srli	a5,a5,0x10
   14510:	0087f693          	andi	a3,a5,8
   14514:	f6069ae3          	bnez	a3,14488 <__swsetup_r+0x40>
   14518:	0107f693          	andi	a3,a5,16
   1451c:	06068e63          	beqz	a3,14598 <__swsetup_r+0x150>
   14520:	0047f793          	andi	a5,a5,4
   14524:	04079063          	bnez	a5,14564 <__swsetup_r+0x11c>
   14528:	01042683          	lw	a3,16(s0)
   1452c:	00876793          	ori	a5,a4,8
   14530:	00f41623          	sh	a5,12(s0)
   14534:	01079793          	slli	a5,a5,0x10
   14538:	0107d793          	srli	a5,a5,0x10
   1453c:	f4069ae3          	bnez	a3,14490 <__swsetup_r+0x48>
   14540:	2807f713          	andi	a4,a5,640
   14544:	20000613          	li	a2,512
   14548:	f4c704e3          	beq	a4,a2,14490 <__swsetup_r+0x48>
   1454c:	00040593          	mv	a1,s0
   14550:	00048513          	mv	a0,s1
   14554:	77d030ef          	jal	ra,184d0 <__smakebuf_r>
   14558:	00c45783          	lhu	a5,12(s0)
   1455c:	01042683          	lw	a3,16(s0)
   14560:	f31ff06f          	j	14490 <__swsetup_r+0x48>
   14564:	03042583          	lw	a1,48(s0)
   14568:	00058e63          	beqz	a1,14584 <__swsetup_r+0x13c>
   1456c:	04040793          	addi	a5,s0,64
   14570:	00f58863          	beq	a1,a5,14580 <__swsetup_r+0x138>
   14574:	00048513          	mv	a0,s1
   14578:	16d000ef          	jal	ra,14ee4 <_free_r>
   1457c:	00c41703          	lh	a4,12(s0)
   14580:	02042823          	sw	zero,48(s0)
   14584:	01042683          	lw	a3,16(s0)
   14588:	fdb77713          	andi	a4,a4,-37
   1458c:	00042223          	sw	zero,4(s0)
   14590:	00d42023          	sw	a3,0(s0)
   14594:	f99ff06f          	j	1452c <__swsetup_r+0xe4>
   14598:	00900793          	li	a5,9
   1459c:	00f4a023          	sw	a5,0(s1)
   145a0:	04076713          	ori	a4,a4,64
   145a4:	00e41623          	sh	a4,12(s0)
   145a8:	fff00513          	li	a0,-1
   145ac:	f05ff06f          	j	144b0 <__swsetup_r+0x68>

000145b0 <__register_exitproc>:
   145b0:	81818793          	addi	a5,gp,-2024 # 27ae8 <_global_impure_ptr>
   145b4:	0007a703          	lw	a4,0(a5)
   145b8:	14872783          	lw	a5,328(a4)
   145bc:	04078c63          	beqz	a5,14614 <__register_exitproc+0x64>
   145c0:	0047a703          	lw	a4,4(a5)
   145c4:	01f00813          	li	a6,31
   145c8:	06e84e63          	blt	a6,a4,14644 <__register_exitproc+0x94>
   145cc:	00271813          	slli	a6,a4,0x2
   145d0:	02050663          	beqz	a0,145fc <__register_exitproc+0x4c>
   145d4:	01078333          	add	t1,a5,a6
   145d8:	08c32423          	sw	a2,136(t1)
   145dc:	1887a883          	lw	a7,392(a5)
   145e0:	00100613          	li	a2,1
   145e4:	00e61633          	sll	a2,a2,a4
   145e8:	00c8e8b3          	or	a7,a7,a2
   145ec:	1917a423          	sw	a7,392(a5)
   145f0:	10d32423          	sw	a3,264(t1)
   145f4:	00200693          	li	a3,2
   145f8:	02d50463          	beq	a0,a3,14620 <__register_exitproc+0x70>
   145fc:	00170713          	addi	a4,a4,1
   14600:	00e7a223          	sw	a4,4(a5)
   14604:	010787b3          	add	a5,a5,a6
   14608:	00b7a423          	sw	a1,8(a5)
   1460c:	00000513          	li	a0,0
   14610:	00008067          	ret
   14614:	14c70793          	addi	a5,a4,332
   14618:	14f72423          	sw	a5,328(a4)
   1461c:	fa5ff06f          	j	145c0 <__register_exitproc+0x10>
   14620:	18c7a683          	lw	a3,396(a5)
   14624:	00170713          	addi	a4,a4,1
   14628:	00e7a223          	sw	a4,4(a5)
   1462c:	00c6e633          	or	a2,a3,a2
   14630:	18c7a623          	sw	a2,396(a5)
   14634:	010787b3          	add	a5,a5,a6
   14638:	00b7a423          	sw	a1,8(a5)
   1463c:	00000513          	li	a0,0
   14640:	00008067          	ret
   14644:	fff00513          	li	a0,-1
   14648:	00008067          	ret

0001464c <__call_exitprocs>:
   1464c:	fd010113          	addi	sp,sp,-48
   14650:	81818793          	addi	a5,gp,-2024 # 27ae8 <_global_impure_ptr>
   14654:	01812423          	sw	s8,8(sp)
   14658:	0007ac03          	lw	s8,0(a5)
   1465c:	01312e23          	sw	s3,28(sp)
   14660:	01412c23          	sw	s4,24(sp)
   14664:	01512a23          	sw	s5,20(sp)
   14668:	01612823          	sw	s6,16(sp)
   1466c:	02112623          	sw	ra,44(sp)
   14670:	02812423          	sw	s0,40(sp)
   14674:	02912223          	sw	s1,36(sp)
   14678:	03212023          	sw	s2,32(sp)
   1467c:	01712623          	sw	s7,12(sp)
   14680:	00050a93          	mv	s5,a0
   14684:	00058b13          	mv	s6,a1
   14688:	00100a13          	li	s4,1
   1468c:	fff00993          	li	s3,-1
   14690:	148c2903          	lw	s2,328(s8)
   14694:	02090863          	beqz	s2,146c4 <__call_exitprocs+0x78>
   14698:	00492483          	lw	s1,4(s2)
   1469c:	fff48413          	addi	s0,s1,-1
   146a0:	02044263          	bltz	s0,146c4 <__call_exitprocs+0x78>
   146a4:	00249493          	slli	s1,s1,0x2
   146a8:	009904b3          	add	s1,s2,s1
   146ac:	040b0463          	beqz	s6,146f4 <__call_exitprocs+0xa8>
   146b0:	1044a783          	lw	a5,260(s1)
   146b4:	05678063          	beq	a5,s6,146f4 <__call_exitprocs+0xa8>
   146b8:	fff40413          	addi	s0,s0,-1
   146bc:	ffc48493          	addi	s1,s1,-4
   146c0:	ff3416e3          	bne	s0,s3,146ac <__call_exitprocs+0x60>
   146c4:	02c12083          	lw	ra,44(sp)
   146c8:	02812403          	lw	s0,40(sp)
   146cc:	02412483          	lw	s1,36(sp)
   146d0:	02012903          	lw	s2,32(sp)
   146d4:	01c12983          	lw	s3,28(sp)
   146d8:	01812a03          	lw	s4,24(sp)
   146dc:	01412a83          	lw	s5,20(sp)
   146e0:	01012b03          	lw	s6,16(sp)
   146e4:	00c12b83          	lw	s7,12(sp)
   146e8:	00812c03          	lw	s8,8(sp)
   146ec:	03010113          	addi	sp,sp,48
   146f0:	00008067          	ret
   146f4:	00492783          	lw	a5,4(s2)
   146f8:	0044a683          	lw	a3,4(s1)
   146fc:	fff78793          	addi	a5,a5,-1
   14700:	04878a63          	beq	a5,s0,14754 <__call_exitprocs+0x108>
   14704:	0004a223          	sw	zero,4(s1)
   14708:	fa0688e3          	beqz	a3,146b8 <__call_exitprocs+0x6c>
   1470c:	18892783          	lw	a5,392(s2)
   14710:	008a1733          	sll	a4,s4,s0
   14714:	00492b83          	lw	s7,4(s2)
   14718:	00f777b3          	and	a5,a4,a5
   1471c:	00079e63          	bnez	a5,14738 <__call_exitprocs+0xec>
   14720:	000680e7          	jalr	a3
   14724:	00492783          	lw	a5,4(s2)
   14728:	f77794e3          	bne	a5,s7,14690 <__call_exitprocs+0x44>
   1472c:	148c2783          	lw	a5,328(s8)
   14730:	f92784e3          	beq	a5,s2,146b8 <__call_exitprocs+0x6c>
   14734:	f5dff06f          	j	14690 <__call_exitprocs+0x44>
   14738:	18c92783          	lw	a5,396(s2)
   1473c:	0844a583          	lw	a1,132(s1)
   14740:	00f77733          	and	a4,a4,a5
   14744:	00071c63          	bnez	a4,1475c <__call_exitprocs+0x110>
   14748:	000a8513          	mv	a0,s5
   1474c:	000680e7          	jalr	a3
   14750:	fd5ff06f          	j	14724 <__call_exitprocs+0xd8>
   14754:	00892223          	sw	s0,4(s2)
   14758:	fb1ff06f          	j	14708 <__call_exitprocs+0xbc>
   1475c:	00058513          	mv	a0,a1
   14760:	000680e7          	jalr	a3
   14764:	fc1ff06f          	j	14724 <__call_exitprocs+0xd8>

00014768 <__sflush_r>:
   14768:	00c59783          	lh	a5,12(a1)
   1476c:	fe010113          	addi	sp,sp,-32
   14770:	00812c23          	sw	s0,24(sp)
   14774:	01079713          	slli	a4,a5,0x10
   14778:	01075713          	srli	a4,a4,0x10
   1477c:	01312623          	sw	s3,12(sp)
   14780:	00112e23          	sw	ra,28(sp)
   14784:	00912a23          	sw	s1,20(sp)
   14788:	01212823          	sw	s2,16(sp)
   1478c:	00877693          	andi	a3,a4,8
   14790:	00058413          	mv	s0,a1
   14794:	00050993          	mv	s3,a0
   14798:	10069a63          	bnez	a3,148ac <__sflush_r+0x144>
   1479c:	00001737          	lui	a4,0x1
   147a0:	80070713          	addi	a4,a4,-2048 # 800 <threadsense.2617+0x800>
   147a4:	0045a683          	lw	a3,4(a1)
   147a8:	00e7e7b3          	or	a5,a5,a4
   147ac:	00f59623          	sh	a5,12(a1)
   147b0:	18d05063          	blez	a3,14930 <__sflush_r+0x1c8>
   147b4:	02842703          	lw	a4,40(s0)
   147b8:	0c070a63          	beqz	a4,1488c <__sflush_r+0x124>
   147bc:	01079793          	slli	a5,a5,0x10
   147c0:	0107d793          	srli	a5,a5,0x10
   147c4:	0009a483          	lw	s1,0(s3)
   147c8:	01379693          	slli	a3,a5,0x13
   147cc:	0009a023          	sw	zero,0(s3)
   147d0:	01c42583          	lw	a1,28(s0)
   147d4:	1606c463          	bltz	a3,1493c <__sflush_r+0x1d4>
   147d8:	00100693          	li	a3,1
   147dc:	00000613          	li	a2,0
   147e0:	00098513          	mv	a0,s3
   147e4:	000700e7          	jalr	a4
   147e8:	fff00793          	li	a5,-1
   147ec:	18f50863          	beq	a0,a5,1497c <__sflush_r+0x214>
   147f0:	00c45783          	lhu	a5,12(s0)
   147f4:	02842703          	lw	a4,40(s0)
   147f8:	01c42583          	lw	a1,28(s0)
   147fc:	0047f793          	andi	a5,a5,4
   14800:	00078e63          	beqz	a5,1481c <__sflush_r+0xb4>
   14804:	00442683          	lw	a3,4(s0)
   14808:	03042783          	lw	a5,48(s0)
   1480c:	40d50533          	sub	a0,a0,a3
   14810:	00078663          	beqz	a5,1481c <__sflush_r+0xb4>
   14814:	03c42783          	lw	a5,60(s0)
   14818:	40f50533          	sub	a0,a0,a5
   1481c:	00050613          	mv	a2,a0
   14820:	00000693          	li	a3,0
   14824:	00098513          	mv	a0,s3
   14828:	000700e7          	jalr	a4
   1482c:	fff00793          	li	a5,-1
   14830:	10f51a63          	bne	a0,a5,14944 <__sflush_r+0x1dc>
   14834:	0009a703          	lw	a4,0(s3)
   14838:	00c41783          	lh	a5,12(s0)
   1483c:	16070463          	beqz	a4,149a4 <__sflush_r+0x23c>
   14840:	01d00693          	li	a3,29
   14844:	00d70663          	beq	a4,a3,14850 <__sflush_r+0xe8>
   14848:	01600693          	li	a3,22
   1484c:	0cd71063          	bne	a4,a3,1490c <__sflush_r+0x1a4>
   14850:	01042683          	lw	a3,16(s0)
   14854:	fffff737          	lui	a4,0xfffff
   14858:	7ff70713          	addi	a4,a4,2047 # fffff7ff <__global_pointer$+0xfffd752f>
   1485c:	00e7f7b3          	and	a5,a5,a4
   14860:	00f41623          	sh	a5,12(s0)
   14864:	00042223          	sw	zero,4(s0)
   14868:	00d42023          	sw	a3,0(s0)
   1486c:	03042583          	lw	a1,48(s0)
   14870:	0099a023          	sw	s1,0(s3)
   14874:	00058c63          	beqz	a1,1488c <__sflush_r+0x124>
   14878:	04040793          	addi	a5,s0,64
   1487c:	00f58663          	beq	a1,a5,14888 <__sflush_r+0x120>
   14880:	00098513          	mv	a0,s3
   14884:	660000ef          	jal	ra,14ee4 <_free_r>
   14888:	02042823          	sw	zero,48(s0)
   1488c:	00000513          	li	a0,0
   14890:	01c12083          	lw	ra,28(sp)
   14894:	01812403          	lw	s0,24(sp)
   14898:	01412483          	lw	s1,20(sp)
   1489c:	01012903          	lw	s2,16(sp)
   148a0:	00c12983          	lw	s3,12(sp)
   148a4:	02010113          	addi	sp,sp,32
   148a8:	00008067          	ret
   148ac:	0105a903          	lw	s2,16(a1)
   148b0:	fc090ee3          	beqz	s2,1488c <__sflush_r+0x124>
   148b4:	0005a483          	lw	s1,0(a1)
   148b8:	00377713          	andi	a4,a4,3
   148bc:	0125a023          	sw	s2,0(a1)
   148c0:	412484b3          	sub	s1,s1,s2
   148c4:	00000793          	li	a5,0
   148c8:	00071463          	bnez	a4,148d0 <__sflush_r+0x168>
   148cc:	0145a783          	lw	a5,20(a1)
   148d0:	00f42423          	sw	a5,8(s0)
   148d4:	00904863          	bgtz	s1,148e4 <__sflush_r+0x17c>
   148d8:	fb5ff06f          	j	1488c <__sflush_r+0x124>
   148dc:	00a90933          	add	s2,s2,a0
   148e0:	fa9056e3          	blez	s1,1488c <__sflush_r+0x124>
   148e4:	02442783          	lw	a5,36(s0)
   148e8:	01c42583          	lw	a1,28(s0)
   148ec:	00048693          	mv	a3,s1
   148f0:	00090613          	mv	a2,s2
   148f4:	00098513          	mv	a0,s3
   148f8:	000780e7          	jalr	a5
   148fc:	40a484b3          	sub	s1,s1,a0
   14900:	fca04ee3          	bgtz	a0,148dc <__sflush_r+0x174>
   14904:	00c45783          	lhu	a5,12(s0)
   14908:	fff00513          	li	a0,-1
   1490c:	0407e793          	ori	a5,a5,64
   14910:	00f41623          	sh	a5,12(s0)
   14914:	01c12083          	lw	ra,28(sp)
   14918:	01812403          	lw	s0,24(sp)
   1491c:	01412483          	lw	s1,20(sp)
   14920:	01012903          	lw	s2,16(sp)
   14924:	00c12983          	lw	s3,12(sp)
   14928:	02010113          	addi	sp,sp,32
   1492c:	00008067          	ret
   14930:	03c5a703          	lw	a4,60(a1)
   14934:	e8e040e3          	bgtz	a4,147b4 <__sflush_r+0x4c>
   14938:	f55ff06f          	j	1488c <__sflush_r+0x124>
   1493c:	05042503          	lw	a0,80(s0)
   14940:	ebdff06f          	j	147fc <__sflush_r+0x94>
   14944:	00c45783          	lhu	a5,12(s0)
   14948:	fffff737          	lui	a4,0xfffff
   1494c:	7ff70713          	addi	a4,a4,2047 # fffff7ff <__global_pointer$+0xfffd752f>
   14950:	00e7f7b3          	and	a5,a5,a4
   14954:	01042683          	lw	a3,16(s0)
   14958:	01079793          	slli	a5,a5,0x10
   1495c:	4107d793          	srai	a5,a5,0x10
   14960:	00f41623          	sh	a5,12(s0)
   14964:	00042223          	sw	zero,4(s0)
   14968:	00d42023          	sw	a3,0(s0)
   1496c:	01379713          	slli	a4,a5,0x13
   14970:	ee075ee3          	bgez	a4,1486c <__sflush_r+0x104>
   14974:	04a42823          	sw	a0,80(s0)
   14978:	ef5ff06f          	j	1486c <__sflush_r+0x104>
   1497c:	0009a783          	lw	a5,0(s3)
   14980:	e60788e3          	beqz	a5,147f0 <__sflush_r+0x88>
   14984:	01d00713          	li	a4,29
   14988:	02e78863          	beq	a5,a4,149b8 <__sflush_r+0x250>
   1498c:	01600713          	li	a4,22
   14990:	02e78463          	beq	a5,a4,149b8 <__sflush_r+0x250>
   14994:	00c45783          	lhu	a5,12(s0)
   14998:	0407e793          	ori	a5,a5,64
   1499c:	00f41623          	sh	a5,12(s0)
   149a0:	ef1ff06f          	j	14890 <__sflush_r+0x128>
   149a4:	fffff737          	lui	a4,0xfffff
   149a8:	7ff70713          	addi	a4,a4,2047 # fffff7ff <__global_pointer$+0xfffd752f>
   149ac:	01042683          	lw	a3,16(s0)
   149b0:	00e7f7b3          	and	a5,a5,a4
   149b4:	fadff06f          	j	14960 <__sflush_r+0x1f8>
   149b8:	0099a023          	sw	s1,0(s3)
   149bc:	00000513          	li	a0,0
   149c0:	ed1ff06f          	j	14890 <__sflush_r+0x128>

000149c4 <_fflush_r>:
   149c4:	fe010113          	addi	sp,sp,-32
   149c8:	00812c23          	sw	s0,24(sp)
   149cc:	00112e23          	sw	ra,28(sp)
   149d0:	00050413          	mv	s0,a0
   149d4:	00050663          	beqz	a0,149e0 <_fflush_r+0x1c>
   149d8:	03852783          	lw	a5,56(a0)
   149dc:	02078063          	beqz	a5,149fc <_fflush_r+0x38>
   149e0:	00c59783          	lh	a5,12(a1)
   149e4:	02079663          	bnez	a5,14a10 <_fflush_r+0x4c>
   149e8:	01c12083          	lw	ra,28(sp)
   149ec:	01812403          	lw	s0,24(sp)
   149f0:	00000513          	li	a0,0
   149f4:	02010113          	addi	sp,sp,32
   149f8:	00008067          	ret
   149fc:	00b12623          	sw	a1,12(sp)
   14a00:	370000ef          	jal	ra,14d70 <__sinit>
   14a04:	00c12583          	lw	a1,12(sp)
   14a08:	00c59783          	lh	a5,12(a1)
   14a0c:	fc078ee3          	beqz	a5,149e8 <_fflush_r+0x24>
   14a10:	00040513          	mv	a0,s0
   14a14:	01812403          	lw	s0,24(sp)
   14a18:	01c12083          	lw	ra,28(sp)
   14a1c:	02010113          	addi	sp,sp,32
   14a20:	d49ff06f          	j	14768 <__sflush_r>

00014a24 <fflush>:
   14a24:	00050593          	mv	a1,a0
   14a28:	00050863          	beqz	a0,14a38 <fflush+0x14>
   14a2c:	81c18793          	addi	a5,gp,-2020 # 27aec <_impure_ptr>
   14a30:	0007a503          	lw	a0,0(a5)
   14a34:	f91ff06f          	j	149c4 <_fflush_r>
   14a38:	81818793          	addi	a5,gp,-2024 # 27ae8 <_global_impure_ptr>
   14a3c:	0007a503          	lw	a0,0(a5)
   14a40:	00000597          	auipc	a1,0x0
   14a44:	f8458593          	addi	a1,a1,-124 # 149c4 <_fflush_r>
   14a48:	5150006f          	j	1575c <_fwalk_reent>

00014a4c <__fp_lock>:
   14a4c:	00000513          	li	a0,0
   14a50:	00008067          	ret

00014a54 <_cleanup_r>:
   14a54:	0000a597          	auipc	a1,0xa
   14a58:	48058593          	addi	a1,a1,1152 # 1eed4 <_fclose_r>
   14a5c:	5010006f          	j	1575c <_fwalk_reent>

00014a60 <__sinit.part.0>:
   14a60:	fe010113          	addi	sp,sp,-32
   14a64:	00112e23          	sw	ra,28(sp)
   14a68:	00812c23          	sw	s0,24(sp)
   14a6c:	00912a23          	sw	s1,20(sp)
   14a70:	01212823          	sw	s2,16(sp)
   14a74:	01312623          	sw	s3,12(sp)
   14a78:	01412423          	sw	s4,8(sp)
   14a7c:	01512223          	sw	s5,4(sp)
   14a80:	01612023          	sw	s6,0(sp)
   14a84:	00452403          	lw	s0,4(a0)
   14a88:	00000717          	auipc	a4,0x0
   14a8c:	fcc70713          	addi	a4,a4,-52 # 14a54 <_cleanup_r>
   14a90:	02e52e23          	sw	a4,60(a0)
   14a94:	2ec50793          	addi	a5,a0,748
   14a98:	00300713          	li	a4,3
   14a9c:	2ee52223          	sw	a4,740(a0)
   14aa0:	2ef52423          	sw	a5,744(a0)
   14aa4:	2e052023          	sw	zero,736(a0)
   14aa8:	00400793          	li	a5,4
   14aac:	00050913          	mv	s2,a0
   14ab0:	00f42623          	sw	a5,12(s0)
   14ab4:	00800613          	li	a2,8
   14ab8:	00000593          	li	a1,0
   14abc:	06042223          	sw	zero,100(s0)
   14ac0:	00042023          	sw	zero,0(s0)
   14ac4:	00042223          	sw	zero,4(s0)
   14ac8:	00042423          	sw	zero,8(s0)
   14acc:	00042823          	sw	zero,16(s0)
   14ad0:	00042a23          	sw	zero,20(s0)
   14ad4:	00042c23          	sw	zero,24(s0)
   14ad8:	05c40513          	addi	a0,s0,92
   14adc:	a95fc0ef          	jal	ra,11570 <memset>
   14ae0:	00892483          	lw	s1,8(s2)
   14ae4:	00006b17          	auipc	s6,0x6
   14ae8:	e7cb0b13          	addi	s6,s6,-388 # 1a960 <__sread>
   14aec:	00006a97          	auipc	s5,0x6
   14af0:	ed8a8a93          	addi	s5,s5,-296 # 1a9c4 <__swrite>
   14af4:	00006a17          	auipc	s4,0x6
   14af8:	f58a0a13          	addi	s4,s4,-168 # 1aa4c <__sseek>
   14afc:	00006997          	auipc	s3,0x6
   14b00:	fb898993          	addi	s3,s3,-72 # 1aab4 <__sclose>
   14b04:	000107b7          	lui	a5,0x10
   14b08:	03642023          	sw	s6,32(s0)
   14b0c:	03542223          	sw	s5,36(s0)
   14b10:	03442423          	sw	s4,40(s0)
   14b14:	03342623          	sw	s3,44(s0)
   14b18:	00842e23          	sw	s0,28(s0)
   14b1c:	00978793          	addi	a5,a5,9 # 10009 <_start+0x9>
   14b20:	00f4a623          	sw	a5,12(s1)
   14b24:	00800613          	li	a2,8
   14b28:	00000593          	li	a1,0
   14b2c:	0604a223          	sw	zero,100(s1)
   14b30:	0004a023          	sw	zero,0(s1)
   14b34:	0004a223          	sw	zero,4(s1)
   14b38:	0004a423          	sw	zero,8(s1)
   14b3c:	0004a823          	sw	zero,16(s1)
   14b40:	0004aa23          	sw	zero,20(s1)
   14b44:	0004ac23          	sw	zero,24(s1)
   14b48:	05c48513          	addi	a0,s1,92
   14b4c:	a25fc0ef          	jal	ra,11570 <memset>
   14b50:	00c92403          	lw	s0,12(s2)
   14b54:	000207b7          	lui	a5,0x20
   14b58:	0364a023          	sw	s6,32(s1)
   14b5c:	0354a223          	sw	s5,36(s1)
   14b60:	0344a423          	sw	s4,40(s1)
   14b64:	0334a623          	sw	s3,44(s1)
   14b68:	0094ae23          	sw	s1,28(s1)
   14b6c:	01278793          	addi	a5,a5,18 # 20012 <_svfiprintf_r+0xb16>
   14b70:	00f42623          	sw	a5,12(s0)
   14b74:	06042223          	sw	zero,100(s0)
   14b78:	00042023          	sw	zero,0(s0)
   14b7c:	00042223          	sw	zero,4(s0)
   14b80:	00042423          	sw	zero,8(s0)
   14b84:	00042823          	sw	zero,16(s0)
   14b88:	00042a23          	sw	zero,20(s0)
   14b8c:	00042c23          	sw	zero,24(s0)
   14b90:	05c40513          	addi	a0,s0,92
   14b94:	00800613          	li	a2,8
   14b98:	00000593          	li	a1,0
   14b9c:	9d5fc0ef          	jal	ra,11570 <memset>
   14ba0:	01c12083          	lw	ra,28(sp)
   14ba4:	03642023          	sw	s6,32(s0)
   14ba8:	03542223          	sw	s5,36(s0)
   14bac:	03442423          	sw	s4,40(s0)
   14bb0:	03342623          	sw	s3,44(s0)
   14bb4:	00842e23          	sw	s0,28(s0)
   14bb8:	01812403          	lw	s0,24(sp)
   14bbc:	00100793          	li	a5,1
   14bc0:	02f92c23          	sw	a5,56(s2)
   14bc4:	01412483          	lw	s1,20(sp)
   14bc8:	01012903          	lw	s2,16(sp)
   14bcc:	00c12983          	lw	s3,12(sp)
   14bd0:	00812a03          	lw	s4,8(sp)
   14bd4:	00412a83          	lw	s5,4(sp)
   14bd8:	00012b03          	lw	s6,0(sp)
   14bdc:	02010113          	addi	sp,sp,32
   14be0:	00008067          	ret

00014be4 <__fp_unlock>:
   14be4:	00000513          	li	a0,0
   14be8:	00008067          	ret

00014bec <__sfmoreglue>:
   14bec:	ff010113          	addi	sp,sp,-16
   14bf0:	00912223          	sw	s1,4(sp)
   14bf4:	06800613          	li	a2,104
   14bf8:	fff58493          	addi	s1,a1,-1
   14bfc:	02c484b3          	mul	s1,s1,a2
   14c00:	01212023          	sw	s2,0(sp)
   14c04:	00058913          	mv	s2,a1
   14c08:	00812423          	sw	s0,8(sp)
   14c0c:	00112623          	sw	ra,12(sp)
   14c10:	07448593          	addi	a1,s1,116
   14c14:	1dd030ef          	jal	ra,185f0 <_malloc_r>
   14c18:	00050413          	mv	s0,a0
   14c1c:	02050063          	beqz	a0,14c3c <__sfmoreglue+0x50>
   14c20:	00c50513          	addi	a0,a0,12
   14c24:	00042023          	sw	zero,0(s0)
   14c28:	01242223          	sw	s2,4(s0)
   14c2c:	00a42423          	sw	a0,8(s0)
   14c30:	06848613          	addi	a2,s1,104
   14c34:	00000593          	li	a1,0
   14c38:	939fc0ef          	jal	ra,11570 <memset>
   14c3c:	00040513          	mv	a0,s0
   14c40:	00c12083          	lw	ra,12(sp)
   14c44:	00812403          	lw	s0,8(sp)
   14c48:	00412483          	lw	s1,4(sp)
   14c4c:	00012903          	lw	s2,0(sp)
   14c50:	01010113          	addi	sp,sp,16
   14c54:	00008067          	ret

00014c58 <__sfp>:
   14c58:	fe010113          	addi	sp,sp,-32
   14c5c:	81818793          	addi	a5,gp,-2024 # 27ae8 <_global_impure_ptr>
   14c60:	01212823          	sw	s2,16(sp)
   14c64:	0007a903          	lw	s2,0(a5)
   14c68:	01312623          	sw	s3,12(sp)
   14c6c:	00112e23          	sw	ra,28(sp)
   14c70:	03892783          	lw	a5,56(s2)
   14c74:	00812c23          	sw	s0,24(sp)
   14c78:	00912a23          	sw	s1,20(sp)
   14c7c:	00050993          	mv	s3,a0
   14c80:	0a078663          	beqz	a5,14d2c <__sfp+0xd4>
   14c84:	2e090913          	addi	s2,s2,736
   14c88:	fff00493          	li	s1,-1
   14c8c:	00492783          	lw	a5,4(s2)
   14c90:	00892403          	lw	s0,8(s2)
   14c94:	fff78793          	addi	a5,a5,-1
   14c98:	0007da63          	bgez	a5,14cac <__sfp+0x54>
   14c9c:	0800006f          	j	14d1c <__sfp+0xc4>
   14ca0:	fff78793          	addi	a5,a5,-1
   14ca4:	06840413          	addi	s0,s0,104
   14ca8:	06978a63          	beq	a5,s1,14d1c <__sfp+0xc4>
   14cac:	00c41703          	lh	a4,12(s0)
   14cb0:	fe0718e3          	bnez	a4,14ca0 <__sfp+0x48>
   14cb4:	ffff07b7          	lui	a5,0xffff0
   14cb8:	00178793          	addi	a5,a5,1 # ffff0001 <__global_pointer$+0xfffc7d31>
   14cbc:	06042223          	sw	zero,100(s0)
   14cc0:	00042023          	sw	zero,0(s0)
   14cc4:	00042223          	sw	zero,4(s0)
   14cc8:	00042423          	sw	zero,8(s0)
   14ccc:	00f42623          	sw	a5,12(s0)
   14cd0:	00042823          	sw	zero,16(s0)
   14cd4:	00042a23          	sw	zero,20(s0)
   14cd8:	00042c23          	sw	zero,24(s0)
   14cdc:	00800613          	li	a2,8
   14ce0:	00000593          	li	a1,0
   14ce4:	05c40513          	addi	a0,s0,92
   14ce8:	889fc0ef          	jal	ra,11570 <memset>
   14cec:	02042823          	sw	zero,48(s0)
   14cf0:	02042a23          	sw	zero,52(s0)
   14cf4:	04042223          	sw	zero,68(s0)
   14cf8:	04042423          	sw	zero,72(s0)
   14cfc:	00040513          	mv	a0,s0
   14d00:	01c12083          	lw	ra,28(sp)
   14d04:	01812403          	lw	s0,24(sp)
   14d08:	01412483          	lw	s1,20(sp)
   14d0c:	01012903          	lw	s2,16(sp)
   14d10:	00c12983          	lw	s3,12(sp)
   14d14:	02010113          	addi	sp,sp,32
   14d18:	00008067          	ret
   14d1c:	00092403          	lw	s0,0(s2)
   14d20:	00040c63          	beqz	s0,14d38 <__sfp+0xe0>
   14d24:	00040913          	mv	s2,s0
   14d28:	f65ff06f          	j	14c8c <__sfp+0x34>
   14d2c:	00090513          	mv	a0,s2
   14d30:	d31ff0ef          	jal	ra,14a60 <__sinit.part.0>
   14d34:	f51ff06f          	j	14c84 <__sfp+0x2c>
   14d38:	00400593          	li	a1,4
   14d3c:	00098513          	mv	a0,s3
   14d40:	eadff0ef          	jal	ra,14bec <__sfmoreglue>
   14d44:	00a92023          	sw	a0,0(s2)
   14d48:	00050413          	mv	s0,a0
   14d4c:	fc051ce3          	bnez	a0,14d24 <__sfp+0xcc>
   14d50:	00c00793          	li	a5,12
   14d54:	00f9a023          	sw	a5,0(s3)
   14d58:	fa5ff06f          	j	14cfc <__sfp+0xa4>

00014d5c <_cleanup>:
   14d5c:	81818793          	addi	a5,gp,-2024 # 27ae8 <_global_impure_ptr>
   14d60:	0007a503          	lw	a0,0(a5)
   14d64:	0000a597          	auipc	a1,0xa
   14d68:	17058593          	addi	a1,a1,368 # 1eed4 <_fclose_r>
   14d6c:	1f10006f          	j	1575c <_fwalk_reent>

00014d70 <__sinit>:
   14d70:	03852783          	lw	a5,56(a0)
   14d74:	00078463          	beqz	a5,14d7c <__sinit+0xc>
   14d78:	00008067          	ret
   14d7c:	ce5ff06f          	j	14a60 <__sinit.part.0>

00014d80 <__sfp_lock_acquire>:
   14d80:	00008067          	ret

00014d84 <__sfp_lock_release>:
   14d84:	00008067          	ret

00014d88 <__sinit_lock_acquire>:
   14d88:	00008067          	ret

00014d8c <__sinit_lock_release>:
   14d8c:	00008067          	ret

00014d90 <__fp_lock_all>:
   14d90:	81c18793          	addi	a5,gp,-2020 # 27aec <_impure_ptr>
   14d94:	0007a503          	lw	a0,0(a5)
   14d98:	00000597          	auipc	a1,0x0
   14d9c:	cb458593          	addi	a1,a1,-844 # 14a4c <__fp_lock>
   14da0:	10d0006f          	j	156ac <_fwalk>

00014da4 <__fp_unlock_all>:
   14da4:	81c18793          	addi	a5,gp,-2020 # 27aec <_impure_ptr>
   14da8:	0007a503          	lw	a0,0(a5)
   14dac:	00000597          	auipc	a1,0x0
   14db0:	e3858593          	addi	a1,a1,-456 # 14be4 <__fp_unlock>
   14db4:	0f90006f          	j	156ac <_fwalk>

00014db8 <_malloc_trim_r>:
   14db8:	fe010113          	addi	sp,sp,-32
   14dbc:	00812c23          	sw	s0,24(sp)
   14dc0:	00912a23          	sw	s1,20(sp)
   14dc4:	01212823          	sw	s2,16(sp)
   14dc8:	01312623          	sw	s3,12(sp)
   14dcc:	00058413          	mv	s0,a1
   14dd0:	00112e23          	sw	ra,28(sp)
   14dd4:	00013997          	auipc	s3,0x13
   14dd8:	8f098993          	addi	s3,s3,-1808 # 276c4 <__malloc_av_>
   14ddc:	00050913          	mv	s2,a0
   14de0:	3a8040ef          	jal	ra,19188 <__malloc_lock>
   14de4:	0089a683          	lw	a3,8(s3)
   14de8:	00001737          	lui	a4,0x1
   14dec:	fef70793          	addi	a5,a4,-17 # fef <threadsense.2617+0xfef>
   14df0:	0046a483          	lw	s1,4(a3)
   14df4:	40878433          	sub	s0,a5,s0
   14df8:	ffc4f493          	andi	s1,s1,-4
   14dfc:	00940433          	add	s0,s0,s1
   14e00:	00c45413          	srli	s0,s0,0xc
   14e04:	fff40413          	addi	s0,s0,-1
   14e08:	00c41413          	slli	s0,s0,0xc
   14e0c:	00e44e63          	blt	s0,a4,14e28 <_malloc_trim_r+0x70>
   14e10:	00000593          	li	a1,0
   14e14:	00090513          	mv	a0,s2
   14e18:	15d050ef          	jal	ra,1a774 <_sbrk_r>
   14e1c:	0089a783          	lw	a5,8(s3)
   14e20:	009787b3          	add	a5,a5,s1
   14e24:	02f50663          	beq	a0,a5,14e50 <_malloc_trim_r+0x98>
   14e28:	00090513          	mv	a0,s2
   14e2c:	360040ef          	jal	ra,1918c <__malloc_unlock>
   14e30:	01c12083          	lw	ra,28(sp)
   14e34:	01812403          	lw	s0,24(sp)
   14e38:	01412483          	lw	s1,20(sp)
   14e3c:	01012903          	lw	s2,16(sp)
   14e40:	00c12983          	lw	s3,12(sp)
   14e44:	00000513          	li	a0,0
   14e48:	02010113          	addi	sp,sp,32
   14e4c:	00008067          	ret
   14e50:	408005b3          	neg	a1,s0
   14e54:	00090513          	mv	a0,s2
   14e58:	11d050ef          	jal	ra,1a774 <_sbrk_r>
   14e5c:	fff00793          	li	a5,-1
   14e60:	04f50663          	beq	a0,a5,14eac <_malloc_trim_r+0xf4>
   14e64:	86018793          	addi	a5,gp,-1952 # 27b30 <__malloc_current_mallinfo>
   14e68:	0007a783          	lw	a5,0(a5)
   14e6c:	0089a703          	lw	a4,8(s3)
   14e70:	408484b3          	sub	s1,s1,s0
   14e74:	0014e493          	ori	s1,s1,1
   14e78:	40878433          	sub	s0,a5,s0
   14e7c:	00090513          	mv	a0,s2
   14e80:	00972223          	sw	s1,4(a4)
   14e84:	8681a023          	sw	s0,-1952(gp) # 27b30 <__malloc_current_mallinfo>
   14e88:	304040ef          	jal	ra,1918c <__malloc_unlock>
   14e8c:	01c12083          	lw	ra,28(sp)
   14e90:	01812403          	lw	s0,24(sp)
   14e94:	01412483          	lw	s1,20(sp)
   14e98:	01012903          	lw	s2,16(sp)
   14e9c:	00c12983          	lw	s3,12(sp)
   14ea0:	00100513          	li	a0,1
   14ea4:	02010113          	addi	sp,sp,32
   14ea8:	00008067          	ret
   14eac:	00000593          	li	a1,0
   14eb0:	00090513          	mv	a0,s2
   14eb4:	0c1050ef          	jal	ra,1a774 <_sbrk_r>
   14eb8:	0089a703          	lw	a4,8(s3)
   14ebc:	00f00693          	li	a3,15
   14ec0:	40e507b3          	sub	a5,a0,a4
   14ec4:	f6f6d2e3          	bge	a3,a5,14e28 <_malloc_trim_r+0x70>
   14ec8:	82018693          	addi	a3,gp,-2016 # 27af0 <__malloc_sbrk_base>
   14ecc:	0006a683          	lw	a3,0(a3)
   14ed0:	0017e793          	ori	a5,a5,1
   14ed4:	00f72223          	sw	a5,4(a4)
   14ed8:	40d50533          	sub	a0,a0,a3
   14edc:	86a1a023          	sw	a0,-1952(gp) # 27b30 <__malloc_current_mallinfo>
   14ee0:	f49ff06f          	j	14e28 <_malloc_trim_r+0x70>

00014ee4 <_free_r>:
   14ee4:	12058e63          	beqz	a1,15020 <_free_r+0x13c>
   14ee8:	ff010113          	addi	sp,sp,-16
   14eec:	00812423          	sw	s0,8(sp)
   14ef0:	00912223          	sw	s1,4(sp)
   14ef4:	00058413          	mv	s0,a1
   14ef8:	00050493          	mv	s1,a0
   14efc:	00112623          	sw	ra,12(sp)
   14f00:	288040ef          	jal	ra,19188 <__malloc_lock>
   14f04:	ffc42583          	lw	a1,-4(s0)
   14f08:	ff840713          	addi	a4,s0,-8
   14f0c:	00012517          	auipc	a0,0x12
   14f10:	7b850513          	addi	a0,a0,1976 # 276c4 <__malloc_av_>
   14f14:	ffe5f793          	andi	a5,a1,-2
   14f18:	00f70633          	add	a2,a4,a5
   14f1c:	00462683          	lw	a3,4(a2)
   14f20:	00852803          	lw	a6,8(a0)
   14f24:	ffc6f693          	andi	a3,a3,-4
   14f28:	1ac80463          	beq	a6,a2,150d0 <_free_r+0x1ec>
   14f2c:	00d62223          	sw	a3,4(a2)
   14f30:	0015f593          	andi	a1,a1,1
   14f34:	00d60833          	add	a6,a2,a3
   14f38:	0a059463          	bnez	a1,14fe0 <_free_r+0xfc>
   14f3c:	ff842303          	lw	t1,-8(s0)
   14f40:	00482583          	lw	a1,4(a6)
   14f44:	00012897          	auipc	a7,0x12
   14f48:	78888893          	addi	a7,a7,1928 # 276cc <__malloc_av_+0x8>
   14f4c:	40670733          	sub	a4,a4,t1
   14f50:	00872803          	lw	a6,8(a4)
   14f54:	006787b3          	add	a5,a5,t1
   14f58:	0015f593          	andi	a1,a1,1
   14f5c:	15180463          	beq	a6,a7,150a4 <_free_r+0x1c0>
   14f60:	00c72303          	lw	t1,12(a4)
   14f64:	00682623          	sw	t1,12(a6)
   14f68:	01032423          	sw	a6,8(t1)
   14f6c:	1e058063          	beqz	a1,1514c <_free_r+0x268>
   14f70:	0017e693          	ori	a3,a5,1
   14f74:	00d72223          	sw	a3,4(a4)
   14f78:	00f62023          	sw	a5,0(a2)
   14f7c:	1ff00693          	li	a3,511
   14f80:	0af6ec63          	bltu	a3,a5,15038 <_free_r+0x154>
   14f84:	0037d793          	srli	a5,a5,0x3
   14f88:	00178693          	addi	a3,a5,1
   14f8c:	00369693          	slli	a3,a3,0x3
   14f90:	00452583          	lw	a1,4(a0)
   14f94:	00d50533          	add	a0,a0,a3
   14f98:	00052603          	lw	a2,0(a0)
   14f9c:	4027d693          	srai	a3,a5,0x2
   14fa0:	00100793          	li	a5,1
   14fa4:	00d797b3          	sll	a5,a5,a3
   14fa8:	00b7e7b3          	or	a5,a5,a1
   14fac:	ff850693          	addi	a3,a0,-8
   14fb0:	00d72623          	sw	a3,12(a4)
   14fb4:	00c72423          	sw	a2,8(a4)
   14fb8:	00012697          	auipc	a3,0x12
   14fbc:	70f6a823          	sw	a5,1808(a3) # 276c8 <__malloc_av_+0x4>
   14fc0:	00e52023          	sw	a4,0(a0)
   14fc4:	00e62623          	sw	a4,12(a2)
   14fc8:	00812403          	lw	s0,8(sp)
   14fcc:	00c12083          	lw	ra,12(sp)
   14fd0:	00048513          	mv	a0,s1
   14fd4:	00412483          	lw	s1,4(sp)
   14fd8:	01010113          	addi	sp,sp,16
   14fdc:	1b00406f          	j	1918c <__malloc_unlock>
   14fe0:	00482583          	lw	a1,4(a6)
   14fe4:	0015f593          	andi	a1,a1,1
   14fe8:	02059e63          	bnez	a1,15024 <_free_r+0x140>
   14fec:	00d787b3          	add	a5,a5,a3
   14ff0:	00012897          	auipc	a7,0x12
   14ff4:	6dc88893          	addi	a7,a7,1756 # 276cc <__malloc_av_+0x8>
   14ff8:	00862683          	lw	a3,8(a2)
   14ffc:	0017e813          	ori	a6,a5,1
   15000:	00f705b3          	add	a1,a4,a5
   15004:	17168063          	beq	a3,a7,15164 <_free_r+0x280>
   15008:	00c62603          	lw	a2,12(a2)
   1500c:	00c6a623          	sw	a2,12(a3)
   15010:	00d62423          	sw	a3,8(a2)
   15014:	01072223          	sw	a6,4(a4)
   15018:	00f5a023          	sw	a5,0(a1)
   1501c:	f61ff06f          	j	14f7c <_free_r+0x98>
   15020:	00008067          	ret
   15024:	0017e693          	ori	a3,a5,1
   15028:	fed42e23          	sw	a3,-4(s0)
   1502c:	00f62023          	sw	a5,0(a2)
   15030:	1ff00693          	li	a3,511
   15034:	f4f6f8e3          	bgeu	a3,a5,14f84 <_free_r+0xa0>
   15038:	0097d693          	srli	a3,a5,0x9
   1503c:	00400613          	li	a2,4
   15040:	0ed66463          	bltu	a2,a3,15128 <_free_r+0x244>
   15044:	0067d693          	srli	a3,a5,0x6
   15048:	03968593          	addi	a1,a3,57
   1504c:	03868613          	addi	a2,a3,56
   15050:	00359593          	slli	a1,a1,0x3
   15054:	00b505b3          	add	a1,a0,a1
   15058:	0005a683          	lw	a3,0(a1)
   1505c:	ff858593          	addi	a1,a1,-8
   15060:	12d58463          	beq	a1,a3,15188 <_free_r+0x2a4>
   15064:	0046a603          	lw	a2,4(a3)
   15068:	ffc67613          	andi	a2,a2,-4
   1506c:	00c7f663          	bgeu	a5,a2,15078 <_free_r+0x194>
   15070:	0086a683          	lw	a3,8(a3)
   15074:	fed598e3          	bne	a1,a3,15064 <_free_r+0x180>
   15078:	00c6a583          	lw	a1,12(a3)
   1507c:	00b72623          	sw	a1,12(a4)
   15080:	00d72423          	sw	a3,8(a4)
   15084:	00812403          	lw	s0,8(sp)
   15088:	00e5a423          	sw	a4,8(a1)
   1508c:	00c12083          	lw	ra,12(sp)
   15090:	00048513          	mv	a0,s1
   15094:	00412483          	lw	s1,4(sp)
   15098:	00e6a623          	sw	a4,12(a3)
   1509c:	01010113          	addi	sp,sp,16
   150a0:	0ec0406f          	j	1918c <__malloc_unlock>
   150a4:	14059463          	bnez	a1,151ec <_free_r+0x308>
   150a8:	00862583          	lw	a1,8(a2)
   150ac:	00c62603          	lw	a2,12(a2)
   150b0:	00f687b3          	add	a5,a3,a5
   150b4:	0017e693          	ori	a3,a5,1
   150b8:	00c5a623          	sw	a2,12(a1)
   150bc:	00b62423          	sw	a1,8(a2)
   150c0:	00d72223          	sw	a3,4(a4)
   150c4:	00f70733          	add	a4,a4,a5
   150c8:	00f72023          	sw	a5,0(a4)
   150cc:	efdff06f          	j	14fc8 <_free_r+0xe4>
   150d0:	0015f593          	andi	a1,a1,1
   150d4:	00d787b3          	add	a5,a5,a3
   150d8:	02059063          	bnez	a1,150f8 <_free_r+0x214>
   150dc:	ff842583          	lw	a1,-8(s0)
   150e0:	40b70733          	sub	a4,a4,a1
   150e4:	00c72683          	lw	a3,12(a4)
   150e8:	00872603          	lw	a2,8(a4)
   150ec:	00b787b3          	add	a5,a5,a1
   150f0:	00d62623          	sw	a3,12(a2)
   150f4:	00c6a423          	sw	a2,8(a3)
   150f8:	82418693          	addi	a3,gp,-2012 # 27af4 <__malloc_trim_threshold>
   150fc:	0017e613          	ori	a2,a5,1
   15100:	0006a683          	lw	a3,0(a3)
   15104:	00c72223          	sw	a2,4(a4)
   15108:	00012617          	auipc	a2,0x12
   1510c:	5ce62223          	sw	a4,1476(a2) # 276cc <__malloc_av_+0x8>
   15110:	ead7ece3          	bltu	a5,a3,14fc8 <_free_r+0xe4>
   15114:	83018793          	addi	a5,gp,-2000 # 27b00 <__malloc_top_pad>
   15118:	0007a583          	lw	a1,0(a5)
   1511c:	00048513          	mv	a0,s1
   15120:	c99ff0ef          	jal	ra,14db8 <_malloc_trim_r>
   15124:	ea5ff06f          	j	14fc8 <_free_r+0xe4>
   15128:	01400613          	li	a2,20
   1512c:	02d67463          	bgeu	a2,a3,15154 <_free_r+0x270>
   15130:	05400613          	li	a2,84
   15134:	06d66a63          	bltu	a2,a3,151a8 <_free_r+0x2c4>
   15138:	00c7d693          	srli	a3,a5,0xc
   1513c:	06f68593          	addi	a1,a3,111
   15140:	06e68613          	addi	a2,a3,110
   15144:	00359593          	slli	a1,a1,0x3
   15148:	f0dff06f          	j	15054 <_free_r+0x170>
   1514c:	00d787b3          	add	a5,a5,a3
   15150:	ea9ff06f          	j	14ff8 <_free_r+0x114>
   15154:	05c68593          	addi	a1,a3,92
   15158:	05b68613          	addi	a2,a3,91
   1515c:	00359593          	slli	a1,a1,0x3
   15160:	ef5ff06f          	j	15054 <_free_r+0x170>
   15164:	00012697          	auipc	a3,0x12
   15168:	56e6aa23          	sw	a4,1396(a3) # 276d8 <__malloc_av_+0x14>
   1516c:	00012697          	auipc	a3,0x12
   15170:	56e6a423          	sw	a4,1384(a3) # 276d4 <__malloc_av_+0x10>
   15174:	01172623          	sw	a7,12(a4)
   15178:	01172423          	sw	a7,8(a4)
   1517c:	01072223          	sw	a6,4(a4)
   15180:	00f5a023          	sw	a5,0(a1)
   15184:	e45ff06f          	j	14fc8 <_free_r+0xe4>
   15188:	00452503          	lw	a0,4(a0)
   1518c:	00100793          	li	a5,1
   15190:	40265613          	srai	a2,a2,0x2
   15194:	00c79633          	sll	a2,a5,a2
   15198:	00a66633          	or	a2,a2,a0
   1519c:	00012797          	auipc	a5,0x12
   151a0:	52c7a623          	sw	a2,1324(a5) # 276c8 <__malloc_av_+0x4>
   151a4:	ed9ff06f          	j	1507c <_free_r+0x198>
   151a8:	15400613          	li	a2,340
   151ac:	00d66c63          	bltu	a2,a3,151c4 <_free_r+0x2e0>
   151b0:	00f7d693          	srli	a3,a5,0xf
   151b4:	07868593          	addi	a1,a3,120
   151b8:	07768613          	addi	a2,a3,119
   151bc:	00359593          	slli	a1,a1,0x3
   151c0:	e95ff06f          	j	15054 <_free_r+0x170>
   151c4:	55400613          	li	a2,1364
   151c8:	00d66c63          	bltu	a2,a3,151e0 <_free_r+0x2fc>
   151cc:	0127d693          	srli	a3,a5,0x12
   151d0:	07d68593          	addi	a1,a3,125
   151d4:	07c68613          	addi	a2,a3,124
   151d8:	00359593          	slli	a1,a1,0x3
   151dc:	e79ff06f          	j	15054 <_free_r+0x170>
   151e0:	3f800593          	li	a1,1016
   151e4:	07e00613          	li	a2,126
   151e8:	e6dff06f          	j	15054 <_free_r+0x170>
   151ec:	0017e693          	ori	a3,a5,1
   151f0:	00d72223          	sw	a3,4(a4)
   151f4:	00f62023          	sw	a5,0(a2)
   151f8:	dd1ff06f          	j	14fc8 <_free_r+0xe4>

000151fc <__sfvwrite_r>:
   151fc:	00862783          	lw	a5,8(a2)
   15200:	34078263          	beqz	a5,15544 <__sfvwrite_r+0x348>
   15204:	00c5d783          	lhu	a5,12(a1)
   15208:	fd010113          	addi	sp,sp,-48
   1520c:	02812423          	sw	s0,40(sp)
   15210:	01412c23          	sw	s4,24(sp)
   15214:	01512a23          	sw	s5,20(sp)
   15218:	02112623          	sw	ra,44(sp)
   1521c:	02912223          	sw	s1,36(sp)
   15220:	03212023          	sw	s2,32(sp)
   15224:	01312e23          	sw	s3,28(sp)
   15228:	01612823          	sw	s6,16(sp)
   1522c:	01712623          	sw	s7,12(sp)
   15230:	01812423          	sw	s8,8(sp)
   15234:	01912223          	sw	s9,4(sp)
   15238:	01a12023          	sw	s10,0(sp)
   1523c:	0087f713          	andi	a4,a5,8
   15240:	00058413          	mv	s0,a1
   15244:	00050a93          	mv	s5,a0
   15248:	00060a13          	mv	s4,a2
   1524c:	08070a63          	beqz	a4,152e0 <__sfvwrite_r+0xe4>
   15250:	0105a703          	lw	a4,16(a1)
   15254:	08070663          	beqz	a4,152e0 <__sfvwrite_r+0xe4>
   15258:	0027f713          	andi	a4,a5,2
   1525c:	000a2483          	lw	s1,0(s4)
   15260:	0a070063          	beqz	a4,15300 <__sfvwrite_r+0x104>
   15264:	02442703          	lw	a4,36(s0)
   15268:	01c42783          	lw	a5,28(s0)
   1526c:	80000b37          	lui	s6,0x80000
   15270:	00000993          	li	s3,0
   15274:	00000913          	li	s2,0
   15278:	c00b4b13          	xori	s6,s6,-1024
   1527c:	00098613          	mv	a2,s3
   15280:	00078593          	mv	a1,a5
   15284:	000a8513          	mv	a0,s5
   15288:	04090463          	beqz	s2,152d0 <__sfvwrite_r+0xd4>
   1528c:	00090693          	mv	a3,s2
   15290:	012b7463          	bgeu	s6,s2,15298 <__sfvwrite_r+0x9c>
   15294:	000b0693          	mv	a3,s6
   15298:	000700e7          	jalr	a4
   1529c:	28a05a63          	blez	a0,15530 <__sfvwrite_r+0x334>
   152a0:	008a2783          	lw	a5,8(s4)
   152a4:	00a989b3          	add	s3,s3,a0
   152a8:	40a90933          	sub	s2,s2,a0
   152ac:	40a78533          	sub	a0,a5,a0
   152b0:	00aa2423          	sw	a0,8(s4)
   152b4:	20050c63          	beqz	a0,154cc <__sfvwrite_r+0x2d0>
   152b8:	01c42783          	lw	a5,28(s0)
   152bc:	02442703          	lw	a4,36(s0)
   152c0:	00098613          	mv	a2,s3
   152c4:	00078593          	mv	a1,a5
   152c8:	000a8513          	mv	a0,s5
   152cc:	fc0910e3          	bnez	s2,1528c <__sfvwrite_r+0x90>
   152d0:	0004a983          	lw	s3,0(s1)
   152d4:	0044a903          	lw	s2,4(s1)
   152d8:	00848493          	addi	s1,s1,8
   152dc:	fa1ff06f          	j	1527c <__sfvwrite_r+0x80>
   152e0:	00040593          	mv	a1,s0
   152e4:	000a8513          	mv	a0,s5
   152e8:	960ff0ef          	jal	ra,14448 <__swsetup_r>
   152ec:	3a051c63          	bnez	a0,156a4 <__sfvwrite_r+0x4a8>
   152f0:	00c45783          	lhu	a5,12(s0)
   152f4:	000a2483          	lw	s1,0(s4)
   152f8:	0027f713          	andi	a4,a5,2
   152fc:	f60714e3          	bnez	a4,15264 <__sfvwrite_r+0x68>
   15300:	0017f713          	andi	a4,a5,1
   15304:	24071463          	bnez	a4,1554c <__sfvwrite_r+0x350>
   15308:	00842c83          	lw	s9,8(s0)
   1530c:	00042503          	lw	a0,0(s0)
   15310:	80000bb7          	lui	s7,0x80000
   15314:	ffebcc13          	xori	s8,s7,-2
   15318:	00000b13          	li	s6,0
   1531c:	00000913          	li	s2,0
   15320:	fffbcb93          	not	s7,s7
   15324:	0e090e63          	beqz	s2,15420 <__sfvwrite_r+0x224>
   15328:	2007f713          	andi	a4,a5,512
   1532c:	24070c63          	beqz	a4,15584 <__sfvwrite_r+0x388>
   15330:	000c8d13          	mv	s10,s9
   15334:	2f996263          	bltu	s2,s9,15618 <__sfvwrite_r+0x41c>
   15338:	4807f713          	andi	a4,a5,1152
   1533c:	08070a63          	beqz	a4,153d0 <__sfvwrite_r+0x1d4>
   15340:	01442683          	lw	a3,20(s0)
   15344:	01042583          	lw	a1,16(s0)
   15348:	00190713          	addi	a4,s2,1
   1534c:	00169993          	slli	s3,a3,0x1
   15350:	00d986b3          	add	a3,s3,a3
   15354:	01f6d993          	srli	s3,a3,0x1f
   15358:	40b50cb3          	sub	s9,a0,a1
   1535c:	00d989b3          	add	s3,s3,a3
   15360:	4019d993          	srai	s3,s3,0x1
   15364:	01970733          	add	a4,a4,s9
   15368:	00098613          	mv	a2,s3
   1536c:	00e9f663          	bgeu	s3,a4,15378 <__sfvwrite_r+0x17c>
   15370:	00070993          	mv	s3,a4
   15374:	00070613          	mv	a2,a4
   15378:	4007f793          	andi	a5,a5,1024
   1537c:	2e078463          	beqz	a5,15664 <__sfvwrite_r+0x468>
   15380:	00060593          	mv	a1,a2
   15384:	000a8513          	mv	a0,s5
   15388:	268030ef          	jal	ra,185f0 <_malloc_r>
   1538c:	00050d13          	mv	s10,a0
   15390:	30050263          	beqz	a0,15694 <__sfvwrite_r+0x498>
   15394:	01042583          	lw	a1,16(s0)
   15398:	000c8613          	mv	a2,s9
   1539c:	3b1030ef          	jal	ra,18f4c <memcpy>
   153a0:	00c45783          	lhu	a5,12(s0)
   153a4:	b7f7f793          	andi	a5,a5,-1153
   153a8:	0807e793          	ori	a5,a5,128
   153ac:	00f41623          	sh	a5,12(s0)
   153b0:	019d0533          	add	a0,s10,s9
   153b4:	419987b3          	sub	a5,s3,s9
   153b8:	01a42823          	sw	s10,16(s0)
   153bc:	00a42023          	sw	a0,0(s0)
   153c0:	01342a23          	sw	s3,20(s0)
   153c4:	00090c93          	mv	s9,s2
   153c8:	00f42423          	sw	a5,8(s0)
   153cc:	00090d13          	mv	s10,s2
   153d0:	000d0613          	mv	a2,s10
   153d4:	000b0593          	mv	a1,s6
   153d8:	491030ef          	jal	ra,19068 <memmove>
   153dc:	00842783          	lw	a5,8(s0)
   153e0:	00042603          	lw	a2,0(s0)
   153e4:	00090993          	mv	s3,s2
   153e8:	41978cb3          	sub	s9,a5,s9
   153ec:	01a60633          	add	a2,a2,s10
   153f0:	01942423          	sw	s9,8(s0)
   153f4:	00c42023          	sw	a2,0(s0)
   153f8:	00000913          	li	s2,0
   153fc:	008a2783          	lw	a5,8(s4)
   15400:	013b0b33          	add	s6,s6,s3
   15404:	413789b3          	sub	s3,a5,s3
   15408:	013a2423          	sw	s3,8(s4)
   1540c:	0c098063          	beqz	s3,154cc <__sfvwrite_r+0x2d0>
   15410:	00842c83          	lw	s9,8(s0)
   15414:	00042503          	lw	a0,0(s0)
   15418:	00c45783          	lhu	a5,12(s0)
   1541c:	f00916e3          	bnez	s2,15328 <__sfvwrite_r+0x12c>
   15420:	0004ab03          	lw	s6,0(s1)
   15424:	0044a903          	lw	s2,4(s1)
   15428:	00848493          	addi	s1,s1,8
   1542c:	ef9ff06f          	j	15324 <__sfvwrite_r+0x128>
   15430:	0044a983          	lw	s3,4(s1)
   15434:	0004ab83          	lw	s7,0(s1)
   15438:	00848493          	addi	s1,s1,8
   1543c:	fe098ae3          	beqz	s3,15430 <__sfvwrite_r+0x234>
   15440:	00098613          	mv	a2,s3
   15444:	00a00593          	li	a1,10
   15448:	000b8513          	mv	a0,s7
   1544c:	225030ef          	jal	ra,18e70 <memchr>
   15450:	12050463          	beqz	a0,15578 <__sfvwrite_r+0x37c>
   15454:	00150513          	addi	a0,a0,1
   15458:	41750b33          	sub	s6,a0,s7
   1545c:	000b0793          	mv	a5,s6
   15460:	00098c13          	mv	s8,s3
   15464:	0137f463          	bgeu	a5,s3,1546c <__sfvwrite_r+0x270>
   15468:	00078c13          	mv	s8,a5
   1546c:	00042503          	lw	a0,0(s0)
   15470:	01042783          	lw	a5,16(s0)
   15474:	01442683          	lw	a3,20(s0)
   15478:	00a7f863          	bgeu	a5,a0,15488 <__sfvwrite_r+0x28c>
   1547c:	00842903          	lw	s2,8(s0)
   15480:	01268933          	add	s2,a3,s2
   15484:	09894263          	blt	s2,s8,15508 <__sfvwrite_r+0x30c>
   15488:	1adc4863          	blt	s8,a3,15638 <__sfvwrite_r+0x43c>
   1548c:	02442783          	lw	a5,36(s0)
   15490:	01c42583          	lw	a1,28(s0)
   15494:	000b8613          	mv	a2,s7
   15498:	000a8513          	mv	a0,s5
   1549c:	000780e7          	jalr	a5
   154a0:	00050913          	mv	s2,a0
   154a4:	08a05663          	blez	a0,15530 <__sfvwrite_r+0x334>
   154a8:	412b0b33          	sub	s6,s6,s2
   154ac:	00100513          	li	a0,1
   154b0:	160b0a63          	beqz	s6,15624 <__sfvwrite_r+0x428>
   154b4:	008a2783          	lw	a5,8(s4)
   154b8:	012b8bb3          	add	s7,s7,s2
   154bc:	412989b3          	sub	s3,s3,s2
   154c0:	41278933          	sub	s2,a5,s2
   154c4:	012a2423          	sw	s2,8(s4)
   154c8:	08091a63          	bnez	s2,1555c <__sfvwrite_r+0x360>
   154cc:	00000513          	li	a0,0
   154d0:	02c12083          	lw	ra,44(sp)
   154d4:	02812403          	lw	s0,40(sp)
   154d8:	02412483          	lw	s1,36(sp)
   154dc:	02012903          	lw	s2,32(sp)
   154e0:	01c12983          	lw	s3,28(sp)
   154e4:	01812a03          	lw	s4,24(sp)
   154e8:	01412a83          	lw	s5,20(sp)
   154ec:	01012b03          	lw	s6,16(sp)
   154f0:	00c12b83          	lw	s7,12(sp)
   154f4:	00812c03          	lw	s8,8(sp)
   154f8:	00412c83          	lw	s9,4(sp)
   154fc:	00012d03          	lw	s10,0(sp)
   15500:	03010113          	addi	sp,sp,48
   15504:	00008067          	ret
   15508:	000b8593          	mv	a1,s7
   1550c:	00090613          	mv	a2,s2
   15510:	359030ef          	jal	ra,19068 <memmove>
   15514:	00042783          	lw	a5,0(s0)
   15518:	00040593          	mv	a1,s0
   1551c:	000a8513          	mv	a0,s5
   15520:	012787b3          	add	a5,a5,s2
   15524:	00f42023          	sw	a5,0(s0)
   15528:	c9cff0ef          	jal	ra,149c4 <_fflush_r>
   1552c:	f6050ee3          	beqz	a0,154a8 <__sfvwrite_r+0x2ac>
   15530:	00c41783          	lh	a5,12(s0)
   15534:	0407e793          	ori	a5,a5,64
   15538:	00f41623          	sh	a5,12(s0)
   1553c:	fff00513          	li	a0,-1
   15540:	f91ff06f          	j	154d0 <__sfvwrite_r+0x2d4>
   15544:	00000513          	li	a0,0
   15548:	00008067          	ret
   1554c:	00000b13          	li	s6,0
   15550:	00000513          	li	a0,0
   15554:	00000b93          	li	s7,0
   15558:	00000993          	li	s3,0
   1555c:	ec098ae3          	beqz	s3,15430 <__sfvwrite_r+0x234>
   15560:	ee051ee3          	bnez	a0,1545c <__sfvwrite_r+0x260>
   15564:	00098613          	mv	a2,s3
   15568:	00a00593          	li	a1,10
   1556c:	000b8513          	mv	a0,s7
   15570:	101030ef          	jal	ra,18e70 <memchr>
   15574:	ee0510e3          	bnez	a0,15454 <__sfvwrite_r+0x258>
   15578:	00198793          	addi	a5,s3,1
   1557c:	00078b13          	mv	s6,a5
   15580:	ee1ff06f          	j	15460 <__sfvwrite_r+0x264>
   15584:	01042783          	lw	a5,16(s0)
   15588:	04a7e263          	bltu	a5,a0,155cc <__sfvwrite_r+0x3d0>
   1558c:	01442783          	lw	a5,20(s0)
   15590:	02f96e63          	bltu	s2,a5,155cc <__sfvwrite_r+0x3d0>
   15594:	00090693          	mv	a3,s2
   15598:	012c7463          	bgeu	s8,s2,155a0 <__sfvwrite_r+0x3a4>
   1559c:	000b8693          	mv	a3,s7
   155a0:	02f6c6b3          	div	a3,a3,a5
   155a4:	02442703          	lw	a4,36(s0)
   155a8:	01c42583          	lw	a1,28(s0)
   155ac:	000b0613          	mv	a2,s6
   155b0:	000a8513          	mv	a0,s5
   155b4:	02f686b3          	mul	a3,a3,a5
   155b8:	000700e7          	jalr	a4
   155bc:	f6a05ae3          	blez	a0,15530 <__sfvwrite_r+0x334>
   155c0:	00050993          	mv	s3,a0
   155c4:	41390933          	sub	s2,s2,s3
   155c8:	e35ff06f          	j	153fc <__sfvwrite_r+0x200>
   155cc:	000c8993          	mv	s3,s9
   155d0:	01997463          	bgeu	s2,s9,155d8 <__sfvwrite_r+0x3dc>
   155d4:	00090993          	mv	s3,s2
   155d8:	00098613          	mv	a2,s3
   155dc:	000b0593          	mv	a1,s6
   155e0:	289030ef          	jal	ra,19068 <memmove>
   155e4:	00842783          	lw	a5,8(s0)
   155e8:	00042703          	lw	a4,0(s0)
   155ec:	413787b3          	sub	a5,a5,s3
   155f0:	01370733          	add	a4,a4,s3
   155f4:	00f42423          	sw	a5,8(s0)
   155f8:	00e42023          	sw	a4,0(s0)
   155fc:	fc0794e3          	bnez	a5,155c4 <__sfvwrite_r+0x3c8>
   15600:	00040593          	mv	a1,s0
   15604:	000a8513          	mv	a0,s5
   15608:	bbcff0ef          	jal	ra,149c4 <_fflush_r>
   1560c:	f20512e3          	bnez	a0,15530 <__sfvwrite_r+0x334>
   15610:	41390933          	sub	s2,s2,s3
   15614:	de9ff06f          	j	153fc <__sfvwrite_r+0x200>
   15618:	00090c93          	mv	s9,s2
   1561c:	00090d13          	mv	s10,s2
   15620:	db1ff06f          	j	153d0 <__sfvwrite_r+0x1d4>
   15624:	00040593          	mv	a1,s0
   15628:	000a8513          	mv	a0,s5
   1562c:	b98ff0ef          	jal	ra,149c4 <_fflush_r>
   15630:	e80502e3          	beqz	a0,154b4 <__sfvwrite_r+0x2b8>
   15634:	efdff06f          	j	15530 <__sfvwrite_r+0x334>
   15638:	000c0613          	mv	a2,s8
   1563c:	000b8593          	mv	a1,s7
   15640:	229030ef          	jal	ra,19068 <memmove>
   15644:	00842703          	lw	a4,8(s0)
   15648:	00042783          	lw	a5,0(s0)
   1564c:	000c0913          	mv	s2,s8
   15650:	41870733          	sub	a4,a4,s8
   15654:	01878c33          	add	s8,a5,s8
   15658:	00e42423          	sw	a4,8(s0)
   1565c:	01842023          	sw	s8,0(s0)
   15660:	e49ff06f          	j	154a8 <__sfvwrite_r+0x2ac>
   15664:	000a8513          	mv	a0,s5
   15668:	331040ef          	jal	ra,1a198 <_realloc_r>
   1566c:	00050d13          	mv	s10,a0
   15670:	d40510e3          	bnez	a0,153b0 <__sfvwrite_r+0x1b4>
   15674:	01042583          	lw	a1,16(s0)
   15678:	000a8513          	mv	a0,s5
   1567c:	869ff0ef          	jal	ra,14ee4 <_free_r>
   15680:	00c41783          	lh	a5,12(s0)
   15684:	00c00713          	li	a4,12
   15688:	00eaa023          	sw	a4,0(s5)
   1568c:	f7f7f793          	andi	a5,a5,-129
   15690:	ea5ff06f          	j	15534 <__sfvwrite_r+0x338>
   15694:	00c00793          	li	a5,12
   15698:	00faa023          	sw	a5,0(s5)
   1569c:	00c41783          	lh	a5,12(s0)
   156a0:	e95ff06f          	j	15534 <__sfvwrite_r+0x338>
   156a4:	fff00513          	li	a0,-1
   156a8:	e29ff06f          	j	154d0 <__sfvwrite_r+0x2d4>

000156ac <_fwalk>:
   156ac:	fe010113          	addi	sp,sp,-32
   156b0:	01512223          	sw	s5,4(sp)
   156b4:	00112e23          	sw	ra,28(sp)
   156b8:	00812c23          	sw	s0,24(sp)
   156bc:	00912a23          	sw	s1,20(sp)
   156c0:	01212823          	sw	s2,16(sp)
   156c4:	01312623          	sw	s3,12(sp)
   156c8:	01412423          	sw	s4,8(sp)
   156cc:	01612023          	sw	s6,0(sp)
   156d0:	2e050a93          	addi	s5,a0,736
   156d4:	080a8063          	beqz	s5,15754 <_fwalk+0xa8>
   156d8:	00058b13          	mv	s6,a1
   156dc:	00000a13          	li	s4,0
   156e0:	00100993          	li	s3,1
   156e4:	fff00913          	li	s2,-1
   156e8:	004aa483          	lw	s1,4(s5)
   156ec:	008aa403          	lw	s0,8(s5)
   156f0:	fff48493          	addi	s1,s1,-1
   156f4:	0204c663          	bltz	s1,15720 <_fwalk+0x74>
   156f8:	00c45783          	lhu	a5,12(s0)
   156fc:	fff48493          	addi	s1,s1,-1
   15700:	00f9fc63          	bgeu	s3,a5,15718 <_fwalk+0x6c>
   15704:	00e41783          	lh	a5,14(s0)
   15708:	00040513          	mv	a0,s0
   1570c:	01278663          	beq	a5,s2,15718 <_fwalk+0x6c>
   15710:	000b00e7          	jalr	s6 # 80000000 <__global_pointer$+0x7ffd7d30>
   15714:	00aa6a33          	or	s4,s4,a0
   15718:	06840413          	addi	s0,s0,104
   1571c:	fd249ee3          	bne	s1,s2,156f8 <_fwalk+0x4c>
   15720:	000aaa83          	lw	s5,0(s5)
   15724:	fc0a92e3          	bnez	s5,156e8 <_fwalk+0x3c>
   15728:	01c12083          	lw	ra,28(sp)
   1572c:	01812403          	lw	s0,24(sp)
   15730:	000a0513          	mv	a0,s4
   15734:	01412483          	lw	s1,20(sp)
   15738:	01012903          	lw	s2,16(sp)
   1573c:	00c12983          	lw	s3,12(sp)
   15740:	00812a03          	lw	s4,8(sp)
   15744:	00412a83          	lw	s5,4(sp)
   15748:	00012b03          	lw	s6,0(sp)
   1574c:	02010113          	addi	sp,sp,32
   15750:	00008067          	ret
   15754:	00000a13          	li	s4,0
   15758:	fd1ff06f          	j	15728 <_fwalk+0x7c>

0001575c <_fwalk_reent>:
   1575c:	fd010113          	addi	sp,sp,-48
   15760:	01512a23          	sw	s5,20(sp)
   15764:	02112623          	sw	ra,44(sp)
   15768:	02812423          	sw	s0,40(sp)
   1576c:	02912223          	sw	s1,36(sp)
   15770:	03212023          	sw	s2,32(sp)
   15774:	01312e23          	sw	s3,28(sp)
   15778:	01412c23          	sw	s4,24(sp)
   1577c:	01612823          	sw	s6,16(sp)
   15780:	01712623          	sw	s7,12(sp)
   15784:	2e050a93          	addi	s5,a0,736
   15788:	080a8663          	beqz	s5,15814 <_fwalk_reent+0xb8>
   1578c:	00058b93          	mv	s7,a1
   15790:	00050b13          	mv	s6,a0
   15794:	00000a13          	li	s4,0
   15798:	00100993          	li	s3,1
   1579c:	fff00913          	li	s2,-1
   157a0:	004aa483          	lw	s1,4(s5)
   157a4:	008aa403          	lw	s0,8(s5)
   157a8:	fff48493          	addi	s1,s1,-1
   157ac:	0204c863          	bltz	s1,157dc <_fwalk_reent+0x80>
   157b0:	00c45783          	lhu	a5,12(s0)
   157b4:	fff48493          	addi	s1,s1,-1
   157b8:	00f9fe63          	bgeu	s3,a5,157d4 <_fwalk_reent+0x78>
   157bc:	00e41783          	lh	a5,14(s0)
   157c0:	00040593          	mv	a1,s0
   157c4:	000b0513          	mv	a0,s6
   157c8:	01278663          	beq	a5,s2,157d4 <_fwalk_reent+0x78>
   157cc:	000b80e7          	jalr	s7 # 80000000 <__global_pointer$+0x7ffd7d30>
   157d0:	00aa6a33          	or	s4,s4,a0
   157d4:	06840413          	addi	s0,s0,104
   157d8:	fd249ce3          	bne	s1,s2,157b0 <_fwalk_reent+0x54>
   157dc:	000aaa83          	lw	s5,0(s5)
   157e0:	fc0a90e3          	bnez	s5,157a0 <_fwalk_reent+0x44>
   157e4:	02c12083          	lw	ra,44(sp)
   157e8:	02812403          	lw	s0,40(sp)
   157ec:	000a0513          	mv	a0,s4
   157f0:	02412483          	lw	s1,36(sp)
   157f4:	02012903          	lw	s2,32(sp)
   157f8:	01c12983          	lw	s3,28(sp)
   157fc:	01812a03          	lw	s4,24(sp)
   15800:	01412a83          	lw	s5,20(sp)
   15804:	01012b03          	lw	s6,16(sp)
   15808:	00c12b83          	lw	s7,12(sp)
   1580c:	03010113          	addi	sp,sp,48
   15810:	00008067          	ret
   15814:	00000a13          	li	s4,0
   15818:	fcdff06f          	j	157e4 <_fwalk_reent+0x88>

0001581c <eshdn1>:
   1581c:	00450693          	addi	a3,a0,4
   15820:	00000793          	li	a5,0
   15824:	01a50513          	addi	a0,a0,26
   15828:	ffff8837          	lui	a6,0xffff8
   1582c:	01c0006f          	j	15848 <eshdn1+0x2c>
   15830:	00179793          	slli	a5,a5,0x1
   15834:	00e69023          	sh	a4,0(a3)
   15838:	01079793          	slli	a5,a5,0x10
   1583c:	00268693          	addi	a3,a3,2
   15840:	0107d793          	srli	a5,a5,0x10
   15844:	02d50e63          	beq	a0,a3,15880 <eshdn1+0x64>
   15848:	0006d703          	lhu	a4,0(a3)
   1584c:	00177613          	andi	a2,a4,1
   15850:	00060463          	beqz	a2,15858 <eshdn1+0x3c>
   15854:	0017e793          	ori	a5,a5,1
   15858:	00175713          	srli	a4,a4,0x1
   1585c:	0027f613          	andi	a2,a5,2
   15860:	010765b3          	or	a1,a4,a6
   15864:	fc0606e3          	beqz	a2,15830 <eshdn1+0x14>
   15868:	00179793          	slli	a5,a5,0x1
   1586c:	00b69023          	sh	a1,0(a3)
   15870:	01079793          	slli	a5,a5,0x10
   15874:	00268693          	addi	a3,a3,2
   15878:	0107d793          	srli	a5,a5,0x10
   1587c:	fcd516e3          	bne	a0,a3,15848 <eshdn1+0x2c>
   15880:	00008067          	ret

00015884 <eshup1>:
   15884:	01850693          	addi	a3,a0,24
   15888:	00000713          	li	a4,0
   1588c:	00250513          	addi	a0,a0,2
   15890:	01c0006f          	j	158ac <eshup1+0x28>
   15894:	00171713          	slli	a4,a4,0x1
   15898:	00f69023          	sh	a5,0(a3)
   1589c:	01071713          	slli	a4,a4,0x10
   158a0:	ffe68693          	addi	a3,a3,-2
   158a4:	01075713          	srli	a4,a4,0x10
   158a8:	04d50463          	beq	a0,a3,158f0 <eshup1+0x6c>
   158ac:	0006d783          	lhu	a5,0(a3)
   158b0:	01079613          	slli	a2,a5,0x10
   158b4:	41065613          	srai	a2,a2,0x10
   158b8:	00179793          	slli	a5,a5,0x1
   158bc:	00065463          	bgez	a2,158c4 <eshup1+0x40>
   158c0:	00176713          	ori	a4,a4,1
   158c4:	01079793          	slli	a5,a5,0x10
   158c8:	0107d793          	srli	a5,a5,0x10
   158cc:	00277613          	andi	a2,a4,2
   158d0:	0017e593          	ori	a1,a5,1
   158d4:	fc0600e3          	beqz	a2,15894 <eshup1+0x10>
   158d8:	00171713          	slli	a4,a4,0x1
   158dc:	00b69023          	sh	a1,0(a3)
   158e0:	01071713          	slli	a4,a4,0x10
   158e4:	ffe68693          	addi	a3,a3,-2
   158e8:	01075713          	srli	a4,a4,0x10
   158ec:	fcd510e3          	bne	a0,a3,158ac <eshup1+0x28>
   158f0:	00008067          	ret

000158f4 <m16m>:
   158f4:	fe010113          	addi	sp,sp,-32
   158f8:	00010e37          	lui	t3,0x10
   158fc:	00011d23          	sh	zero,26(sp)
   15900:	00011e23          	sh	zero,28(sp)
   15904:	01858593          	addi	a1,a1,24
   15908:	01c10793          	addi	a5,sp,28
   1590c:	00810813          	addi	a6,sp,8
   15910:	fffe0e13          	addi	t3,t3,-1 # ffff <threadsense.2617+0xffff>
   15914:	0005d703          	lhu	a4,0(a1)
   15918:	ffe78793          	addi	a5,a5,-2
   1591c:	ffe58593          	addi	a1,a1,-2
   15920:	02071863          	bnez	a4,15950 <m16m+0x5c>
   15924:	fe079f23          	sh	zero,-2(a5)
   15928:	ff0796e3          	bne	a5,a6,15914 <m16m+0x20>
   1592c:	00460613          	addi	a2,a2,4
   15930:	01e10693          	addi	a3,sp,30
   15934:	0007d703          	lhu	a4,0(a5)
   15938:	00260613          	addi	a2,a2,2
   1593c:	00278793          	addi	a5,a5,2
   15940:	fee61f23          	sh	a4,-2(a2)
   15944:	fed798e3          	bne	a5,a3,15934 <m16m+0x40>
   15948:	02010113          	addi	sp,sp,32
   1594c:	00008067          	ret
   15950:	02a70733          	mul	a4,a4,a0
   15954:	0027d883          	lhu	a7,2(a5)
   15958:	0007d303          	lhu	t1,0(a5)
   1595c:	01c776b3          	and	a3,a4,t3
   15960:	011686b3          	add	a3,a3,a7
   15964:	01075713          	srli	a4,a4,0x10
   15968:	0106d893          	srli	a7,a3,0x10
   1596c:	00670733          	add	a4,a4,t1
   15970:	01170733          	add	a4,a4,a7
   15974:	01075893          	srli	a7,a4,0x10
   15978:	00d79123          	sh	a3,2(a5)
   1597c:	00e79023          	sh	a4,0(a5)
   15980:	ff179f23          	sh	a7,-2(a5)
   15984:	f90798e3          	bne	a5,a6,15914 <m16m+0x20>
   15988:	fa5ff06f          	j	1592c <m16m+0x38>

0001598c <eisnan.part.0>:
   1598c:	01250713          	addi	a4,a0,18
   15990:	00250513          	addi	a0,a0,2
   15994:	ffe55783          	lhu	a5,-2(a0)
   15998:	00079863          	bnez	a5,159a8 <eisnan.part.0+0x1c>
   1599c:	fea71ae3          	bne	a4,a0,15990 <eisnan.part.0+0x4>
   159a0:	00000513          	li	a0,0
   159a4:	00008067          	ret
   159a8:	00100513          	li	a0,1
   159ac:	00008067          	ret

000159b0 <eneg>:
   159b0:	ff010113          	addi	sp,sp,-16
   159b4:	00812423          	sw	s0,8(sp)
   159b8:	01255403          	lhu	s0,18(a0)
   159bc:	00912223          	sw	s1,4(sp)
   159c0:	00112623          	sw	ra,12(sp)
   159c4:	fff44793          	not	a5,s0
   159c8:	01179713          	slli	a4,a5,0x11
   159cc:	00050493          	mv	s1,a0
   159d0:	00071663          	bnez	a4,159dc <eneg+0x2c>
   159d4:	fb9ff0ef          	jal	ra,1598c <eisnan.part.0>
   159d8:	00051863          	bnez	a0,159e8 <eneg+0x38>
   159dc:	ffff87b7          	lui	a5,0xffff8
   159e0:	00f44433          	xor	s0,s0,a5
   159e4:	00849923          	sh	s0,18(s1)
   159e8:	00c12083          	lw	ra,12(sp)
   159ec:	00812403          	lw	s0,8(sp)
   159f0:	00412483          	lw	s1,4(sp)
   159f4:	01010113          	addi	sp,sp,16
   159f8:	00008067          	ret

000159fc <eisneg>:
   159fc:	ff010113          	addi	sp,sp,-16
   15a00:	00812423          	sw	s0,8(sp)
   15a04:	01255403          	lhu	s0,18(a0)
   15a08:	00112623          	sw	ra,12(sp)
   15a0c:	fff44793          	not	a5,s0
   15a10:	01179713          	slli	a4,a5,0x11
   15a14:	00071863          	bnez	a4,15a24 <eisneg+0x28>
   15a18:	f75ff0ef          	jal	ra,1598c <eisnan.part.0>
   15a1c:	00000793          	li	a5,0
   15a20:	00051463          	bnez	a0,15a28 <eisneg+0x2c>
   15a24:	00f45793          	srli	a5,s0,0xf
   15a28:	00c12083          	lw	ra,12(sp)
   15a2c:	00812403          	lw	s0,8(sp)
   15a30:	00078513          	mv	a0,a5
   15a34:	01010113          	addi	sp,sp,16
   15a38:	00008067          	ret

00015a3c <emovi>:
   15a3c:	01255783          	lhu	a5,18(a0)
   15a40:	ff010113          	addi	sp,sp,-16
   15a44:	00812423          	sw	s0,8(sp)
   15a48:	00f7d793          	srli	a5,a5,0xf
   15a4c:	00912223          	sw	s1,4(sp)
   15a50:	00112623          	sw	ra,12(sp)
   15a54:	01212023          	sw	s2,0(sp)
   15a58:	40f007b3          	neg	a5,a5
   15a5c:	00f59023          	sh	a5,0(a1)
   15a60:	01255783          	lhu	a5,18(a0)
   15a64:	000086b7          	lui	a3,0x8
   15a68:	fff68693          	addi	a3,a3,-1 # 7fff <threadsense.2617+0x7fff>
   15a6c:	00f6f7b3          	and	a5,a3,a5
   15a70:	00f59123          	sh	a5,2(a1)
   15a74:	00050493          	mv	s1,a0
   15a78:	01050413          	addi	s0,a0,16
   15a7c:	04d78063          	beq	a5,a3,15abc <emovi+0x80>
   15a80:	00658793          	addi	a5,a1,6
   15a84:	00059223          	sh	zero,4(a1)
   15a88:	ffe50513          	addi	a0,a0,-2
   15a8c:	ffe40413          	addi	s0,s0,-2
   15a90:	00245703          	lhu	a4,2(s0)
   15a94:	00278793          	addi	a5,a5,2 # ffff8002 <__global_pointer$+0xfffcfd32>
   15a98:	fee79f23          	sh	a4,-2(a5)
   15a9c:	fea418e3          	bne	s0,a0,15a8c <emovi+0x50>
   15aa0:	00059c23          	sh	zero,24(a1)
   15aa4:	00c12083          	lw	ra,12(sp)
   15aa8:	00812403          	lw	s0,8(sp)
   15aac:	00412483          	lw	s1,4(sp)
   15ab0:	00012903          	lw	s2,0(sp)
   15ab4:	01010113          	addi	sp,sp,16
   15ab8:	00008067          	ret
   15abc:	01255703          	lhu	a4,18(a0)
   15ac0:	00058913          	mv	s2,a1
   15ac4:	00e7f733          	and	a4,a5,a4
   15ac8:	02f71863          	bne	a4,a5,15af8 <emovi+0xbc>
   15acc:	ec1ff0ef          	jal	ra,1598c <eisnan.part.0>
   15ad0:	02050463          	beqz	a0,15af8 <emovi+0xbc>
   15ad4:	00690713          	addi	a4,s2,6
   15ad8:	00091223          	sh	zero,4(s2)
   15adc:	ffc48793          	addi	a5,s1,-4
   15ae0:	ffe40413          	addi	s0,s0,-2
   15ae4:	00245683          	lhu	a3,2(s0)
   15ae8:	00270713          	addi	a4,a4,2
   15aec:	fed71f23          	sh	a3,-2(a4)
   15af0:	fe8798e3          	bne	a5,s0,15ae0 <emovi+0xa4>
   15af4:	fb1ff06f          	j	15aa4 <emovi+0x68>
   15af8:	00490793          	addi	a5,s2,4
   15afc:	01a90593          	addi	a1,s2,26
   15b00:	00278793          	addi	a5,a5,2
   15b04:	fe079f23          	sh	zero,-2(a5)
   15b08:	fef59ce3          	bne	a1,a5,15b00 <emovi+0xc4>
   15b0c:	00c12083          	lw	ra,12(sp)
   15b10:	00812403          	lw	s0,8(sp)
   15b14:	00412483          	lw	s1,4(sp)
   15b18:	00012903          	lw	s2,0(sp)
   15b1c:	01010113          	addi	sp,sp,16
   15b20:	00008067          	ret

00015b24 <ecmp>:
   15b24:	01255783          	lhu	a5,18(a0)
   15b28:	fb010113          	addi	sp,sp,-80
   15b2c:	04812423          	sw	s0,72(sp)
   15b30:	fff7c793          	not	a5,a5
   15b34:	04912223          	sw	s1,68(sp)
   15b38:	04112623          	sw	ra,76(sp)
   15b3c:	01179713          	slli	a4,a5,0x11
   15b40:	00050493          	mv	s1,a0
   15b44:	00058413          	mv	s0,a1
   15b48:	00071663          	bnez	a4,15b54 <ecmp+0x30>
   15b4c:	e41ff0ef          	jal	ra,1598c <eisnan.part.0>
   15b50:	08051263          	bnez	a0,15bd4 <ecmp+0xb0>
   15b54:	01245783          	lhu	a5,18(s0)
   15b58:	fff7c793          	not	a5,a5
   15b5c:	01179713          	slli	a4,a5,0x11
   15b60:	06070463          	beqz	a4,15bc8 <ecmp+0xa4>
   15b64:	00810593          	addi	a1,sp,8
   15b68:	00048513          	mv	a0,s1
   15b6c:	ed1ff0ef          	jal	ra,15a3c <emovi>
   15b70:	02410593          	addi	a1,sp,36
   15b74:	00040513          	mv	a0,s0
   15b78:	ec5ff0ef          	jal	ra,15a3c <emovi>
   15b7c:	00815583          	lhu	a1,8(sp)
   15b80:	02415503          	lhu	a0,36(sp)
   15b84:	04b50c63          	beq	a0,a1,15bdc <ecmp+0xb8>
   15b88:	00a10793          	addi	a5,sp,10
   15b8c:	02610713          	addi	a4,sp,38
   15b90:	02010613          	addi	a2,sp,32
   15b94:	0007d683          	lhu	a3,0(a5)
   15b98:	00278793          	addi	a5,a5,2
   15b9c:	08069a63          	bnez	a3,15c30 <ecmp+0x10c>
   15ba0:	00075683          	lhu	a3,0(a4)
   15ba4:	00270713          	addi	a4,a4,2
   15ba8:	08069463          	bnez	a3,15c30 <ecmp+0x10c>
   15bac:	fec794e3          	bne	a5,a2,15b94 <ecmp+0x70>
   15bb0:	00000513          	li	a0,0
   15bb4:	04c12083          	lw	ra,76(sp)
   15bb8:	04812403          	lw	s0,72(sp)
   15bbc:	04412483          	lw	s1,68(sp)
   15bc0:	05010113          	addi	sp,sp,80
   15bc4:	00008067          	ret
   15bc8:	00040513          	mv	a0,s0
   15bcc:	dc1ff0ef          	jal	ra,1598c <eisnan.part.0>
   15bd0:	f8050ae3          	beqz	a0,15b64 <ecmp+0x40>
   15bd4:	ffe00513          	li	a0,-2
   15bd8:	fddff06f          	j	15bb4 <ecmp+0x90>
   15bdc:	00a10713          	addi	a4,sp,10
   15be0:	02610793          	addi	a5,sp,38
   15be4:	00278793          	addi	a5,a5,2
   15be8:	00270713          	addi	a4,a4,2
   15bec:	00153513          	seqz	a0,a0
   15bf0:	ffe75603          	lhu	a2,-2(a4)
   15bf4:	ffe7d683          	lhu	a3,-2(a5)
   15bf8:	40a00533          	neg	a0,a0
   15bfc:	00257513          	andi	a0,a0,2
   15c00:	fff50513          	addi	a0,a0,-1
   15c04:	03c10593          	addi	a1,sp,60
   15c08:	00d61e63          	bne	a2,a3,15c24 <ecmp+0x100>
   15c0c:	fab782e3          	beq	a5,a1,15bb0 <ecmp+0x8c>
   15c10:	00278793          	addi	a5,a5,2
   15c14:	00270713          	addi	a4,a4,2
   15c18:	ffe75603          	lhu	a2,-2(a4)
   15c1c:	ffe7d683          	lhu	a3,-2(a5)
   15c20:	fed606e3          	beq	a2,a3,15c0c <ecmp+0xe8>
   15c24:	f8c6e8e3          	bltu	a3,a2,15bb4 <ecmp+0x90>
   15c28:	40a00533          	neg	a0,a0
   15c2c:	f89ff06f          	j	15bb4 <ecmp+0x90>
   15c30:	00100513          	li	a0,1
   15c34:	f80580e3          	beqz	a1,15bb4 <ecmp+0x90>
   15c38:	fff00513          	li	a0,-1
   15c3c:	f79ff06f          	j	15bb4 <ecmp+0x90>

00015c40 <eisinf.part.1>:
   15c40:	ff010113          	addi	sp,sp,-16
   15c44:	00112623          	sw	ra,12(sp)
   15c48:	d45ff0ef          	jal	ra,1598c <eisnan.part.0>
   15c4c:	00c12083          	lw	ra,12(sp)
   15c50:	00153513          	seqz	a0,a0
   15c54:	01010113          	addi	sp,sp,16
   15c58:	00008067          	ret

00015c5c <eshift.part.3>:
   15c5c:	ff010113          	addi	sp,sp,-16
   15c60:	00812423          	sw	s0,8(sp)
   15c64:	01212023          	sw	s2,0(sp)
   15c68:	00112623          	sw	ra,12(sp)
   15c6c:	00912223          	sw	s1,4(sp)
   15c70:	00058913          	mv	s2,a1
   15c74:	00050413          	mv	s0,a0
   15c78:	0a05c263          	bltz	a1,15d1c <eshift.part.3+0xc0>
   15c7c:	00f00793          	li	a5,15
   15c80:	00058613          	mv	a2,a1
   15c84:	00450513          	addi	a0,a0,4
   15c88:	01840693          	addi	a3,s0,24
   15c8c:	00f00593          	li	a1,15
   15c90:	0327d463          	bge	a5,s2,15cb8 <eshift.part.3+0x5c>
   15c94:	00050793          	mv	a5,a0
   15c98:	00278793          	addi	a5,a5,2
   15c9c:	0007d703          	lhu	a4,0(a5)
   15ca0:	fee79f23          	sh	a4,-2(a5)
   15ca4:	fed79ae3          	bne	a5,a3,15c98 <eshift.part.3+0x3c>
   15ca8:	00041c23          	sh	zero,24(s0)
   15cac:	ff060613          	addi	a2,a2,-16
   15cb0:	fec5c2e3          	blt	a1,a2,15c94 <eshift.part.3+0x38>
   15cb4:	00f97913          	andi	s2,s2,15
   15cb8:	00700793          	li	a5,7
   15cbc:	0327d863          	bge	a5,s2,15cec <eshift.part.3+0x90>
   15cc0:	01840793          	addi	a5,s0,24
   15cc4:	00240593          	addi	a1,s0,2
   15cc8:	00000713          	li	a4,0
   15ccc:	0007d683          	lhu	a3,0(a5)
   15cd0:	ffe78793          	addi	a5,a5,-2
   15cd4:	00869613          	slli	a2,a3,0x8
   15cd8:	00c76733          	or	a4,a4,a2
   15cdc:	00e79123          	sh	a4,2(a5)
   15ce0:	0086d713          	srli	a4,a3,0x8
   15ce4:	feb794e3          	bne	a5,a1,15ccc <eshift.part.3+0x70>
   15ce8:	ff890913          	addi	s2,s2,-8
   15cec:	00090a63          	beqz	s2,15d00 <eshift.part.3+0xa4>
   15cf0:	fff90913          	addi	s2,s2,-1
   15cf4:	00040513          	mv	a0,s0
   15cf8:	b8dff0ef          	jal	ra,15884 <eshup1>
   15cfc:	fe091ae3          	bnez	s2,15cf0 <eshift.part.3+0x94>
   15d00:	00c12083          	lw	ra,12(sp)
   15d04:	00812403          	lw	s0,8(sp)
   15d08:	00412483          	lw	s1,4(sp)
   15d0c:	00012903          	lw	s2,0(sp)
   15d10:	00000513          	li	a0,0
   15d14:	01010113          	addi	sp,sp,16
   15d18:	00008067          	ret
   15d1c:	ff100793          	li	a5,-15
   15d20:	40b004b3          	neg	s1,a1
   15d24:	0cf5d463          	bge	a1,a5,15dec <eshift.part.3+0x190>
   15d28:	01850593          	addi	a1,a0,24
   15d2c:	00000913          	li	s2,0
   15d30:	00450693          	addi	a3,a0,4
   15d34:	00f00613          	li	a2,15
   15d38:	01845703          	lhu	a4,24(s0)
   15d3c:	00058793          	mv	a5,a1
   15d40:	00e96933          	or	s2,s2,a4
   15d44:	ffe78793          	addi	a5,a5,-2
   15d48:	0007d703          	lhu	a4,0(a5)
   15d4c:	00e79123          	sh	a4,2(a5)
   15d50:	fed79ae3          	bne	a5,a3,15d44 <eshift.part.3+0xe8>
   15d54:	00041223          	sh	zero,4(s0)
   15d58:	ff048493          	addi	s1,s1,-16
   15d5c:	fc964ee3          	blt	a2,s1,15d38 <eshift.part.3+0xdc>
   15d60:	00700793          	li	a5,7
   15d64:	0497d663          	bge	a5,s1,15db0 <eshift.part.3+0x154>
   15d68:	01091913          	slli	s2,s2,0x10
   15d6c:	41095913          	srai	s2,s2,0x10
   15d70:	01844783          	lbu	a5,24(s0)
   15d74:	01a40593          	addi	a1,s0,26
   15d78:	00000713          	li	a4,0
   15d7c:	00f96933          	or	s2,s2,a5
   15d80:	01091913          	slli	s2,s2,0x10
   15d84:	01095913          	srli	s2,s2,0x10
   15d88:	0006d783          	lhu	a5,0(a3)
   15d8c:	00268693          	addi	a3,a3,2
   15d90:	0087d613          	srli	a2,a5,0x8
   15d94:	00c76733          	or	a4,a4,a2
   15d98:	00879793          	slli	a5,a5,0x8
   15d9c:	fee69f23          	sh	a4,-2(a3)
   15da0:	01079713          	slli	a4,a5,0x10
   15da4:	01075713          	srli	a4,a4,0x10
   15da8:	feb690e3          	bne	a3,a1,15d88 <eshift.part.3+0x12c>
   15dac:	ff848493          	addi	s1,s1,-8
   15db0:	02048063          	beqz	s1,15dd0 <eshift.part.3+0x174>
   15db4:	01845783          	lhu	a5,24(s0)
   15db8:	fff48493          	addi	s1,s1,-1
   15dbc:	00040513          	mv	a0,s0
   15dc0:	0017f793          	andi	a5,a5,1
   15dc4:	0127e933          	or	s2,a5,s2
   15dc8:	a55ff0ef          	jal	ra,1581c <eshdn1>
   15dcc:	fe0494e3          	bnez	s1,15db4 <eshift.part.3+0x158>
   15dd0:	00c12083          	lw	ra,12(sp)
   15dd4:	00812403          	lw	s0,8(sp)
   15dd8:	01203533          	snez	a0,s2
   15ddc:	00412483          	lw	s1,4(sp)
   15de0:	00012903          	lw	s2,0(sp)
   15de4:	01010113          	addi	sp,sp,16
   15de8:	00008067          	ret
   15dec:	ff900793          	li	a5,-7
   15df0:	00f5c663          	blt	a1,a5,15dfc <eshift.part.3+0x1a0>
   15df4:	00000913          	li	s2,0
   15df8:	fbdff06f          	j	15db4 <eshift.part.3+0x158>
   15dfc:	00000913          	li	s2,0
   15e00:	00440693          	addi	a3,s0,4
   15e04:	f6dff06f          	j	15d70 <eshift.part.3+0x114>

00015e08 <enormlz>:
   15e08:	00455783          	lhu	a5,4(a0)
   15e0c:	ff010113          	addi	sp,sp,-16
   15e10:	00912223          	sw	s1,4(sp)
   15e14:	00112623          	sw	ra,12(sp)
   15e18:	00812423          	sw	s0,8(sp)
   15e1c:	01212023          	sw	s2,0(sp)
   15e20:	00050493          	mv	s1,a0
   15e24:	0c079c63          	bnez	a5,15efc <enormlz+0xf4>
   15e28:	00655703          	lhu	a4,6(a0)
   15e2c:	00000413          	li	s0,0
   15e30:	01071793          	slli	a5,a4,0x10
   15e34:	4107d793          	srai	a5,a5,0x10
   15e38:	0a07c463          	bltz	a5,15ee0 <enormlz+0xd8>
   15e3c:	01a50693          	addi	a3,a0,26
   15e40:	0a000613          	li	a2,160
   15e44:	02071863          	bnez	a4,15e74 <enormlz+0x6c>
   15e48:	00648793          	addi	a5,s1,6
   15e4c:	0080006f          	j	15e54 <enormlz+0x4c>
   15e50:	0007d703          	lhu	a4,0(a5)
   15e54:	00278793          	addi	a5,a5,2
   15e58:	fee79e23          	sh	a4,-4(a5)
   15e5c:	fef69ae3          	bne	a3,a5,15e50 <enormlz+0x48>
   15e60:	00049c23          	sh	zero,24(s1)
   15e64:	01040413          	addi	s0,s0,16
   15e68:	06c40c63          	beq	s0,a2,15ee0 <enormlz+0xd8>
   15e6c:	0064d703          	lhu	a4,6(s1)
   15e70:	fc070ce3          	beqz	a4,15e48 <enormlz+0x40>
   15e74:	f0077793          	andi	a5,a4,-256
   15e78:	04079063          	bnez	a5,15eb8 <enormlz+0xb0>
   15e7c:	01848513          	addi	a0,s1,24
   15e80:	00248593          	addi	a1,s1,2
   15e84:	00000713          	li	a4,0
   15e88:	00050793          	mv	a5,a0
   15e8c:	0007d683          	lhu	a3,0(a5)
   15e90:	ffe78793          	addi	a5,a5,-2
   15e94:	00869613          	slli	a2,a3,0x8
   15e98:	00c76733          	or	a4,a4,a2
   15e9c:	00e79123          	sh	a4,2(a5)
   15ea0:	0086d713          	srli	a4,a3,0x8
   15ea4:	fef594e3          	bne	a1,a5,15e8c <enormlz+0x84>
   15ea8:	0064d703          	lhu	a4,6(s1)
   15eac:	00840413          	addi	s0,s0,8
   15eb0:	f0077793          	andi	a5,a4,-256
   15eb4:	fc0788e3          	beqz	a5,15e84 <enormlz+0x7c>
   15eb8:	0a000913          	li	s2,160
   15ebc:	0140006f          	j	15ed0 <enormlz+0xc8>
   15ec0:	00140413          	addi	s0,s0,1
   15ec4:	9c1ff0ef          	jal	ra,15884 <eshup1>
   15ec8:	00894c63          	blt	s2,s0,15ee0 <enormlz+0xd8>
   15ecc:	0064d703          	lhu	a4,6(s1)
   15ed0:	01071713          	slli	a4,a4,0x10
   15ed4:	41075713          	srai	a4,a4,0x10
   15ed8:	00048513          	mv	a0,s1
   15edc:	fe0752e3          	bgez	a4,15ec0 <enormlz+0xb8>
   15ee0:	00040513          	mv	a0,s0
   15ee4:	00c12083          	lw	ra,12(sp)
   15ee8:	00812403          	lw	s0,8(sp)
   15eec:	00412483          	lw	s1,4(sp)
   15ef0:	00012903          	lw	s2,0(sp)
   15ef4:	01010113          	addi	sp,sp,16
   15ef8:	00008067          	ret
   15efc:	f007f713          	andi	a4,a5,-256
   15f00:	00000413          	li	s0,0
   15f04:	04071063          	bnez	a4,15f44 <enormlz+0x13c>
   15f08:	f6f00913          	li	s2,-145
   15f0c:	0140006f          	j	15f20 <enormlz+0x118>
   15f10:	fff40413          	addi	s0,s0,-1
   15f14:	909ff0ef          	jal	ra,1581c <eshdn1>
   15f18:	fd2404e3          	beq	s0,s2,15ee0 <enormlz+0xd8>
   15f1c:	0044d783          	lhu	a5,4(s1)
   15f20:	00048513          	mv	a0,s1
   15f24:	fe0796e3          	bnez	a5,15f10 <enormlz+0x108>
   15f28:	00040513          	mv	a0,s0
   15f2c:	00c12083          	lw	ra,12(sp)
   15f30:	00812403          	lw	s0,8(sp)
   15f34:	00412483          	lw	s1,4(sp)
   15f38:	00012903          	lw	s2,0(sp)
   15f3c:	01010113          	addi	sp,sp,16
   15f40:	00008067          	ret
   15f44:	00450693          	addi	a3,a0,4
   15f48:	01a50593          	addi	a1,a0,26
   15f4c:	00000713          	li	a4,0
   15f50:	0080006f          	j	15f58 <enormlz+0x150>
   15f54:	0006d783          	lhu	a5,0(a3)
   15f58:	0087d613          	srli	a2,a5,0x8
   15f5c:	00c76733          	or	a4,a4,a2
   15f60:	00879793          	slli	a5,a5,0x8
   15f64:	00e69023          	sh	a4,0(a3)
   15f68:	01079713          	slli	a4,a5,0x10
   15f6c:	00268693          	addi	a3,a3,2
   15f70:	01075713          	srli	a4,a4,0x10
   15f74:	feb690e3          	bne	a3,a1,15f54 <enormlz+0x14c>
   15f78:	0044d783          	lhu	a5,4(s1)
   15f7c:	ff800413          	li	s0,-8
   15f80:	f89ff06f          	j	15f08 <enormlz+0x100>

00015f84 <emdnorm>:
   15f84:	fe010113          	addi	sp,sp,-32
   15f88:	00812c23          	sw	s0,24(sp)
   15f8c:	00912a23          	sw	s1,20(sp)
   15f90:	01212823          	sw	s2,16(sp)
   15f94:	01312623          	sw	s3,12(sp)
   15f98:	01412423          	sw	s4,8(sp)
   15f9c:	01512223          	sw	s5,4(sp)
   15fa0:	00068913          	mv	s2,a3
   15fa4:	00078493          	mv	s1,a5
   15fa8:	00112e23          	sw	ra,28(sp)
   15fac:	00050413          	mv	s0,a0
   15fb0:	00058993          	mv	s3,a1
   15fb4:	00060a13          	mv	s4,a2
   15fb8:	00070a93          	mv	s5,a4
   15fbc:	e4dff0ef          	jal	ra,15e08 <enormlz>
   15fc0:	09000793          	li	a5,144
   15fc4:	40a90933          	sub	s2,s2,a0
   15fc8:	06a7de63          	bge	a5,a0,16044 <emdnorm+0xc0>
   15fcc:	000087b7          	lui	a5,0x8
   15fd0:	ffe78793          	addi	a5,a5,-2 # 7ffe <threadsense.2617+0x7ffe>
   15fd4:	2127da63          	bge	a5,s2,161e8 <emdnorm+0x264>
   15fd8:	1e0a8463          	beqz	s5,161c0 <emdnorm+0x23c>
   15fdc:	0044a503          	lw	a0,4(s1)
   15fe0:	0004a783          	lw	a5,0(s1)
   15fe4:	0ea78a63          	beq	a5,a0,160d8 <emdnorm+0x154>
   15fe8:	01a48713          	addi	a4,s1,26
   15fec:	03448793          	addi	a5,s1,52
   15ff0:	00270713          	addi	a4,a4,2
   15ff4:	fe071f23          	sh	zero,-2(a4)
   15ff8:	fef71ce3          	bne	a4,a5,15ff0 <emdnorm+0x6c>
   15ffc:	03800793          	li	a5,56
   16000:	36f50063          	beq	a0,a5,16360 <emdnorm+0x3dc>
   16004:	06a7d263          	bge	a5,a0,16068 <emdnorm+0xe4>
   16008:	04000793          	li	a5,64
   1600c:	2ef50a63          	beq	a0,a5,16300 <emdnorm+0x37c>
   16010:	07100793          	li	a5,113
   16014:	30f51c63          	bne	a0,a5,1632c <emdnorm+0x3a8>
   16018:	400087b7          	lui	a5,0x40008
   1601c:	fff78793          	addi	a5,a5,-1 # 40007fff <__global_pointer$+0x3ffdfd2f>
   16020:	00a00713          	li	a4,10
   16024:	00f4aa23          	sw	a5,20(s1)
   16028:	ffff87b7          	lui	a5,0xffff8
   1602c:	00e4a423          	sw	a4,8(s1)
   16030:	00f49c23          	sh	a5,24(s1)
   16034:	00e4a623          	sw	a4,12(s1)
   16038:	00a00793          	li	a5,10
   1603c:	00008737          	lui	a4,0x8
   16040:	0600006f          	j	160a0 <emdnorm+0x11c>
   16044:	1e095263          	bgez	s2,16228 <emdnorm+0x2a4>
   16048:	f7000793          	li	a5,-144
   1604c:	1af95a63          	bge	s2,a5,16200 <emdnorm+0x27c>
   16050:	00240793          	addi	a5,s0,2
   16054:	01a40413          	addi	s0,s0,26
   16058:	00278793          	addi	a5,a5,2 # ffff8002 <__global_pointer$+0xfffcfd32>
   1605c:	fe079f23          	sh	zero,-2(a5)
   16060:	fe879ce3          	bne	a5,s0,16058 <emdnorm+0xd4>
   16064:	1380006f          	j	1619c <emdnorm+0x218>
   16068:	01800793          	li	a5,24
   1606c:	26f50463          	beq	a0,a5,162d4 <emdnorm+0x350>
   16070:	03500793          	li	a5,53
   16074:	2af51c63          	bne	a0,a5,1632c <emdnorm+0x3a8>
   16078:	00001737          	lui	a4,0x1
   1607c:	040007b7          	lui	a5,0x4000
   16080:	00600693          	li	a3,6
   16084:	7ff78793          	addi	a5,a5,2047 # 40007ff <__global_pointer$+0x3fd852f>
   16088:	80070713          	addi	a4,a4,-2048 # 800 <threadsense.2617+0x800>
   1608c:	00f4aa23          	sw	a5,20(s1)
   16090:	00d4a423          	sw	a3,8(s1)
   16094:	00e49c23          	sh	a4,24(s1)
   16098:	00d4a623          	sw	a3,12(s1)
   1609c:	00600793          	li	a5,6
   160a0:	00878793          	addi	a5,a5,8
   160a4:	00179793          	slli	a5,a5,0x1
   160a8:	00f487b3          	add	a5,s1,a5
   160ac:	00e79523          	sh	a4,10(a5)
   160b0:	00a4a023          	sw	a0,0(s1)
   160b4:	03204263          	bgtz	s2,160d8 <emdnorm+0x154>
   160b8:	09000793          	li	a5,144
   160bc:	1ef50863          	beq	a0,a5,162ac <emdnorm+0x328>
   160c0:	01845783          	lhu	a5,24(s0)
   160c4:	00040513          	mv	a0,s0
   160c8:	0017f793          	andi	a5,a5,1
   160cc:	00f9e9b3          	or	s3,s3,a5
   160d0:	f4cff0ef          	jal	ra,1581c <eshdn1>
   160d4:	0044a503          	lw	a0,4(s1)
   160d8:	0084a583          	lw	a1,8(s1)
   160dc:	0144d783          	lhu	a5,20(s1)
   160e0:	08f00813          	li	a6,143
   160e4:	00159613          	slli	a2,a1,0x1
   160e8:	00c40633          	add	a2,s0,a2
   160ec:	00065703          	lhu	a4,0(a2)
   160f0:	00f776b3          	and	a3,a4,a5
   160f4:	02a84a63          	blt	a6,a0,16128 <emdnorm+0x1a4>
   160f8:	00b00813          	li	a6,11
   160fc:	02b84663          	blt	a6,a1,16128 <emdnorm+0x1a4>
   16100:	00060713          	mv	a4,a2
   16104:	01840593          	addi	a1,s0,24
   16108:	00275783          	lhu	a5,2(a4)
   1610c:	00078463          	beqz	a5,16114 <emdnorm+0x190>
   16110:	0016e693          	ori	a3,a3,1
   16114:	00071123          	sh	zero,2(a4)
   16118:	00270713          	addi	a4,a4,2
   1611c:	fee596e3          	bne	a1,a4,16108 <emdnorm+0x184>
   16120:	00065703          	lhu	a4,0(a2)
   16124:	0144d783          	lhu	a5,20(s1)
   16128:	fff7c793          	not	a5,a5
   1612c:	00e7f7b3          	and	a5,a5,a4
   16130:	00f61023          	sh	a5,0(a2)
   16134:	0164d783          	lhu	a5,22(s1)
   16138:	00d7f733          	and	a4,a5,a3
   1613c:	04070063          	beqz	a4,1617c <emdnorm+0x1f8>
   16140:	12d78263          	beq	a5,a3,16264 <emdnorm+0x2e0>
   16144:	03248613          	addi	a2,s1,50
   16148:	01840713          	addi	a4,s0,24
   1614c:	01c48493          	addi	s1,s1,28
   16150:	00000693          	li	a3,0
   16154:	00065783          	lhu	a5,0(a2)
   16158:	00075583          	lhu	a1,0(a4)
   1615c:	ffe70713          	addi	a4,a4,-2
   16160:	ffe60613          	addi	a2,a2,-2
   16164:	00b787b3          	add	a5,a5,a1
   16168:	00d787b3          	add	a5,a5,a3
   1616c:	00f71123          	sh	a5,2(a4)
   16170:	0107d793          	srli	a5,a5,0x10
   16174:	0017f693          	andi	a3,a5,1
   16178:	fc961ee3          	bne	a2,s1,16154 <emdnorm+0x1d0>
   1617c:	11205663          	blez	s2,16288 <emdnorm+0x304>
   16180:	00445783          	lhu	a5,4(s0)
   16184:	0a079c63          	bnez	a5,1623c <emdnorm+0x2b8>
   16188:	000087b7          	lui	a5,0x8
   1618c:	00041c23          	sh	zero,24(s0)
   16190:	ffe78793          	addi	a5,a5,-2 # 7ffe <threadsense.2617+0x7ffe>
   16194:	0327c863          	blt	a5,s2,161c4 <emdnorm+0x240>
   16198:	01241123          	sh	s2,2(s0)
   1619c:	01c12083          	lw	ra,28(sp)
   161a0:	01812403          	lw	s0,24(sp)
   161a4:	01412483          	lw	s1,20(sp)
   161a8:	01012903          	lw	s2,16(sp)
   161ac:	00c12983          	lw	s3,12(sp)
   161b0:	00812a03          	lw	s4,8(sp)
   161b4:	00412a83          	lw	s5,4(sp)
   161b8:	02010113          	addi	sp,sp,32
   161bc:	00008067          	ret
   161c0:	00041c23          	sh	zero,24(s0)
   161c4:	ffff87b7          	lui	a5,0xffff8
   161c8:	fff7c793          	not	a5,a5
   161cc:	00f41123          	sh	a5,2(s0)
   161d0:	00440793          	addi	a5,s0,4
   161d4:	01840413          	addi	s0,s0,24
   161d8:	00079023          	sh	zero,0(a5) # ffff8000 <__global_pointer$+0xfffcfd30>
   161dc:	00278793          	addi	a5,a5,2
   161e0:	fef41ce3          	bne	s0,a5,161d8 <emdnorm+0x254>
   161e4:	fb9ff06f          	j	1619c <emdnorm+0x218>
   161e8:	00240793          	addi	a5,s0,2
   161ec:	01a40413          	addi	s0,s0,26
   161f0:	00278793          	addi	a5,a5,2
   161f4:	fe079f23          	sh	zero,-2(a5)
   161f8:	fe879ce3          	bne	a5,s0,161f0 <emdnorm+0x26c>
   161fc:	fa1ff06f          	j	1619c <emdnorm+0x218>
   16200:	00090593          	mv	a1,s2
   16204:	00040513          	mv	a0,s0
   16208:	a55ff0ef          	jal	ra,15c5c <eshift.part.3>
   1620c:	00050463          	beqz	a0,16214 <emdnorm+0x290>
   16210:	00100993          	li	s3,1
   16214:	0a0a8a63          	beqz	s5,162c8 <emdnorm+0x344>
   16218:	0044a503          	lw	a0,4(s1)
   1621c:	0004a783          	lw	a5,0(s1)
   16220:	dca794e3          	bne	a5,a0,15fe8 <emdnorm+0x64>
   16224:	e95ff06f          	j	160b8 <emdnorm+0x134>
   16228:	f60a80e3          	beqz	s5,16188 <emdnorm+0x204>
   1622c:	0044a503          	lw	a0,4(s1)
   16230:	0004a783          	lw	a5,0(s1)
   16234:	daf51ae3          	bne	a0,a5,15fe8 <emdnorm+0x64>
   16238:	e7dff06f          	j	160b4 <emdnorm+0x130>
   1623c:	00040513          	mv	a0,s0
   16240:	ddcff0ef          	jal	ra,1581c <eshdn1>
   16244:	000087b7          	lui	a5,0x8
   16248:	00190913          	addi	s2,s2,1
   1624c:	00041c23          	sh	zero,24(s0)
   16250:	ffe78793          	addi	a5,a5,-2 # 7ffe <threadsense.2617+0x7ffe>
   16254:	f727c8e3          	blt	a5,s2,161c4 <emdnorm+0x240>
   16258:	f40950e3          	bgez	s2,16198 <emdnorm+0x214>
   1625c:	00041123          	sh	zero,2(s0)
   16260:	f3dff06f          	j	1619c <emdnorm+0x218>
   16264:	0e099a63          	bnez	s3,16358 <emdnorm+0x3d4>
   16268:	00c4a783          	lw	a5,12(s1)
   1626c:	0184d703          	lhu	a4,24(s1)
   16270:	00179793          	slli	a5,a5,0x1
   16274:	00f407b3          	add	a5,s0,a5
   16278:	0007d783          	lhu	a5,0(a5)
   1627c:	00e7f7b3          	and	a5,a5,a4
   16280:	ec0792e3          	bnez	a5,16144 <emdnorm+0x1c0>
   16284:	ef204ee3          	bgtz	s2,16180 <emdnorm+0x1fc>
   16288:	09000793          	li	a5,144
   1628c:	00f50663          	beq	a0,a5,16298 <emdnorm+0x314>
   16290:	00040513          	mv	a0,s0
   16294:	df0ff0ef          	jal	ra,15884 <eshup1>
   16298:	00445783          	lhu	a5,4(s0)
   1629c:	fa0790e3          	bnez	a5,1623c <emdnorm+0x2b8>
   162a0:	00041c23          	sh	zero,24(s0)
   162a4:	fa094ce3          	bltz	s2,1625c <emdnorm+0x2d8>
   162a8:	ef1ff06f          	j	16198 <emdnorm+0x214>
   162ac:	0084a603          	lw	a2,8(s1)
   162b0:	0144d783          	lhu	a5,20(s1)
   162b4:	00161613          	slli	a2,a2,0x1
   162b8:	00c40633          	add	a2,s0,a2
   162bc:	00065703          	lhu	a4,0(a2)
   162c0:	00e7f6b3          	and	a3,a5,a4
   162c4:	e65ff06f          	j	16128 <emdnorm+0x1a4>
   162c8:	00041c23          	sh	zero,24(s0)
   162cc:	00041123          	sh	zero,2(s0)
   162d0:	ecdff06f          	j	1619c <emdnorm+0x218>
   162d4:	008007b7          	lui	a5,0x800
   162d8:	0ff78793          	addi	a5,a5,255 # 8000ff <__global_pointer$+0x7d7e2f>
   162dc:	00400713          	li	a4,4
   162e0:	00f4aa23          	sw	a5,20(s1)
   162e4:	10000793          	li	a5,256
   162e8:	00e4a423          	sw	a4,8(s1)
   162ec:	00f49c23          	sh	a5,24(s1)
   162f0:	00e4a623          	sw	a4,12(s1)
   162f4:	00400793          	li	a5,4
   162f8:	10000713          	li	a4,256
   162fc:	da5ff06f          	j	160a0 <emdnorm+0x11c>
   16300:	00700793          	li	a5,7
   16304:	00f4a423          	sw	a5,8(s1)
   16308:	800107b7          	lui	a5,0x80010
   1630c:	fff78793          	addi	a5,a5,-1 # 8000ffff <__global_pointer$+0x7ffe7d2f>
   16310:	00f4aa23          	sw	a5,20(s1)
   16314:	00100793          	li	a5,1
   16318:	00f49c23          	sh	a5,24(s1)
   1631c:	00600793          	li	a5,6
   16320:	00f4a623          	sw	a5,12(s1)
   16324:	00100713          	li	a4,1
   16328:	d79ff06f          	j	160a0 <emdnorm+0x11c>
   1632c:	00c00793          	li	a5,12
   16330:	00f4a423          	sw	a5,8(s1)
   16334:	800107b7          	lui	a5,0x80010
   16338:	fff78793          	addi	a5,a5,-1 # 8000ffff <__global_pointer$+0x7ffe7d2f>
   1633c:	00f4aa23          	sw	a5,20(s1)
   16340:	00100793          	li	a5,1
   16344:	00f49c23          	sh	a5,24(s1)
   16348:	00b00793          	li	a5,11
   1634c:	00f4a623          	sw	a5,12(s1)
   16350:	00100713          	li	a4,1
   16354:	d4dff06f          	j	160a0 <emdnorm+0x11c>
   16358:	de0a06e3          	beqz	s4,16144 <emdnorm+0x1c0>
   1635c:	e21ff06f          	j	1617c <emdnorm+0x1f8>
   16360:	008007b7          	lui	a5,0x800
   16364:	0ff78793          	addi	a5,a5,255 # 8000ff <__global_pointer$+0x7d7e2f>
   16368:	00600713          	li	a4,6
   1636c:	00f4aa23          	sw	a5,20(s1)
   16370:	10000793          	li	a5,256
   16374:	00e4a423          	sw	a4,8(s1)
   16378:	00f49c23          	sh	a5,24(s1)
   1637c:	00e4a623          	sw	a4,12(s1)
   16380:	00600793          	li	a5,6
   16384:	10000713          	li	a4,256
   16388:	d19ff06f          	j	160a0 <emdnorm+0x11c>

0001638c <eiremain>:
   1638c:	fd010113          	addi	sp,sp,-48
   16390:	01312e23          	sw	s3,28(sp)
   16394:	00255983          	lhu	s3,2(a0)
   16398:	02912223          	sw	s1,36(sp)
   1639c:	00058493          	mv	s1,a1
   163a0:	02112623          	sw	ra,44(sp)
   163a4:	02812423          	sw	s0,40(sp)
   163a8:	03212023          	sw	s2,32(sp)
   163ac:	01412c23          	sw	s4,24(sp)
   163b0:	00060913          	mv	s2,a2
   163b4:	01512a23          	sw	s5,20(sp)
   163b8:	01612823          	sw	s6,16(sp)
   163bc:	01712623          	sw	s7,12(sp)
   163c0:	01812423          	sw	s8,8(sp)
   163c4:	01912223          	sw	s9,4(sp)
   163c8:	01a12023          	sw	s10,0(sp)
   163cc:	00050a13          	mv	s4,a0
   163d0:	a39ff0ef          	jal	ra,15e08 <enormlz>
   163d4:	0024d403          	lhu	s0,2(s1)
   163d8:	40a989b3          	sub	s3,s3,a0
   163dc:	00048513          	mv	a0,s1
   163e0:	a29ff0ef          	jal	ra,15e08 <enormlz>
   163e4:	03490a93          	addi	s5,s2,52
   163e8:	40a40433          	sub	s0,s0,a0
   163ec:	04e90713          	addi	a4,s2,78
   163f0:	000a8793          	mv	a5,s5
   163f4:	00278793          	addi	a5,a5,2
   163f8:	fe079f23          	sh	zero,-2(a5)
   163fc:	fee79ce3          	bne	a5,a4,163f4 <eiremain+0x68>
   16400:	09344a63          	blt	s0,s3,16494 <eiremain+0x108>
   16404:	004a0b93          	addi	s7,s4,4
   16408:	00448b13          	addi	s6,s1,4
   1640c:	fff98993          	addi	s3,s3,-1
   16410:	01aa0c93          	addi	s9,s4,26
   16414:	00248c13          	addi	s8,s1,2
   16418:	000b0713          	mv	a4,s6
   1641c:	000b8793          	mv	a5,s7
   16420:	00278793          	addi	a5,a5,2
   16424:	00270713          	addi	a4,a4,2
   16428:	ffe7d603          	lhu	a2,-2(a5)
   1642c:	ffe75683          	lhu	a3,-2(a4)
   16430:	0ad61a63          	bne	a2,a3,164e4 <eiremain+0x158>
   16434:	ff9796e3          	bne	a5,s9,16420 <eiremain+0x94>
   16438:	018a0693          	addi	a3,s4,24
   1643c:	01848713          	addi	a4,s1,24
   16440:	00000613          	li	a2,0
   16444:	00075783          	lhu	a5,0(a4)
   16448:	0006d583          	lhu	a1,0(a3)
   1644c:	ffe70713          	addi	a4,a4,-2
   16450:	40c787b3          	sub	a5,a5,a2
   16454:	40b787b3          	sub	a5,a5,a1
   16458:	00f71123          	sh	a5,2(a4)
   1645c:	0107d793          	srli	a5,a5,0x10
   16460:	ffe68693          	addi	a3,a3,-2
   16464:	0017f613          	andi	a2,a5,1
   16468:	fcec1ee3          	bne	s8,a4,16444 <eiremain+0xb8>
   1646c:	00100d13          	li	s10,1
   16470:	000a8513          	mv	a0,s5
   16474:	c10ff0ef          	jal	ra,15884 <eshup1>
   16478:	04c95783          	lhu	a5,76(s2)
   1647c:	fff40413          	addi	s0,s0,-1
   16480:	00048513          	mv	a0,s1
   16484:	00fd6d33          	or	s10,s10,a5
   16488:	05a91623          	sh	s10,76(s2)
   1648c:	bf8ff0ef          	jal	ra,15884 <eshup1>
   16490:	f93414e3          	bne	s0,s3,16418 <eiremain+0x8c>
   16494:	00040693          	mv	a3,s0
   16498:	02812403          	lw	s0,40(sp)
   1649c:	02c12083          	lw	ra,44(sp)
   164a0:	01c12983          	lw	s3,28(sp)
   164a4:	01812a03          	lw	s4,24(sp)
   164a8:	01412a83          	lw	s5,20(sp)
   164ac:	01012b03          	lw	s6,16(sp)
   164b0:	00c12b83          	lw	s7,12(sp)
   164b4:	00812c03          	lw	s8,8(sp)
   164b8:	00412c83          	lw	s9,4(sp)
   164bc:	00012d03          	lw	s10,0(sp)
   164c0:	00090793          	mv	a5,s2
   164c4:	00048513          	mv	a0,s1
   164c8:	02012903          	lw	s2,32(sp)
   164cc:	02412483          	lw	s1,36(sp)
   164d0:	00000713          	li	a4,0
   164d4:	00000613          	li	a2,0
   164d8:	00000593          	li	a1,0
   164dc:	03010113          	addi	sp,sp,48
   164e0:	aa5ff06f          	j	15f84 <emdnorm>
   164e4:	00000d13          	li	s10,0
   164e8:	f8c6e4e3          	bltu	a3,a2,16470 <eiremain+0xe4>
   164ec:	f4dff06f          	j	16438 <eiremain+0xac>

000164f0 <emovo.isra.6>:
   164f0:	00055703          	lhu	a4,0(a0)
   164f4:	00255783          	lhu	a5,2(a0)
   164f8:	00070663          	beqz	a4,16504 <emovo.isra.6+0x14>
   164fc:	00008737          	lui	a4,0x8
   16500:	00e7e7b3          	or	a5,a5,a4
   16504:	00f59923          	sh	a5,18(a1)
   16508:	00255703          	lhu	a4,2(a0)
   1650c:	000087b7          	lui	a5,0x8
   16510:	fff78793          	addi	a5,a5,-1 # 7fff <threadsense.2617+0x7fff>
   16514:	02f70463          	beq	a4,a5,1653c <emovo.isra.6+0x4c>
   16518:	00650793          	addi	a5,a0,6
   1651c:	01058593          	addi	a1,a1,16
   16520:	01850513          	addi	a0,a0,24
   16524:	00278793          	addi	a5,a5,2
   16528:	ffe7d703          	lhu	a4,-2(a5)
   1652c:	ffe58593          	addi	a1,a1,-2
   16530:	00e59123          	sh	a4,2(a1)
   16534:	fea798e3          	bne	a5,a0,16524 <emovo.isra.6+0x34>
   16538:	00008067          	ret
   1653c:	00650793          	addi	a5,a0,6
   16540:	01a50513          	addi	a0,a0,26
   16544:	0007d703          	lhu	a4,0(a5)
   16548:	00278793          	addi	a5,a5,2
   1654c:	02071a63          	bnez	a4,16580 <emovo.isra.6+0x90>
   16550:	fea79ae3          	bne	a5,a0,16544 <emovo.isra.6+0x54>
   16554:	01258713          	addi	a4,a1,18
   16558:	00058793          	mv	a5,a1
   1655c:	00278793          	addi	a5,a5,2
   16560:	fe079f23          	sh	zero,-2(a5)
   16564:	fef71ce3          	bne	a4,a5,1655c <emovo.isra.6+0x6c>
   16568:	0125d783          	lhu	a5,18(a1)
   1656c:	00008737          	lui	a4,0x8
   16570:	fff70713          	addi	a4,a4,-1 # 7fff <threadsense.2617+0x7fff>
   16574:	00e7e7b3          	or	a5,a5,a4
   16578:	00f59923          	sh	a5,18(a1)
   1657c:	00008067          	ret
   16580:	01058713          	addi	a4,a1,16
   16584:	00058793          	mv	a5,a1
   16588:	00278793          	addi	a5,a5,2
   1658c:	fe079f23          	sh	zero,-2(a5)
   16590:	fef71ce3          	bne	a4,a5,16588 <emovo.isra.6+0x98>
   16594:	7fffc7b7          	lui	a5,0x7fffc
   16598:	00f5a823          	sw	a5,16(a1)
   1659c:	00008067          	ret

000165a0 <emul>:
   165a0:	f7010113          	addi	sp,sp,-144
   165a4:	07512a23          	sw	s5,116(sp)
   165a8:	01255a83          	lhu	s5,18(a0)
   165ac:	000087b7          	lui	a5,0x8
   165b0:	fff78793          	addi	a5,a5,-1 # 7fff <threadsense.2617+0x7fff>
   165b4:	08812423          	sw	s0,136(sp)
   165b8:	08912223          	sw	s1,132(sp)
   165bc:	09212023          	sw	s2,128(sp)
   165c0:	07312e23          	sw	s3,124(sp)
   165c4:	07612823          	sw	s6,112(sp)
   165c8:	08112623          	sw	ra,140(sp)
   165cc:	07412c23          	sw	s4,120(sp)
   165d0:	07712623          	sw	s7,108(sp)
   165d4:	07812423          	sw	s8,104(sp)
   165d8:	07912223          	sw	s9,100(sp)
   165dc:	0157fb33          	and	s6,a5,s5
   165e0:	00050493          	mv	s1,a0
   165e4:	00058913          	mv	s2,a1
   165e8:	00060413          	mv	s0,a2
   165ec:	00068993          	mv	s3,a3
   165f0:	0afb1863          	bne	s6,a5,166a0 <emul+0x100>
   165f4:	b98ff0ef          	jal	ra,1598c <eisnan.part.0>
   165f8:	20051c63          	bnez	a0,16810 <emul+0x270>
   165fc:	01295a03          	lhu	s4,18(s2)
   16600:	014b77b3          	and	a5,s6,s4
   16604:	23679463          	bne	a5,s6,1682c <emul+0x28c>
   16608:	00090513          	mv	a0,s2
   1660c:	b80ff0ef          	jal	ra,1598c <eisnan.part.0>
   16610:	0a051463          	bnez	a0,166b8 <emul+0x118>
   16614:	00048513          	mv	a0,s1
   16618:	e28ff0ef          	jal	ra,15c40 <eisinf.part.1>
   1661c:	20051e63          	bnez	a0,16838 <emul+0x298>
   16620:	000087b7          	lui	a5,0x8
   16624:	fff78793          	addi	a5,a5,-1 # 7fff <threadsense.2617+0x7fff>
   16628:	0147fa33          	and	s4,a5,s4
   1662c:	010a1a13          	slli	s4,s4,0x10
   16630:	010a5a13          	srli	s4,s4,0x10
   16634:	2cfa1663          	bne	s4,a5,16900 <emul+0x360>
   16638:	00090513          	mv	a0,s2
   1663c:	e04ff0ef          	jal	ra,15c40 <eisinf.part.1>
   16640:	32051263          	bnez	a0,16964 <emul+0x3c4>
   16644:	0124d783          	lhu	a5,18(s1)
   16648:	00fa77b3          	and	a5,s4,a5
   1664c:	21478463          	beq	a5,s4,16854 <emul+0x2b4>
   16650:	00048513          	mv	a0,s1
   16654:	00c10593          	addi	a1,sp,12
   16658:	be4ff0ef          	jal	ra,15a3c <emovi>
   1665c:	00090513          	mv	a0,s2
   16660:	02810593          	addi	a1,sp,40
   16664:	bd8ff0ef          	jal	ra,15a3c <emovi>
   16668:	00e15483          	lhu	s1,14(sp)
   1666c:	02a15903          	lhu	s2,42(sp)
   16670:	08049a63          	bnez	s1,16704 <emul+0x164>
   16674:	01010793          	addi	a5,sp,16
   16678:	02410693          	addi	a3,sp,36
   1667c:	2cd78063          	beq	a5,a3,1693c <emul+0x39c>
   16680:	00278793          	addi	a5,a5,2
   16684:	ffe7d703          	lhu	a4,-2(a5)
   16688:	fe070ae3          	beqz	a4,1667c <emul+0xdc>
   1668c:	00c10513          	addi	a0,sp,12
   16690:	f78ff0ef          	jal	ra,15e08 <enormlz>
   16694:	40a004b3          	neg	s1,a0
   16698:	02a15703          	lhu	a4,42(sp)
   1669c:	06c0006f          	j	16708 <emul+0x168>
   166a0:	0125da03          	lhu	s4,18(a1)
   166a4:	0147f733          	and	a4,a5,s4
   166a8:	faf714e3          	bne	a4,a5,16650 <emul+0xb0>
   166ac:	00058513          	mv	a0,a1
   166b0:	adcff0ef          	jal	ra,1598c <eisnan.part.0>
   166b4:	f60506e3          	beqz	a0,16620 <emul+0x80>
   166b8:	01490713          	addi	a4,s2,20
   166bc:	00290913          	addi	s2,s2,2
   166c0:	ffe95783          	lhu	a5,-2(s2)
   166c4:	00240413          	addi	s0,s0,2
   166c8:	fef41f23          	sh	a5,-2(s0)
   166cc:	fee918e3          	bne	s2,a4,166bc <emul+0x11c>
   166d0:	08c12083          	lw	ra,140(sp)
   166d4:	08812403          	lw	s0,136(sp)
   166d8:	08412483          	lw	s1,132(sp)
   166dc:	08012903          	lw	s2,128(sp)
   166e0:	07c12983          	lw	s3,124(sp)
   166e4:	07812a03          	lw	s4,120(sp)
   166e8:	07412a83          	lw	s5,116(sp)
   166ec:	07012b03          	lw	s6,112(sp)
   166f0:	06c12b83          	lw	s7,108(sp)
   166f4:	06812c03          	lw	s8,104(sp)
   166f8:	06412c83          	lw	s9,100(sp)
   166fc:	09010113          	addi	sp,sp,144
   16700:	00008067          	ret
   16704:	00090713          	mv	a4,s2
   16708:	00090b13          	mv	s6,s2
   1670c:	02c10793          	addi	a5,sp,44
   16710:	04010693          	addi	a3,sp,64
   16714:	02071263          	bnez	a4,16738 <emul+0x198>
   16718:	22f68c63          	beq	a3,a5,16950 <emul+0x3b0>
   1671c:	00278793          	addi	a5,a5,2
   16720:	ffe7d703          	lhu	a4,-2(a5)
   16724:	fe070ae3          	beqz	a4,16718 <emul+0x178>
   16728:	02810513          	addi	a0,sp,40
   1672c:	edcff0ef          	jal	ra,15e08 <enormlz>
   16730:	02a15703          	lhu	a4,42(sp)
   16734:	40a90b33          	sub	s6,s2,a0
   16738:	02815783          	lhu	a5,40(sp)
   1673c:	03898a93          	addi	s5,s3,56
   16740:	02e99b23          	sh	a4,54(s3)
   16744:	02f99a23          	sh	a5,52(s3)
   16748:	04e98713          	addi	a4,s3,78
   1674c:	000a8793          	mv	a5,s5
   16750:	00079023          	sh	zero,0(a5)
   16754:	00278793          	addi	a5,a5,2
   16758:	fef71ce3          	bne	a4,a5,16750 <emul+0x1b0>
   1675c:	04c98b93          	addi	s7,s3,76
   16760:	00000a13          	li	s4,0
   16764:	02410913          	addi	s2,sp,36
   16768:	01010c93          	addi	s9,sp,16
   1676c:	04610c13          	addi	s8,sp,70
   16770:	00095503          	lhu	a0,0(s2)
   16774:	ffe90913          	addi	s2,s2,-2
   16778:	14051263          	bnez	a0,168bc <emul+0x31c>
   1677c:	04c9d703          	lhu	a4,76(s3)
   16780:	000b8793          	mv	a5,s7
   16784:	00ea6a33          	or	s4,s4,a4
   16788:	ffe78793          	addi	a5,a5,-2
   1678c:	0007d703          	lhu	a4,0(a5)
   16790:	00e79123          	sh	a4,2(a5)
   16794:	ff579ae3          	bne	a5,s5,16788 <emul+0x1e8>
   16798:	02099c23          	sh	zero,56(s3)
   1679c:	fd991ae3          	bne	s2,s9,16770 <emul+0x1d0>
   167a0:	03498713          	addi	a4,s3,52
   167a4:	02810793          	addi	a5,sp,40
   167a8:	04210693          	addi	a3,sp,66
   167ac:	00075603          	lhu	a2,0(a4)
   167b0:	00278793          	addi	a5,a5,2
   167b4:	00270713          	addi	a4,a4,2
   167b8:	fec79f23          	sh	a2,-2(a5)
   167bc:	fef698e3          	bne	a3,a5,167ac <emul+0x20c>
   167c0:	ffffc6b7          	lui	a3,0xffffc
   167c4:	016484b3          	add	s1,s1,s6
   167c8:	00268693          	addi	a3,a3,2 # ffffc002 <__global_pointer$+0xfffd3d32>
   167cc:	000a0593          	mv	a1,s4
   167d0:	02810513          	addi	a0,sp,40
   167d4:	00098793          	mv	a5,s3
   167d8:	04000713          	li	a4,64
   167dc:	00d486b3          	add	a3,s1,a3
   167e0:	00000613          	li	a2,0
   167e4:	fa0ff0ef          	jal	ra,15f84 <emdnorm>
   167e8:	02815703          	lhu	a4,40(sp)
   167ec:	00c15783          	lhu	a5,12(sp)
   167f0:	00040593          	mv	a1,s0
   167f4:	02810513          	addi	a0,sp,40
   167f8:	40e787b3          	sub	a5,a5,a4
   167fc:	00f037b3          	snez	a5,a5
   16800:	40f007b3          	neg	a5,a5
   16804:	02f11423          	sh	a5,40(sp)
   16808:	ce9ff0ef          	jal	ra,164f0 <emovo.isra.6>
   1680c:	ec5ff06f          	j	166d0 <emul+0x130>
   16810:	01448713          	addi	a4,s1,20
   16814:	00248493          	addi	s1,s1,2
   16818:	ffe4d783          	lhu	a5,-2(s1)
   1681c:	00240413          	addi	s0,s0,2
   16820:	fef41f23          	sh	a5,-2(s0)
   16824:	fee498e3          	bne	s1,a4,16814 <emul+0x274>
   16828:	ea9ff06f          	j	166d0 <emul+0x130>
   1682c:	00048513          	mv	a0,s1
   16830:	c10ff0ef          	jal	ra,15c40 <eisinf.part.1>
   16834:	0c050863          	beqz	a0,16904 <emul+0x364>
   16838:	0000e597          	auipc	a1,0xe
   1683c:	2d458593          	addi	a1,a1,724 # 24b0c <ezero>
   16840:	00090513          	mv	a0,s2
   16844:	ae0ff0ef          	jal	ra,15b24 <ecmp>
   16848:	14050063          	beqz	a0,16988 <emul+0x3e8>
   1684c:	01295a03          	lhu	s4,18(s2)
   16850:	dd1ff06f          	j	16620 <emul+0x80>
   16854:	00048513          	mv	a0,s1
   16858:	be8ff0ef          	jal	ra,15c40 <eisinf.part.1>
   1685c:	00051863          	bnez	a0,1686c <emul+0x2cc>
   16860:	00090513          	mv	a0,s2
   16864:	bdcff0ef          	jal	ra,15c40 <eisinf.part.1>
   16868:	de0504e3          	beqz	a0,16650 <emul+0xb0>
   1686c:	00048513          	mv	a0,s1
   16870:	98cff0ef          	jal	ra,159fc <eisneg>
   16874:	00050493          	mv	s1,a0
   16878:	00090513          	mv	a0,s2
   1687c:	980ff0ef          	jal	ra,159fc <eisneg>
   16880:	40a48533          	sub	a0,s1,a0
   16884:	00a03533          	snez	a0,a0
   16888:	00f51513          	slli	a0,a0,0xf
   1688c:	00a41923          	sh	a0,18(s0)
   16890:	01240713          	addi	a4,s0,18
   16894:	00040793          	mv	a5,s0
   16898:	00278793          	addi	a5,a5,2
   1689c:	fe079f23          	sh	zero,-2(a5)
   168a0:	fee79ce3          	bne	a5,a4,16898 <emul+0x2f8>
   168a4:	01245783          	lhu	a5,18(s0)
   168a8:	00008737          	lui	a4,0x8
   168ac:	fff70713          	addi	a4,a4,-1 # 7fff <threadsense.2617+0x7fff>
   168b0:	00e7e7b3          	or	a5,a5,a4
   168b4:	00f41923          	sh	a5,18(s0)
   168b8:	e19ff06f          	j	166d0 <emul+0x130>
   168bc:	04410613          	addi	a2,sp,68
   168c0:	02810593          	addi	a1,sp,40
   168c4:	830ff0ef          	jal	ra,158f4 <m16m>
   168c8:	000b8613          	mv	a2,s7
   168cc:	00000593          	li	a1,0
   168d0:	05c10713          	addi	a4,sp,92
   168d4:	00065503          	lhu	a0,0(a2)
   168d8:	00075783          	lhu	a5,0(a4)
   168dc:	ffe60613          	addi	a2,a2,-2
   168e0:	ffe70713          	addi	a4,a4,-2
   168e4:	00a787b3          	add	a5,a5,a0
   168e8:	00b787b3          	add	a5,a5,a1
   168ec:	00f61123          	sh	a5,2(a2)
   168f0:	0107d793          	srli	a5,a5,0x10
   168f4:	0017f593          	andi	a1,a5,1
   168f8:	fd871ee3          	bne	a4,s8,168d4 <emul+0x334>
   168fc:	e81ff06f          	j	1677c <emul+0x1dc>
   16900:	0124da83          	lhu	s5,18(s1)
   16904:	000087b7          	lui	a5,0x8
   16908:	fff78793          	addi	a5,a5,-1 # 7fff <threadsense.2617+0x7fff>
   1690c:	0157fab3          	and	s5,a5,s5
   16910:	010a9a93          	slli	s5,s5,0x10
   16914:	010ada93          	srli	s5,s5,0x10
   16918:	d2fa9ce3          	bne	s5,a5,16650 <emul+0xb0>
   1691c:	00048513          	mv	a0,s1
   16920:	b20ff0ef          	jal	ra,15c40 <eisinf.part.1>
   16924:	f40514e3          	bnez	a0,1686c <emul+0x2cc>
   16928:	01295783          	lhu	a5,18(s2)
   1692c:	fff7c793          	not	a5,a5
   16930:	01179713          	slli	a4,a5,0x11
   16934:	d0071ee3          	bnez	a4,16650 <emul+0xb0>
   16938:	f29ff06f          	j	16860 <emul+0x2c0>
   1693c:	01440793          	addi	a5,s0,20
   16940:	00240413          	addi	s0,s0,2
   16944:	fe041f23          	sh	zero,-2(s0)
   16948:	fe879ce3          	bne	a5,s0,16940 <emul+0x3a0>
   1694c:	d85ff06f          	j	166d0 <emul+0x130>
   16950:	01440793          	addi	a5,s0,20
   16954:	00240413          	addi	s0,s0,2
   16958:	fe041f23          	sh	zero,-2(s0)
   1695c:	fef41ce3          	bne	s0,a5,16954 <emul+0x3b4>
   16960:	d71ff06f          	j	166d0 <emul+0x130>
   16964:	0000e597          	auipc	a1,0xe
   16968:	1a858593          	addi	a1,a1,424 # 24b0c <ezero>
   1696c:	00048513          	mv	a0,s1
   16970:	9b4ff0ef          	jal	ra,15b24 <ecmp>
   16974:	00050a63          	beqz	a0,16988 <emul+0x3e8>
   16978:	0124d783          	lhu	a5,18(s1)
   1697c:	00fa77b3          	and	a5,s4,a5
   16980:	f9478ee3          	beq	a5,s4,1691c <emul+0x37c>
   16984:	fa5ff06f          	j	16928 <emul+0x388>
   16988:	01040713          	addi	a4,s0,16
   1698c:	00040793          	mv	a5,s0
   16990:	00278793          	addi	a5,a5,2
   16994:	fe079f23          	sh	zero,-2(a5)
   16998:	fee79ce3          	bne	a5,a4,16990 <emul+0x3f0>
   1699c:	7fffc7b7          	lui	a5,0x7fffc
   169a0:	00f42823          	sw	a5,16(s0)
   169a4:	d2dff06f          	j	166d0 <emul+0x130>

000169a8 <ediv>:
   169a8:	01255783          	lhu	a5,18(a0)
   169ac:	f5010113          	addi	sp,sp,-176
   169b0:	0a812423          	sw	s0,168(sp)
   169b4:	fff7c793          	not	a5,a5
   169b8:	0a912223          	sw	s1,164(sp)
   169bc:	0b212023          	sw	s2,160(sp)
   169c0:	09612823          	sw	s6,144(sp)
   169c4:	0a112623          	sw	ra,172(sp)
   169c8:	09312e23          	sw	s3,156(sp)
   169cc:	09412c23          	sw	s4,152(sp)
   169d0:	09512a23          	sw	s5,148(sp)
   169d4:	09712623          	sw	s7,140(sp)
   169d8:	09812423          	sw	s8,136(sp)
   169dc:	09912223          	sw	s9,132(sp)
   169e0:	09a12023          	sw	s10,128(sp)
   169e4:	07b12e23          	sw	s11,124(sp)
   169e8:	01179713          	slli	a4,a5,0x11
   169ec:	00050493          	mv	s1,a0
   169f0:	00058913          	mv	s2,a1
   169f4:	00060413          	mv	s0,a2
   169f8:	00068b13          	mv	s6,a3
   169fc:	00071663          	bnez	a4,16a08 <ediv+0x60>
   16a00:	f8dfe0ef          	jal	ra,1598c <eisnan.part.0>
   16a04:	38051063          	bnez	a0,16d84 <ediv+0x3dc>
   16a08:	01295783          	lhu	a5,18(s2)
   16a0c:	fff7c793          	not	a5,a5
   16a10:	01179713          	slli	a4,a5,0x11
   16a14:	08070e63          	beqz	a4,16ab0 <ediv+0x108>
   16a18:	0000e597          	auipc	a1,0xe
   16a1c:	0f458593          	addi	a1,a1,244 # 24b0c <ezero>
   16a20:	00048513          	mv	a0,s1
   16a24:	900ff0ef          	jal	ra,15b24 <ecmp>
   16a28:	10050463          	beqz	a0,16b30 <ediv+0x188>
   16a2c:	0124d983          	lhu	s3,18(s1)
   16a30:	01295703          	lhu	a4,18(s2)
   16a34:	000087b7          	lui	a5,0x8
   16a38:	fff78793          	addi	a5,a5,-1 # 7fff <threadsense.2617+0x7fff>
   16a3c:	0137f9b3          	and	s3,a5,s3
   16a40:	00e7fa33          	and	s4,a5,a4
   16a44:	08f99a63          	bne	s3,a5,16ad8 <ediv+0x130>
   16a48:	00048513          	mv	a0,s1
   16a4c:	9f4ff0ef          	jal	ra,15c40 <eisinf.part.1>
   16a50:	10050a63          	beqz	a0,16b64 <ediv+0x1bc>
   16a54:	013a1863          	bne	s4,s3,16a64 <ediv+0xbc>
   16a58:	00090513          	mv	a0,s2
   16a5c:	9e4ff0ef          	jal	ra,15c40 <eisinf.part.1>
   16a60:	0e051263          	bnez	a0,16b44 <ediv+0x19c>
   16a64:	01440793          	addi	a5,s0,20
   16a68:	00240413          	addi	s0,s0,2
   16a6c:	fe041f23          	sh	zero,-2(s0)
   16a70:	fef41ce3          	bne	s0,a5,16a68 <ediv+0xc0>
   16a74:	0ac12083          	lw	ra,172(sp)
   16a78:	0a812403          	lw	s0,168(sp)
   16a7c:	0a412483          	lw	s1,164(sp)
   16a80:	0a012903          	lw	s2,160(sp)
   16a84:	09c12983          	lw	s3,156(sp)
   16a88:	09812a03          	lw	s4,152(sp)
   16a8c:	09412a83          	lw	s5,148(sp)
   16a90:	09012b03          	lw	s6,144(sp)
   16a94:	08c12b83          	lw	s7,140(sp)
   16a98:	08812c03          	lw	s8,136(sp)
   16a9c:	08412c83          	lw	s9,132(sp)
   16aa0:	08012d03          	lw	s10,128(sp)
   16aa4:	07c12d83          	lw	s11,124(sp)
   16aa8:	0b010113          	addi	sp,sp,176
   16aac:	00008067          	ret
   16ab0:	00090513          	mv	a0,s2
   16ab4:	ed9fe0ef          	jal	ra,1598c <eisnan.part.0>
   16ab8:	f60500e3          	beqz	a0,16a18 <ediv+0x70>
   16abc:	01490713          	addi	a4,s2,20
   16ac0:	00290913          	addi	s2,s2,2
   16ac4:	ffe95783          	lhu	a5,-2(s2)
   16ac8:	00240413          	addi	s0,s0,2
   16acc:	fef41f23          	sh	a5,-2(s0)
   16ad0:	fee918e3          	bne	s2,a4,16ac0 <ediv+0x118>
   16ad4:	fa1ff06f          	j	16a74 <ediv+0xcc>
   16ad8:	08fa0863          	beq	s4,a5,16b68 <ediv+0x1c0>
   16adc:	00048513          	mv	a0,s1
   16ae0:	01c10593          	addi	a1,sp,28
   16ae4:	f59fe0ef          	jal	ra,15a3c <emovi>
   16ae8:	03810593          	addi	a1,sp,56
   16aec:	00090513          	mv	a0,s2
   16af0:	f4dfe0ef          	jal	ra,15a3c <emovi>
   16af4:	03a15b83          	lhu	s7,58(sp)
   16af8:	01e15483          	lhu	s1,30(sp)
   16afc:	0c0b9463          	bnez	s7,16bc4 <ediv+0x21c>
   16b00:	03c10793          	addi	a5,sp,60
   16b04:	05010b93          	addi	s7,sp,80
   16b08:	34fb8663          	beq	s7,a5,16e54 <ediv+0x4ac>
   16b0c:	00278793          	addi	a5,a5,2
   16b10:	ffe7d683          	lhu	a3,-2(a5)
   16b14:	fe068ae3          	beqz	a3,16b08 <ediv+0x160>
   16b18:	03810513          	addi	a0,sp,56
   16b1c:	aecff0ef          	jal	ra,15e08 <enormlz>
   16b20:	40a007b3          	neg	a5,a0
   16b24:	00f12623          	sw	a5,12(sp)
   16b28:	01e15603          	lhu	a2,30(sp)
   16b2c:	0a00006f          	j	16bcc <ediv+0x224>
   16b30:	0000e597          	auipc	a1,0xe
   16b34:	fdc58593          	addi	a1,a1,-36 # 24b0c <ezero>
   16b38:	00090513          	mv	a0,s2
   16b3c:	fe9fe0ef          	jal	ra,15b24 <ecmp>
   16b40:	ee0516e3          	bnez	a0,16a2c <ediv+0x84>
   16b44:	01040713          	addi	a4,s0,16
   16b48:	00040793          	mv	a5,s0
   16b4c:	00278793          	addi	a5,a5,2
   16b50:	fe079f23          	sh	zero,-2(a5)
   16b54:	fee79ce3          	bne	a5,a4,16b4c <ediv+0x1a4>
   16b58:	7fffc7b7          	lui	a5,0x7fffc
   16b5c:	00f42823          	sw	a5,16(s0)
   16b60:	f15ff06f          	j	16a74 <ediv+0xcc>
   16b64:	f73a1ce3          	bne	s4,s3,16adc <ediv+0x134>
   16b68:	00090513          	mv	a0,s2
   16b6c:	8d4ff0ef          	jal	ra,15c40 <eisinf.part.1>
   16b70:	f60506e3          	beqz	a0,16adc <ediv+0x134>
   16b74:	00048513          	mv	a0,s1
   16b78:	e85fe0ef          	jal	ra,159fc <eisneg>
   16b7c:	00050493          	mv	s1,a0
   16b80:	00090513          	mv	a0,s2
   16b84:	e79fe0ef          	jal	ra,159fc <eisneg>
   16b88:	40a487b3          	sub	a5,s1,a0
   16b8c:	00f037b3          	snez	a5,a5
   16b90:	00f79793          	slli	a5,a5,0xf
   16b94:	00f41923          	sh	a5,18(s0)
   16b98:	01240713          	addi	a4,s0,18
   16b9c:	00040793          	mv	a5,s0
   16ba0:	00278793          	addi	a5,a5,2 # 7fffc002 <__global_pointer$+0x7ffd3d32>
   16ba4:	fe079f23          	sh	zero,-2(a5)
   16ba8:	fee79ce3          	bne	a5,a4,16ba0 <ediv+0x1f8>
   16bac:	01245783          	lhu	a5,18(s0)
   16bb0:	00008737          	lui	a4,0x8
   16bb4:	fff70713          	addi	a4,a4,-1 # 7fff <threadsense.2617+0x7fff>
   16bb8:	00e7e7b3          	or	a5,a5,a4
   16bbc:	00f41923          	sh	a5,18(s0)
   16bc0:	eb5ff06f          	j	16a74 <ediv+0xcc>
   16bc4:	01712623          	sw	s7,12(sp)
   16bc8:	00048613          	mv	a2,s1
   16bcc:	00912423          	sw	s1,8(sp)
   16bd0:	02010793          	addi	a5,sp,32
   16bd4:	03410693          	addi	a3,sp,52
   16bd8:	02061263          	bnez	a2,16bfc <ediv+0x254>
   16bdc:	28f68663          	beq	a3,a5,16e68 <ediv+0x4c0>
   16be0:	00278793          	addi	a5,a5,2
   16be4:	ffe7d703          	lhu	a4,-2(a5)
   16be8:	fe070ae3          	beqz	a4,16bdc <ediv+0x234>
   16bec:	01c10513          	addi	a0,sp,28
   16bf0:	a18ff0ef          	jal	ra,15e08 <enormlz>
   16bf4:	40a487b3          	sub	a5,s1,a0
   16bf8:	00f12423          	sw	a5,8(sp)
   16bfc:	03812703          	lw	a4,56(sp)
   16c00:	038b0d13          	addi	s10,s6,56
   16c04:	000d0793          	mv	a5,s10
   16c08:	02eb2a23          	sw	a4,52(s6)
   16c0c:	04eb0493          	addi	s1,s6,78
   16c10:	00278793          	addi	a5,a5,2
   16c14:	fe079f23          	sh	zero,-2(a5)
   16c18:	fef49ce3          	bne	s1,a5,16c10 <ediv+0x268>
   16c1c:	03810513          	addi	a0,sp,56
   16c20:	bfdfe0ef          	jal	ra,1581c <eshdn1>
   16c24:	02215c03          	lhu	s8,34(sp)
   16c28:	000109b7          	lui	s3,0x10
   16c2c:	05010b93          	addi	s7,sp,80
   16c30:	010c1a13          	slli	s4,s8,0x10
   16c34:	418a0a33          	sub	s4,s4,s8
   16c38:	03a10a93          	addi	s5,sp,58
   16c3c:	fff98993          	addi	s3,s3,-1 # ffff <threadsense.2617+0xffff>
   16c40:	06e10c93          	addi	s9,sp,110
   16c44:	05610913          	addi	s2,sp,86
   16c48:	03c15503          	lhu	a0,60(sp)
   16c4c:	03e15783          	lhu	a5,62(sp)
   16c50:	00098d93          	mv	s11,s3
   16c54:	01051513          	slli	a0,a0,0x10
   16c58:	00f50533          	add	a0,a0,a5
   16c5c:	00aa6863          	bltu	s4,a0,16c6c <ediv+0x2c4>
   16c60:	03855533          	divu	a0,a0,s8
   16c64:	01051d93          	slli	s11,a0,0x10
   16c68:	010ddd93          	srli	s11,s11,0x10
   16c6c:	05410613          	addi	a2,sp,84
   16c70:	01c10593          	addi	a1,sp,28
   16c74:	000d8513          	mv	a0,s11
   16c78:	c7dfe0ef          	jal	ra,158f4 <m16m>
   16c7c:	03c10613          	addi	a2,sp,60
   16c80:	05810793          	addi	a5,sp,88
   16c84:	00278793          	addi	a5,a5,2
   16c88:	00260613          	addi	a2,a2,2
   16c8c:	ffe7d503          	lhu	a0,-2(a5)
   16c90:	ffe65583          	lhu	a1,-2(a2)
   16c94:	10b51663          	bne	a0,a1,16da0 <ediv+0x3f8>
   16c98:	ff9796e3          	bne	a5,s9,16c84 <ediv+0x2dc>
   16c9c:	00000513          	li	a0,0
   16ca0:	06c10593          	addi	a1,sp,108
   16ca4:	000b8613          	mv	a2,s7
   16ca8:	00065783          	lhu	a5,0(a2)
   16cac:	0005d803          	lhu	a6,0(a1)
   16cb0:	ffe60613          	addi	a2,a2,-2
   16cb4:	40a787b3          	sub	a5,a5,a0
   16cb8:	410787b3          	sub	a5,a5,a6
   16cbc:	00f61123          	sh	a5,2(a2)
   16cc0:	0107d793          	srli	a5,a5,0x10
   16cc4:	ffe58593          	addi	a1,a1,-2
   16cc8:	0017f513          	andi	a0,a5,1
   16ccc:	fd561ee3          	bne	a2,s5,16ca8 <ediv+0x300>
   16cd0:	01bd1023          	sh	s11,0(s10)
   16cd4:	03c10793          	addi	a5,sp,60
   16cd8:	00278793          	addi	a5,a5,2
   16cdc:	0007d603          	lhu	a2,0(a5)
   16ce0:	fec79f23          	sh	a2,-2(a5)
   16ce4:	ff779ae3          	bne	a5,s7,16cd8 <ediv+0x330>
   16ce8:	04011823          	sh	zero,80(sp)
   16cec:	002d0d13          	addi	s10,s10,2
   16cf0:	f5a49ce3          	bne	s1,s10,16c48 <ediv+0x2a0>
   16cf4:	00000593          	li	a1,0
   16cf8:	03c10793          	addi	a5,sp,60
   16cfc:	05210693          	addi	a3,sp,82
   16d00:	00278793          	addi	a5,a5,2
   16d04:	ffe7d703          	lhu	a4,-2(a5)
   16d08:	00e5e5b3          	or	a1,a1,a4
   16d0c:	fed79ae3          	bne	a5,a3,16d00 <ediv+0x358>
   16d10:	00b035b3          	snez	a1,a1
   16d14:	034b0713          	addi	a4,s6,52
   16d18:	03810793          	addi	a5,sp,56
   16d1c:	00075603          	lhu	a2,0(a4)
   16d20:	00278793          	addi	a5,a5,2
   16d24:	00270713          	addi	a4,a4,2
   16d28:	fec79f23          	sh	a2,-2(a5)
   16d2c:	fef698e3          	bne	a3,a5,16d1c <ediv+0x374>
   16d30:	00c12783          	lw	a5,12(sp)
   16d34:	00812703          	lw	a4,8(sp)
   16d38:	000046b7          	lui	a3,0x4
   16d3c:	fff68693          	addi	a3,a3,-1 # 3fff <threadsense.2617+0x3fff>
   16d40:	40e78bb3          	sub	s7,a5,a4
   16d44:	03810513          	addi	a0,sp,56
   16d48:	000b0793          	mv	a5,s6
   16d4c:	04000713          	li	a4,64
   16d50:	00db86b3          	add	a3,s7,a3
   16d54:	00000613          	li	a2,0
   16d58:	a2cff0ef          	jal	ra,15f84 <emdnorm>
   16d5c:	03815703          	lhu	a4,56(sp)
   16d60:	01c15783          	lhu	a5,28(sp)
   16d64:	00040593          	mv	a1,s0
   16d68:	03810513          	addi	a0,sp,56
   16d6c:	40e787b3          	sub	a5,a5,a4
   16d70:	00f037b3          	snez	a5,a5
   16d74:	40f007b3          	neg	a5,a5
   16d78:	02f11c23          	sh	a5,56(sp)
   16d7c:	f74ff0ef          	jal	ra,164f0 <emovo.isra.6>
   16d80:	cf5ff06f          	j	16a74 <ediv+0xcc>
   16d84:	01448713          	addi	a4,s1,20
   16d88:	00248493          	addi	s1,s1,2
   16d8c:	ffe4d783          	lhu	a5,-2(s1)
   16d90:	00240413          	addi	s0,s0,2
   16d94:	fef41f23          	sh	a5,-2(s0)
   16d98:	fee498e3          	bne	s1,a4,16d88 <ediv+0x3e0>
   16d9c:	cd9ff06f          	j	16a74 <ediv+0xcc>
   16da0:	eea5fee3          	bgeu	a1,a0,16c9c <ediv+0x2f4>
   16da4:	fffd8793          	addi	a5,s11,-1 # 3ffdffff <__global_pointer$+0x3ffb7d2f>
   16da8:	01079893          	slli	a7,a5,0x10
   16dac:	0108d893          	srli	a7,a7,0x10
   16db0:	00000513          	li	a0,0
   16db4:	03410593          	addi	a1,sp,52
   16db8:	06c10613          	addi	a2,sp,108
   16dbc:	00065783          	lhu	a5,0(a2)
   16dc0:	0005d803          	lhu	a6,0(a1)
   16dc4:	ffe60613          	addi	a2,a2,-2
   16dc8:	40a787b3          	sub	a5,a5,a0
   16dcc:	410787b3          	sub	a5,a5,a6
   16dd0:	00f61123          	sh	a5,2(a2)
   16dd4:	0107d793          	srli	a5,a5,0x10
   16dd8:	ffe58593          	addi	a1,a1,-2
   16ddc:	0017f513          	andi	a0,a5,1
   16de0:	fd261ee3          	bne	a2,s2,16dbc <ediv+0x414>
   16de4:	03c10613          	addi	a2,sp,60
   16de8:	05810793          	addi	a5,sp,88
   16dec:	00278793          	addi	a5,a5,2
   16df0:	00260613          	addi	a2,a2,2
   16df4:	ffe7d503          	lhu	a0,-2(a5)
   16df8:	ffe65583          	lhu	a1,-2(a2)
   16dfc:	00b51863          	bne	a0,a1,16e0c <ediv+0x464>
   16e00:	ff9796e3          	bne	a5,s9,16dec <ediv+0x444>
   16e04:	00088d93          	mv	s11,a7
   16e08:	e95ff06f          	j	16c9c <ediv+0x2f4>
   16e0c:	fea5fce3          	bgeu	a1,a0,16e04 <ediv+0x45c>
   16e10:	ffed8d93          	addi	s11,s11,-2
   16e14:	010d9d93          	slli	s11,s11,0x10
   16e18:	010ddd93          	srli	s11,s11,0x10
   16e1c:	00000513          	li	a0,0
   16e20:	03410593          	addi	a1,sp,52
   16e24:	06c10613          	addi	a2,sp,108
   16e28:	00065783          	lhu	a5,0(a2)
   16e2c:	0005d803          	lhu	a6,0(a1)
   16e30:	ffe60613          	addi	a2,a2,-2
   16e34:	40a787b3          	sub	a5,a5,a0
   16e38:	410787b3          	sub	a5,a5,a6
   16e3c:	00f61123          	sh	a5,2(a2)
   16e40:	0107d793          	srli	a5,a5,0x10
   16e44:	ffe58593          	addi	a1,a1,-2
   16e48:	0017f513          	andi	a0,a5,1
   16e4c:	fd261ee3          	bne	a2,s2,16e28 <ediv+0x480>
   16e50:	e4dff06f          	j	16c9c <ediv+0x2f4>
   16e54:	01440793          	addi	a5,s0,20
   16e58:	00240413          	addi	s0,s0,2
   16e5c:	fe041f23          	sh	zero,-2(s0)
   16e60:	fe879ce3          	bne	a5,s0,16e58 <ediv+0x4b0>
   16e64:	c11ff06f          	j	16a74 <ediv+0xcc>
   16e68:	01c15703          	lhu	a4,28(sp)
   16e6c:	03815783          	lhu	a5,56(sp)
   16e70:	00f70463          	beq	a4,a5,16e78 <ediv+0x4d0>
   16e74:	00008637          	lui	a2,0x8
   16e78:	00c41923          	sh	a2,18(s0)
   16e7c:	01240713          	addi	a4,s0,18
   16e80:	00040793          	mv	a5,s0
   16e84:	00278793          	addi	a5,a5,2
   16e88:	fe079f23          	sh	zero,-2(a5)
   16e8c:	fef71ce3          	bne	a4,a5,16e84 <ediv+0x4dc>
   16e90:	01245783          	lhu	a5,18(s0)
   16e94:	00008737          	lui	a4,0x8
   16e98:	fff70713          	addi	a4,a4,-1 # 7fff <threadsense.2617+0x7fff>
   16e9c:	00e7e7b3          	or	a5,a5,a4
   16ea0:	00f41923          	sh	a5,18(s0)
   16ea4:	bd1ff06f          	j	16a74 <ediv+0xcc>

00016ea8 <e113toe.isra.8>:
   16ea8:	fd010113          	addi	sp,sp,-48
   16eac:	02812423          	sw	s0,40(sp)
   16eb0:	02112623          	sw	ra,44(sp)
   16eb4:	00058413          	mv	s0,a1
   16eb8:	00410793          	addi	a5,sp,4
   16ebc:	01e10713          	addi	a4,sp,30
   16ec0:	00278793          	addi	a5,a5,2
   16ec4:	fe079f23          	sh	zero,-2(a5)
   16ec8:	fee79ce3          	bne	a5,a4,16ec0 <e113toe.isra.8+0x18>
   16ecc:	00e55603          	lhu	a2,14(a0)
   16ed0:	01061793          	slli	a5,a2,0x10
   16ed4:	4107d793          	srai	a5,a5,0x10
   16ed8:	0607ca63          	bltz	a5,16f4c <e113toe.isra.8+0xa4>
   16edc:	000087b7          	lui	a5,0x8
   16ee0:	fff78793          	addi	a5,a5,-1 # 7fff <threadsense.2617+0x7fff>
   16ee4:	00011223          	sh	zero,4(sp)
   16ee8:	00f67633          	and	a2,a2,a5
   16eec:	06f60c63          	beq	a2,a5,16f64 <e113toe.isra.8+0xbc>
   16ef0:	00e50793          	addi	a5,a0,14
   16ef4:	00c11323          	sh	a2,6(sp)
   16ef8:	00a10713          	addi	a4,sp,10
   16efc:	ffe78793          	addi	a5,a5,-2
   16f00:	0007d683          	lhu	a3,0(a5)
   16f04:	00270713          	addi	a4,a4,2
   16f08:	fed71f23          	sh	a3,-2(a4)
   16f0c:	fef518e3          	bne	a0,a5,16efc <e113toe.isra.8+0x54>
   16f10:	02061263          	bnez	a2,16f34 <e113toe.isra.8+0x8c>
   16f14:	00011423          	sh	zero,8(sp)
   16f18:	00040593          	mv	a1,s0
   16f1c:	00410513          	addi	a0,sp,4
   16f20:	dd0ff0ef          	jal	ra,164f0 <emovo.isra.6>
   16f24:	02c12083          	lw	ra,44(sp)
   16f28:	02812403          	lw	s0,40(sp)
   16f2c:	03010113          	addi	sp,sp,48
   16f30:	00008067          	ret
   16f34:	00100793          	li	a5,1
   16f38:	fff00593          	li	a1,-1
   16f3c:	00410513          	addi	a0,sp,4
   16f40:	00f11423          	sh	a5,8(sp)
   16f44:	d19fe0ef          	jal	ra,15c5c <eshift.part.3>
   16f48:	fd1ff06f          	j	16f18 <e113toe.isra.8+0x70>
   16f4c:	fff00793          	li	a5,-1
   16f50:	00f11223          	sh	a5,4(sp)
   16f54:	000087b7          	lui	a5,0x8
   16f58:	fff78793          	addi	a5,a5,-1 # 7fff <threadsense.2617+0x7fff>
   16f5c:	00f67633          	and	a2,a2,a5
   16f60:	f8f618e3          	bne	a2,a5,16ef0 <e113toe.isra.8+0x48>
   16f64:	00050793          	mv	a5,a0
   16f68:	00e50693          	addi	a3,a0,14
   16f6c:	0007d703          	lhu	a4,0(a5)
   16f70:	00278793          	addi	a5,a5,2
   16f74:	04071c63          	bnez	a4,16fcc <e113toe.isra.8+0x124>
   16f78:	fef69ae3          	bne	a3,a5,16f6c <e113toe.isra.8+0xc4>
   16f7c:	01440713          	addi	a4,s0,20
   16f80:	00040793          	mv	a5,s0
   16f84:	00278793          	addi	a5,a5,2
   16f88:	fe079f23          	sh	zero,-2(a5)
   16f8c:	fee79ce3          	bne	a5,a4,16f84 <e113toe.isra.8+0xdc>
   16f90:	01240713          	addi	a4,s0,18
   16f94:	00040793          	mv	a5,s0
   16f98:	00278793          	addi	a5,a5,2
   16f9c:	fe079f23          	sh	zero,-2(a5)
   16fa0:	fee79ce3          	bne	a5,a4,16f98 <e113toe.isra.8+0xf0>
   16fa4:	01245783          	lhu	a5,18(s0)
   16fa8:	00008737          	lui	a4,0x8
   16fac:	fff70713          	addi	a4,a4,-1 # 7fff <threadsense.2617+0x7fff>
   16fb0:	00e7e7b3          	or	a5,a5,a4
   16fb4:	00f41923          	sh	a5,18(s0)
   16fb8:	00e51783          	lh	a5,14(a0)
   16fbc:	f607d4e3          	bgez	a5,16f24 <e113toe.isra.8+0x7c>
   16fc0:	00040513          	mv	a0,s0
   16fc4:	9edfe0ef          	jal	ra,159b0 <eneg>
   16fc8:	f5dff06f          	j	16f24 <e113toe.isra.8+0x7c>
   16fcc:	01040713          	addi	a4,s0,16
   16fd0:	00040793          	mv	a5,s0
   16fd4:	00278793          	addi	a5,a5,2
   16fd8:	fe079f23          	sh	zero,-2(a5)
   16fdc:	fee79ce3          	bne	a5,a4,16fd4 <e113toe.isra.8+0x12c>
   16fe0:	7fffc7b7          	lui	a5,0x7fffc
   16fe4:	00f42823          	sw	a5,16(s0)
   16fe8:	f3dff06f          	j	16f24 <e113toe.isra.8+0x7c>

00016fec <_ldtoa_r>:
   16fec:	0005ae83          	lw	t4,0(a1)
   16ff0:	0045ae03          	lw	t3,4(a1)
   16ff4:	0085a303          	lw	t1,8(a1)
   16ff8:	00c5a583          	lw	a1,12(a1)
   16ffc:	e1010113          	addi	sp,sp,-496
   17000:	04052883          	lw	a7,64(a0)
   17004:	02b12e23          	sw	a1,60(sp)
   17008:	fff00593          	li	a1,-1
   1700c:	16b12023          	sw	a1,352(sp)
   17010:	09000593          	li	a1,144
   17014:	1e812423          	sw	s0,488(sp)
   17018:	1d612823          	sw	s6,464(sp)
   1701c:	1e112623          	sw	ra,492(sp)
   17020:	1e912223          	sw	s1,484(sp)
   17024:	1f212023          	sw	s2,480(sp)
   17028:	1d312e23          	sw	s3,476(sp)
   1702c:	1d412c23          	sw	s4,472(sp)
   17030:	1d512a23          	sw	s5,468(sp)
   17034:	1d712623          	sw	s7,460(sp)
   17038:	1d812423          	sw	s8,456(sp)
   1703c:	1d912223          	sw	s9,452(sp)
   17040:	1da12023          	sw	s10,448(sp)
   17044:	1bb12e23          	sw	s11,444(sp)
   17048:	03d12823          	sw	t4,48(sp)
   1704c:	03c12a23          	sw	t3,52(sp)
   17050:	02612c23          	sw	t1,56(sp)
   17054:	16b12223          	sw	a1,356(sp)
   17058:	00c12423          	sw	a2,8(sp)
   1705c:	00d12823          	sw	a3,16(sp)
   17060:	00e12a23          	sw	a4,20(sp)
   17064:	03012023          	sw	a6,32(sp)
   17068:	00050b13          	mv	s6,a0
   1706c:	00078413          	mv	s0,a5
   17070:	02088263          	beqz	a7,17094 <_ldtoa_r+0xa8>
   17074:	04452703          	lw	a4,68(a0)
   17078:	00100793          	li	a5,1
   1707c:	00088593          	mv	a1,a7
   17080:	00e797b3          	sll	a5,a5,a4
   17084:	00e8a223          	sw	a4,4(a7)
   17088:	00f8a423          	sw	a5,8(a7)
   1708c:	1ac020ef          	jal	ra,19238 <_Bfree>
   17090:	040b2023          	sw	zero,64(s6)
   17094:	06010a13          	addi	s4,sp,96
   17098:	000a0593          	mv	a1,s4
   1709c:	03010513          	addi	a0,sp,48
   170a0:	e09ff0ef          	jal	ra,16ea8 <e113toe.isra.8>
   170a4:	000a0513          	mv	a0,s4
   170a8:	955fe0ef          	jal	ra,159fc <eisneg>
   170ac:	00812703          	lw	a4,8(sp)
   170b0:	00a03533          	snez	a0,a0
   170b4:	00a42023          	sw	a0,0(s0)
   170b8:	00300793          	li	a5,3
   170bc:	1af704e3          	beq	a4,a5,17a64 <_ldtoa_r+0xa78>
   170c0:	01400793          	li	a5,20
   170c4:	00f12623          	sw	a5,12(sp)
   170c8:	600710e3          	bnez	a4,17ec8 <_ldtoa_r+0xedc>
   170cc:	07215783          	lhu	a5,114(sp)
   170d0:	16412703          	lw	a4,356(sp)
   170d4:	fff7c793          	not	a5,a5
   170d8:	00e12e23          	sw	a4,28(sp)
   170dc:	01179713          	slli	a4,a5,0x11
   170e0:	00071863          	bnez	a4,170f0 <_ldtoa_r+0x104>
   170e4:	000a0513          	mv	a0,s4
   170e8:	8a5fe0ef          	jal	ra,1598c <eisnan.part.0>
   170ec:	420514e3          	bnez	a0,17d14 <_ldtoa_r+0xd28>
   170f0:	09000793          	li	a5,144
   170f4:	16f12223          	sw	a5,356(sp)
   170f8:	07c10713          	addi	a4,sp,124
   170fc:	000a0793          	mv	a5,s4
   17100:	07410613          	addi	a2,sp,116
   17104:	00278793          	addi	a5,a5,2 # 7fffc002 <__global_pointer$+0x7ffd3d32>
   17108:	ffe7d683          	lhu	a3,-2(a5)
   1710c:	00270713          	addi	a4,a4,2
   17110:	fed71f23          	sh	a3,-2(a4)
   17114:	fec798e3          	bne	a5,a2,17104 <_ldtoa_r+0x118>
   17118:	08e15603          	lhu	a2,142(sp)
   1711c:	00012c23          	sw	zero,24(sp)
   17120:	01061793          	slli	a5,a2,0x10
   17124:	4107d793          	srai	a5,a5,0x10
   17128:	0007de63          	bgez	a5,17144 <_ldtoa_r+0x158>
   1712c:	01161613          	slli	a2,a2,0x11
   17130:	000107b7          	lui	a5,0x10
   17134:	01165613          	srli	a2,a2,0x11
   17138:	fff78793          	addi	a5,a5,-1 # ffff <threadsense.2617+0xffff>
   1713c:	08c11723          	sh	a2,142(sp)
   17140:	00f12c23          	sw	a5,24(sp)
   17144:	00000693          	li	a3,0
   17148:	09810793          	addi	a5,sp,152
   1714c:	0000e717          	auipc	a4,0xe
   17150:	9d470713          	addi	a4,a4,-1580 # 24b20 <eone>
   17154:	0ac10d93          	addi	s11,sp,172
   17158:	0080006f          	j	17160 <_ldtoa_r+0x174>
   1715c:	00075683          	lhu	a3,0(a4)
   17160:	00278793          	addi	a5,a5,2
   17164:	fed79f23          	sh	a3,-2(a5)
   17168:	00270713          	addi	a4,a4,2
   1716c:	ffb798e3          	bne	a5,s11,1715c <_ldtoa_r+0x170>
   17170:	16060663          	beqz	a2,172dc <_ldtoa_r+0x2f0>
   17174:	000087b7          	lui	a5,0x8
   17178:	fff78793          	addi	a5,a5,-1 # 7fff <threadsense.2617+0x7fff>
   1717c:	58f602e3          	beq	a2,a5,17f00 <_ldtoa_r+0xf14>
   17180:	08c11783          	lh	a5,140(sp)
   17184:	6007d4e3          	bgez	a5,17f8c <_ldtoa_r+0xfa0>
   17188:	07c10593          	addi	a1,sp,124
   1718c:	0000e517          	auipc	a0,0xe
   17190:	99450513          	addi	a0,a0,-1644 # 24b20 <eone>
   17194:	991fe0ef          	jal	ra,15b24 <ecmp>
   17198:	14050e63          	beqz	a0,172f4 <_ldtoa_r+0x308>
   1719c:	0e054ae3          	bltz	a0,17a90 <_ldtoa_r+0xaa4>
   171a0:	08e15783          	lhu	a5,142(sp)
   171a4:	680790e3          	bnez	a5,18024 <_ldtoa_r+0x1038>
   171a8:	08c11783          	lh	a5,140(sp)
   171ac:	00000493          	li	s1,0
   171b0:	16010993          	addi	s3,sp,352
   171b4:	0207c663          	bltz	a5,171e0 <_ldtoa_r+0x1f4>
   171b8:	0000e417          	auipc	s0,0xe
   171bc:	a6c40413          	addi	s0,s0,-1428 # 24c24 <etens+0xf0>
   171c0:	07c10613          	addi	a2,sp,124
   171c4:	00098693          	mv	a3,s3
   171c8:	00060593          	mv	a1,a2
   171cc:	00040513          	mv	a0,s0
   171d0:	bd0ff0ef          	jal	ra,165a0 <emul>
   171d4:	08c11783          	lh	a5,140(sp)
   171d8:	fff48493          	addi	s1,s1,-1
   171dc:	fe07d2e3          	bgez	a5,171c0 <_ldtoa_r+0x1d4>
   171e0:	0d010413          	addi	s0,sp,208
   171e4:	0e810b93          	addi	s7,sp,232
   171e8:	00040713          	mv	a4,s0
   171ec:	07c10793          	addi	a5,sp,124
   171f0:	09010613          	addi	a2,sp,144
   171f4:	00278793          	addi	a5,a5,2
   171f8:	ffe7d683          	lhu	a3,-2(a5)
   171fc:	00270713          	addi	a4,a4,2
   17200:	fed71f23          	sh	a3,-2(a4)
   17204:	fec798e3          	bne	a5,a2,171f4 <_ldtoa_r+0x208>
   17208:	00000693          	li	a3,0
   1720c:	09810793          	addi	a5,sp,152
   17210:	0000e717          	auipc	a4,0xe
   17214:	91070713          	addi	a4,a4,-1776 # 24b20 <eone>
   17218:	0080006f          	j	17220 <_ldtoa_r+0x234>
   1721c:	00075683          	lhu	a3,0(a4)
   17220:	00278793          	addi	a5,a5,2
   17224:	fed79f23          	sh	a3,-2(a5)
   17228:	00270713          	addi	a4,a4,2
   1722c:	ffb798e3          	bne	a5,s11,1721c <_ldtoa_r+0x230>
   17230:	fffff937          	lui	s2,0xfffff
   17234:	0000ea97          	auipc	s5,0xe
   17238:	900a8a93          	addi	s5,s5,-1792 # 24b34 <etens>
   1723c:	0000ec97          	auipc	s9,0xe
   17240:	9fcc8c93          	addi	s9,s9,-1540 # 24c38 <emtens>
   17244:	0000ed17          	auipc	s10,0xe
   17248:	8dcd0d13          	addi	s10,s10,-1828 # 24b20 <eone>
   1724c:	0000ed97          	auipc	s11,0xe
   17250:	9d8d8d93          	addi	s11,s11,-1576 # 24c24 <etens+0xf0>
   17254:	00c0006f          	j	17260 <_ldtoa_r+0x274>
   17258:	014c8c93          	addi	s9,s9,20
   1725c:	014a8a93          	addi	s5,s5,20
   17260:	00040593          	mv	a1,s0
   17264:	000d0513          	mv	a0,s10
   17268:	8bdfe0ef          	jal	ra,15b24 <ecmp>
   1726c:	00040593          	mv	a1,s0
   17270:	04a05663          	blez	a0,172bc <_ldtoa_r+0x2d0>
   17274:	000c8513          	mv	a0,s9
   17278:	8adfe0ef          	jal	ra,15b24 <ecmp>
   1727c:	00098693          	mv	a3,s3
   17280:	00040613          	mv	a2,s0
   17284:	00040593          	mv	a1,s0
   17288:	02054263          	bltz	a0,172ac <_ldtoa_r+0x2c0>
   1728c:	000a8513          	mv	a0,s5
   17290:	b10ff0ef          	jal	ra,165a0 <emul>
   17294:	09810613          	addi	a2,sp,152
   17298:	00098693          	mv	a3,s3
   1729c:	00060593          	mv	a1,a2
   172a0:	000a8513          	mv	a0,s5
   172a4:	afcff0ef          	jal	ra,165a0 <emul>
   172a8:	012484b3          	add	s1,s1,s2
   172ac:	01f95793          	srli	a5,s2,0x1f
   172b0:	01278933          	add	s2,a5,s2
   172b4:	40195913          	srai	s2,s2,0x1
   172b8:	fbba90e3          	bne	s5,s11,17258 <_ldtoa_r+0x26c>
   172bc:	09810613          	addi	a2,sp,152
   172c0:	00098693          	mv	a3,s3
   172c4:	0000e597          	auipc	a1,0xe
   172c8:	85c58593          	addi	a1,a1,-1956 # 24b20 <eone>
   172cc:	00060513          	mv	a0,a2
   172d0:	ed8ff0ef          	jal	ra,169a8 <ediv>
   172d4:	12410913          	addi	s2,sp,292
   172d8:	0300006f          	j	17308 <_ldtoa_r+0x31c>
   172dc:	07c10793          	addi	a5,sp,124
   172e0:	08e10693          	addi	a3,sp,142
   172e4:	0007d703          	lhu	a4,0(a5)
   172e8:	00278793          	addi	a5,a5,2
   172ec:	e8071ee3          	bnez	a4,17188 <_ldtoa_r+0x19c>
   172f0:	fef69ae3          	bne	a3,a5,172e4 <_ldtoa_r+0x2f8>
   172f4:	00000493          	li	s1,0
   172f8:	12410913          	addi	s2,sp,292
   172fc:	16010993          	addi	s3,sp,352
   17300:	0d010413          	addi	s0,sp,208
   17304:	0e810b93          	addi	s7,sp,232
   17308:	00040593          	mv	a1,s0
   1730c:	09810513          	addi	a0,sp,152
   17310:	f2cfe0ef          	jal	ra,15a3c <emovi>
   17314:	09810713          	addi	a4,sp,152
   17318:	00040793          	mv	a5,s0
   1731c:	00278793          	addi	a5,a5,2
   17320:	ffe7d683          	lhu	a3,-2(a5)
   17324:	00270713          	addi	a4,a4,2
   17328:	fed71f23          	sh	a3,-2(a4)
   1732c:	ff7798e3          	bne	a5,s7,1731c <_ldtoa_r+0x330>
   17330:	00040593          	mv	a1,s0
   17334:	07c10513          	addi	a0,sp,124
   17338:	0a011823          	sh	zero,176(sp)
   1733c:	f00fe0ef          	jal	ra,15a3c <emovi>
   17340:	07c10793          	addi	a5,sp,124
   17344:	00240413          	addi	s0,s0,2
   17348:	ffe45703          	lhu	a4,-2(s0)
   1734c:	00278793          	addi	a5,a5,2
   17350:	fee79f23          	sh	a4,-2(a5)
   17354:	ff7418e3          	bne	s0,s7,17344 <_ldtoa_r+0x358>
   17358:	09810513          	addi	a0,sp,152
   1735c:	00098613          	mv	a2,s3
   17360:	07c10593          	addi	a1,sp,124
   17364:	08011a23          	sh	zero,148(sp)
   17368:	824ff0ef          	jal	ra,1638c <eiremain>
   1736c:	1ac15503          	lhu	a0,428(sp)
   17370:	1c051863          	bnez	a0,17540 <_ldtoa_r+0x554>
   17374:	0000da97          	auipc	s5,0xd
   17378:	798a8a93          	addi	s5,s5,1944 # 24b0c <ezero>
   1737c:	09410d13          	addi	s10,sp,148
   17380:	07e10413          	addi	s0,sp,126
   17384:	0b610c93          	addi	s9,sp,182
   17388:	000a8593          	mv	a1,s5
   1738c:	07c10513          	addi	a0,sp,124
   17390:	f94fe0ef          	jal	ra,15b24 <ecmp>
   17394:	1a050663          	beqz	a0,17540 <_ldtoa_r+0x554>
   17398:	00000713          	li	a4,0
   1739c:	000d0693          	mv	a3,s10
   173a0:	01c0006f          	j	173bc <_ldtoa_r+0x3d0>
   173a4:	00171713          	slli	a4,a4,0x1
   173a8:	00f69023          	sh	a5,0(a3)
   173ac:	01071713          	slli	a4,a4,0x10
   173b0:	ffe68693          	addi	a3,a3,-2
   173b4:	01075713          	srli	a4,a4,0x10
   173b8:	04868463          	beq	a3,s0,17400 <_ldtoa_r+0x414>
   173bc:	0006d783          	lhu	a5,0(a3)
   173c0:	01079613          	slli	a2,a5,0x10
   173c4:	41065613          	srai	a2,a2,0x10
   173c8:	00179793          	slli	a5,a5,0x1
   173cc:	00065463          	bgez	a2,173d4 <_ldtoa_r+0x3e8>
   173d0:	00176713          	ori	a4,a4,1
   173d4:	01079793          	slli	a5,a5,0x10
   173d8:	0107d793          	srli	a5,a5,0x10
   173dc:	00277613          	andi	a2,a4,2
   173e0:	0017e593          	ori	a1,a5,1
   173e4:	fc0600e3          	beqz	a2,173a4 <_ldtoa_r+0x3b8>
   173e8:	00171713          	slli	a4,a4,0x1
   173ec:	00b69023          	sh	a1,0(a3)
   173f0:	01071713          	slli	a4,a4,0x10
   173f4:	ffe68693          	addi	a3,a3,-2
   173f8:	01075713          	srli	a4,a4,0x10
   173fc:	fc8690e3          	bne	a3,s0,173bc <_ldtoa_r+0x3d0>
   17400:	0b410713          	addi	a4,sp,180
   17404:	07c10793          	addi	a5,sp,124
   17408:	00278793          	addi	a5,a5,2
   1740c:	ffe7d683          	lhu	a3,-2(a5)
   17410:	00270713          	addi	a4,a4,2
   17414:	fed71f23          	sh	a3,-2(a4)
   17418:	ffa798e3          	bne	a5,s10,17408 <_ldtoa_r+0x41c>
   1741c:	0c011623          	sh	zero,204(sp)
   17420:	00000713          	li	a4,0
   17424:	0cc10693          	addi	a3,sp,204
   17428:	01c0006f          	j	17444 <_ldtoa_r+0x458>
   1742c:	00171713          	slli	a4,a4,0x1
   17430:	00f69023          	sh	a5,0(a3)
   17434:	01071713          	slli	a4,a4,0x10
   17438:	ffe68693          	addi	a3,a3,-2
   1743c:	01075713          	srli	a4,a4,0x10
   17440:	05968463          	beq	a3,s9,17488 <_ldtoa_r+0x49c>
   17444:	0006d783          	lhu	a5,0(a3)
   17448:	01079613          	slli	a2,a5,0x10
   1744c:	41065613          	srai	a2,a2,0x10
   17450:	00179793          	slli	a5,a5,0x1
   17454:	00065463          	bgez	a2,1745c <_ldtoa_r+0x470>
   17458:	00176713          	ori	a4,a4,1
   1745c:	01079793          	slli	a5,a5,0x10
   17460:	0107d793          	srli	a5,a5,0x10
   17464:	00277613          	andi	a2,a4,2
   17468:	0017e593          	ori	a1,a5,1
   1746c:	fc0600e3          	beqz	a2,1742c <_ldtoa_r+0x440>
   17470:	00171713          	slli	a4,a4,0x1
   17474:	00b69023          	sh	a1,0(a3)
   17478:	01071713          	slli	a4,a4,0x10
   1747c:	ffe68693          	addi	a3,a3,-2
   17480:	01075713          	srli	a4,a4,0x10
   17484:	fd9690e3          	bne	a3,s9,17444 <_ldtoa_r+0x458>
   17488:	00000713          	li	a4,0
   1748c:	0cc10693          	addi	a3,sp,204
   17490:	01c0006f          	j	174ac <_ldtoa_r+0x4c0>
   17494:	00171713          	slli	a4,a4,0x1
   17498:	00f69023          	sh	a5,0(a3)
   1749c:	01071713          	slli	a4,a4,0x10
   174a0:	ffe68693          	addi	a3,a3,-2
   174a4:	01075713          	srli	a4,a4,0x10
   174a8:	05968463          	beq	a3,s9,174f0 <_ldtoa_r+0x504>
   174ac:	0006d783          	lhu	a5,0(a3)
   174b0:	01079613          	slli	a2,a5,0x10
   174b4:	41065613          	srai	a2,a2,0x10
   174b8:	00179793          	slli	a5,a5,0x1
   174bc:	00065463          	bgez	a2,174c4 <_ldtoa_r+0x4d8>
   174c0:	00176713          	ori	a4,a4,1
   174c4:	01079793          	slli	a5,a5,0x10
   174c8:	0107d793          	srli	a5,a5,0x10
   174cc:	00277613          	andi	a2,a4,2
   174d0:	0017e593          	ori	a1,a5,1
   174d4:	fc0600e3          	beqz	a2,17494 <_ldtoa_r+0x4a8>
   174d8:	00171713          	slli	a4,a4,0x1
   174dc:	00b69023          	sh	a1,0(a3)
   174e0:	01071713          	slli	a4,a4,0x10
   174e4:	ffe68693          	addi	a3,a3,-2
   174e8:	01075713          	srli	a4,a4,0x10
   174ec:	fd9690e3          	bne	a3,s9,174ac <_ldtoa_r+0x4c0>
   174f0:	00000613          	li	a2,0
   174f4:	000d0693          	mv	a3,s10
   174f8:	0cc10713          	addi	a4,sp,204
   174fc:	0006d583          	lhu	a1,0(a3)
   17500:	00075783          	lhu	a5,0(a4)
   17504:	ffe68693          	addi	a3,a3,-2
   17508:	ffe70713          	addi	a4,a4,-2
   1750c:	00b787b3          	add	a5,a5,a1
   17510:	00c787b3          	add	a5,a5,a2
   17514:	00f69123          	sh	a5,2(a3)
   17518:	0107d793          	srli	a5,a5,0x10
   1751c:	0017f613          	andi	a2,a5,1
   17520:	fd971ee3          	bne	a4,s9,174fc <_ldtoa_r+0x510>
   17524:	09810513          	addi	a0,sp,152
   17528:	00098613          	mv	a2,s3
   1752c:	07c10593          	addi	a1,sp,124
   17530:	e5dfe0ef          	jal	ra,1638c <eiremain>
   17534:	1ac15503          	lhu	a0,428(sp)
   17538:	fff48493          	addi	s1,s1,-1
   1753c:	e40506e3          	beqz	a0,17388 <_ldtoa_r+0x39c>
   17540:	01812783          	lw	a5,24(sp)
   17544:	00812703          	lw	a4,8(sp)
   17548:	00c12403          	lw	s0,12(sp)
   1754c:	00f037b3          	snez	a5,a5
   17550:	40f007b3          	neg	a5,a5
   17554:	00d7f793          	andi	a5,a5,13
   17558:	02078793          	addi	a5,a5,32
   1755c:	12f10223          	sb	a5,292(sp)
   17560:	00300793          	li	a5,3
   17564:	02f70463          	beq	a4,a5,1758c <_ldtoa_r+0x5a0>
   17568:	00a00793          	li	a5,10
   1756c:	1ef502e3          	beq	a0,a5,17f50 <_ldtoa_r+0xf64>
   17570:	03050513          	addi	a0,a0,48
   17574:	02e00793          	li	a5,46
   17578:	12a102a3          	sb	a0,293(sp)
   1757c:	12f10323          	sb	a5,294(sp)
   17580:	78044263          	bltz	s0,17d04 <_ldtoa_r+0xd18>
   17584:	12710c93          	addi	s9,sp,295
   17588:	0300006f          	j	175b8 <_ldtoa_r+0x5cc>
   1758c:	00940433          	add	s0,s0,s1
   17590:	02a00793          	li	a5,42
   17594:	fc87dae3          	bge	a5,s0,17568 <_ldtoa_r+0x57c>
   17598:	00a00793          	li	a5,10
   1759c:	18f506e3          	beq	a0,a5,17f28 <_ldtoa_r+0xf3c>
   175a0:	03050513          	addi	a0,a0,48
   175a4:	02e00793          	li	a5,46
   175a8:	12a102a3          	sb	a0,293(sp)
   175ac:	12f10323          	sb	a5,294(sp)
   175b0:	02a00413          	li	s0,42
   175b4:	12710c93          	addi	s9,sp,295
   175b8:	00000c13          	li	s8,0
   175bc:	0b410a93          	addi	s5,sp,180
   175c0:	09410d93          	addi	s11,sp,148
   175c4:	07e10b93          	addi	s7,sp,126
   175c8:	0b610d13          	addi	s10,sp,182
   175cc:	00000713          	li	a4,0
   175d0:	000d8693          	mv	a3,s11
   175d4:	01c0006f          	j	175f0 <_ldtoa_r+0x604>
   175d8:	00171713          	slli	a4,a4,0x1
   175dc:	00f69023          	sh	a5,0(a3)
   175e0:	01071713          	slli	a4,a4,0x10
   175e4:	ffe68693          	addi	a3,a3,-2
   175e8:	01075713          	srli	a4,a4,0x10
   175ec:	05768463          	beq	a3,s7,17634 <_ldtoa_r+0x648>
   175f0:	0006d783          	lhu	a5,0(a3)
   175f4:	01079613          	slli	a2,a5,0x10
   175f8:	41065613          	srai	a2,a2,0x10
   175fc:	00179793          	slli	a5,a5,0x1
   17600:	00065463          	bgez	a2,17608 <_ldtoa_r+0x61c>
   17604:	00176713          	ori	a4,a4,1
   17608:	01079793          	slli	a5,a5,0x10
   1760c:	0107d793          	srli	a5,a5,0x10
   17610:	00277613          	andi	a2,a4,2
   17614:	0017e593          	ori	a1,a5,1
   17618:	fc0600e3          	beqz	a2,175d8 <_ldtoa_r+0x5ec>
   1761c:	00171713          	slli	a4,a4,0x1
   17620:	00b69023          	sh	a1,0(a3)
   17624:	01071713          	slli	a4,a4,0x10
   17628:	ffe68693          	addi	a3,a3,-2
   1762c:	01075713          	srli	a4,a4,0x10
   17630:	fd7690e3          	bne	a3,s7,175f0 <_ldtoa_r+0x604>
   17634:	000a8713          	mv	a4,s5
   17638:	07c10793          	addi	a5,sp,124
   1763c:	00278793          	addi	a5,a5,2
   17640:	ffe7d683          	lhu	a3,-2(a5)
   17644:	00270713          	addi	a4,a4,2
   17648:	fed71f23          	sh	a3,-2(a4)
   1764c:	ffb798e3          	bne	a5,s11,1763c <_ldtoa_r+0x650>
   17650:	0c011623          	sh	zero,204(sp)
   17654:	00000713          	li	a4,0
   17658:	0cc10693          	addi	a3,sp,204
   1765c:	01c0006f          	j	17678 <_ldtoa_r+0x68c>
   17660:	00171713          	slli	a4,a4,0x1
   17664:	00f69023          	sh	a5,0(a3)
   17668:	01071713          	slli	a4,a4,0x10
   1766c:	ffe68693          	addi	a3,a3,-2
   17670:	01075713          	srli	a4,a4,0x10
   17674:	05a68463          	beq	a3,s10,176bc <_ldtoa_r+0x6d0>
   17678:	0006d783          	lhu	a5,0(a3)
   1767c:	01079613          	slli	a2,a5,0x10
   17680:	41065613          	srai	a2,a2,0x10
   17684:	00179793          	slli	a5,a5,0x1
   17688:	00065463          	bgez	a2,17690 <_ldtoa_r+0x6a4>
   1768c:	00176713          	ori	a4,a4,1
   17690:	01079793          	slli	a5,a5,0x10
   17694:	0107d793          	srli	a5,a5,0x10
   17698:	00277613          	andi	a2,a4,2
   1769c:	0017e593          	ori	a1,a5,1
   176a0:	fc0600e3          	beqz	a2,17660 <_ldtoa_r+0x674>
   176a4:	00171713          	slli	a4,a4,0x1
   176a8:	00b69023          	sh	a1,0(a3)
   176ac:	01071713          	slli	a4,a4,0x10
   176b0:	ffe68693          	addi	a3,a3,-2
   176b4:	01075713          	srli	a4,a4,0x10
   176b8:	fda690e3          	bne	a3,s10,17678 <_ldtoa_r+0x68c>
   176bc:	00000713          	li	a4,0
   176c0:	0cc10693          	addi	a3,sp,204
   176c4:	01c0006f          	j	176e0 <_ldtoa_r+0x6f4>
   176c8:	00171713          	slli	a4,a4,0x1
   176cc:	00f69023          	sh	a5,0(a3)
   176d0:	01071713          	slli	a4,a4,0x10
   176d4:	ffe68693          	addi	a3,a3,-2
   176d8:	01075713          	srli	a4,a4,0x10
   176dc:	05a68463          	beq	a3,s10,17724 <_ldtoa_r+0x738>
   176e0:	0006d783          	lhu	a5,0(a3)
   176e4:	01079613          	slli	a2,a5,0x10
   176e8:	41065613          	srai	a2,a2,0x10
   176ec:	00179793          	slli	a5,a5,0x1
   176f0:	00065463          	bgez	a2,176f8 <_ldtoa_r+0x70c>
   176f4:	00176713          	ori	a4,a4,1
   176f8:	01079793          	slli	a5,a5,0x10
   176fc:	0107d793          	srli	a5,a5,0x10
   17700:	00277613          	andi	a2,a4,2
   17704:	0017e593          	ori	a1,a5,1
   17708:	fc0600e3          	beqz	a2,176c8 <_ldtoa_r+0x6dc>
   1770c:	00171713          	slli	a4,a4,0x1
   17710:	00b69023          	sh	a1,0(a3)
   17714:	01071713          	slli	a4,a4,0x10
   17718:	ffe68693          	addi	a3,a3,-2
   1771c:	01075713          	srli	a4,a4,0x10
   17720:	fda690e3          	bne	a3,s10,176e0 <_ldtoa_r+0x6f4>
   17724:	00000613          	li	a2,0
   17728:	000d8693          	mv	a3,s11
   1772c:	0cc10713          	addi	a4,sp,204
   17730:	0006d583          	lhu	a1,0(a3)
   17734:	00075783          	lhu	a5,0(a4)
   17738:	ffe68693          	addi	a3,a3,-2
   1773c:	ffe70713          	addi	a4,a4,-2
   17740:	00b787b3          	add	a5,a5,a1
   17744:	00c787b3          	add	a5,a5,a2
   17748:	00f69123          	sh	a5,2(a3)
   1774c:	0107d793          	srli	a5,a5,0x10
   17750:	0017f613          	andi	a2,a5,1
   17754:	fda71ee3          	bne	a4,s10,17730 <_ldtoa_r+0x744>
   17758:	00098613          	mv	a2,s3
   1775c:	07c10593          	addi	a1,sp,124
   17760:	09810513          	addi	a0,sp,152
   17764:	c29fe0ef          	jal	ra,1638c <eiremain>
   17768:	1ac15783          	lhu	a5,428(sp)
   1776c:	018c8733          	add	a4,s9,s8
   17770:	001c0c13          	addi	s8,s8,1
   17774:	03078693          	addi	a3,a5,48
   17778:	00d70023          	sb	a3,0(a4)
   1777c:	e58458e3          	bge	s0,s8,175cc <_ldtoa_r+0x5e0>
   17780:	00140993          	addi	s3,s0,1
   17784:	013c89b3          	add	s3,s9,s3
   17788:	008c8cb3          	add	s9,s9,s0
   1778c:	00400713          	li	a4,4
   17790:	06f75e63          	bge	a4,a5,1780c <_ldtoa_r+0x820>
   17794:	00500713          	li	a4,5
   17798:	00e78ae3          	beq	a5,a4,17fac <_ldtoa_r+0xfc0>
   1779c:	ffe9c783          	lbu	a5,-2(s3)
   177a0:	ffe98713          	addi	a4,s3,-2
   177a4:	07f7f793          	andi	a5,a5,127
   177a8:	7c044a63          	bltz	s0,17f7c <_ldtoa_r+0xf90>
   177ac:	02e00693          	li	a3,46
   177b0:	04d78263          	beq	a5,a3,177f4 <_ldtoa_r+0x808>
   177b4:	00178693          	addi	a3,a5,1
   177b8:	00d70023          	sb	a3,0(a4)
   177bc:	03800693          	li	a3,56
   177c0:	03000593          	li	a1,48
   177c4:	02e00613          	li	a2,46
   177c8:	03800513          	li	a0,56
   177cc:	00f6c863          	blt	a3,a5,177dc <_ldtoa_r+0x7f0>
   177d0:	03c0006f          	j	1780c <_ldtoa_r+0x820>
   177d4:	00d70023          	sb	a3,0(a4)
   177d8:	02f57a63          	bgeu	a0,a5,1780c <_ldtoa_r+0x820>
   177dc:	00b70023          	sb	a1,0(a4)
   177e0:	fff70713          	addi	a4,a4,-1
   177e4:	00074783          	lbu	a5,0(a4)
   177e8:	07f7f793          	andi	a5,a5,127
   177ec:	00178693          	addi	a3,a5,1
   177f0:	fec792e3          	bne	a5,a2,177d4 <_ldtoa_r+0x7e8>
   177f4:	fff74783          	lbu	a5,-1(a4)
   177f8:	03800693          	li	a3,56
   177fc:	00f6fee3          	bgeu	a3,a5,18018 <_ldtoa_r+0x102c>
   17800:	03100793          	li	a5,49
   17804:	00148493          	addi	s1,s1,1
   17808:	fef70fa3          	sb	a5,-1(a4)
   1780c:	00048613          	mv	a2,s1
   17810:	0000d597          	auipc	a1,0xd
   17814:	57458593          	addi	a1,a1,1396 # 24d84 <bmask+0x48>
   17818:	000c8513          	mv	a0,s9
   1781c:	0c8030ef          	jal	ra,1a8e4 <sprintf>
   17820:	07215783          	lhu	a5,114(sp)
   17824:	01c12703          	lw	a4,28(sp)
   17828:	16912823          	sw	s1,368(sp)
   1782c:	fff7c793          	not	a5,a5
   17830:	16e12223          	sw	a4,356(sp)
   17834:	01179713          	slli	a4,a5,0x11
   17838:	00071e63          	bnez	a4,17854 <_ldtoa_r+0x868>
   1783c:	000a0513          	mv	a0,s4
   17840:	c00fe0ef          	jal	ra,15c40 <eisinf.part.1>
   17844:	22051c63          	bnez	a0,17a7c <_ldtoa_r+0xa90>
   17848:	000a0513          	mv	a0,s4
   1784c:	940fe0ef          	jal	ra,1598c <eisnan.part.0>
   17850:	22051663          	bnez	a0,17a7c <_ldtoa_r+0xa90>
   17854:	01412683          	lw	a3,20(sp)
   17858:	12414783          	lbu	a5,292(sp)
   1785c:	00148713          	addi	a4,s1,1
   17860:	00e6a023          	sw	a4,0(a3)
   17864:	0c078ce3          	beqz	a5,1813c <_ldtoa_r+0x1150>
   17868:	02e00713          	li	a4,46
   1786c:	06e78063          	beq	a5,a4,178cc <_ldtoa_r+0x8e0>
   17870:	00090793          	mv	a5,s2
   17874:	02e00693          	li	a3,46
   17878:	0080006f          	j	17880 <_ldtoa_r+0x894>
   1787c:	04d70a63          	beq	a4,a3,178d0 <_ldtoa_r+0x8e4>
   17880:	00178793          	addi	a5,a5,1
   17884:	0007c703          	lbu	a4,0(a5)
   17888:	fe071ae3          	bnez	a4,1787c <_ldtoa_r+0x890>
   1788c:	04500693          	li	a3,69
   17890:	00f96663          	bltu	s2,a5,1789c <_ldtoa_r+0x8b0>
   17894:	0140006f          	j	178a8 <_ldtoa_r+0x8bc>
   17898:	01278863          	beq	a5,s2,178a8 <_ldtoa_r+0x8bc>
   1789c:	fff78793          	addi	a5,a5,-1
   178a0:	0007c703          	lbu	a4,0(a5)
   178a4:	fed71ae3          	bne	a4,a3,17898 <_ldtoa_r+0x8ac>
   178a8:	00078023          	sb	zero,0(a5)
   178ac:	00090793          	mv	a5,s2
   178b0:	02000693          	li	a3,32
   178b4:	02d00613          	li	a2,45
   178b8:	0007c703          	lbu	a4,0(a5)
   178bc:	00d70463          	beq	a4,a3,178c4 <_ldtoa_r+0x8d8>
   178c0:	02c71a63          	bne	a4,a2,178f4 <_ldtoa_r+0x908>
   178c4:	00178793          	addi	a5,a5,1
   178c8:	ff1ff06f          	j	178b8 <_ldtoa_r+0x8cc>
   178cc:	00090793          	mv	a5,s2
   178d0:	0017c703          	lbu	a4,1(a5)
   178d4:	00178793          	addi	a5,a5,1
   178d8:	fee78fa3          	sb	a4,-1(a5)
   178dc:	fa0708e3          	beqz	a4,1788c <_ldtoa_r+0x8a0>
   178e0:	0017c703          	lbu	a4,1(a5)
   178e4:	00178793          	addi	a5,a5,1
   178e8:	fee78fa3          	sb	a4,-1(a5)
   178ec:	fe0712e3          	bnez	a4,178d0 <_ldtoa_r+0x8e4>
   178f0:	f9dff06f          	j	1788c <_ldtoa_r+0x8a0>
   178f4:	00090413          	mv	s0,s2
   178f8:	00c0006f          	j	17904 <_ldtoa_r+0x918>
   178fc:	0007c703          	lbu	a4,0(a5)
   17900:	00068413          	mv	s0,a3
   17904:	00e40023          	sb	a4,0(s0)
   17908:	00140693          	addi	a3,s0,1
   1790c:	00178793          	addi	a5,a5,1
   17910:	fe0716e3          	bnez	a4,178fc <_ldtoa_r+0x910>
   17914:	00812683          	lw	a3,8(sp)
   17918:	00200793          	li	a5,2
   1791c:	fff44703          	lbu	a4,-1(s0)
   17920:	12f68663          	beq	a3,a5,17a4c <_ldtoa_r+0xa60>
   17924:	00c12783          	lw	a5,12(sp)
   17928:	00078693          	mv	a3,a5
   1792c:	0097d463          	bge	a5,s1,17934 <_ldtoa_r+0x948>
   17930:	00048693          	mv	a3,s1
   17934:	03000793          	li	a5,48
   17938:	02f71663          	bne	a4,a5,17964 <_ldtoa_r+0x978>
   1793c:	412407b3          	sub	a5,s0,s2
   17940:	02f6d263          	bge	a3,a5,17964 <_ldtoa_r+0x978>
   17944:	03000613          	li	a2,48
   17948:	0080006f          	j	17950 <_ldtoa_r+0x964>
   1794c:	00e6dc63          	bge	a3,a4,17964 <_ldtoa_r+0x978>
   17950:	fff40413          	addi	s0,s0,-1
   17954:	fff44783          	lbu	a5,-1(s0)
   17958:	00040023          	sb	zero,0(s0)
   1795c:	41240733          	sub	a4,s0,s2
   17960:	fec786e3          	beq	a5,a2,1794c <_ldtoa_r+0x960>
   17964:	00812703          	lw	a4,8(sp)
   17968:	00300793          	li	a5,3
   1796c:	0af70263          	beq	a4,a5,17a10 <_ldtoa_r+0xa24>
   17970:	01012783          	lw	a5,16(sp)
   17974:	040b2223          	sw	zero,68(s6)
   17978:	00978613          	addi	a2,a5,9
   1797c:	01700793          	li	a5,23
   17980:	0cc7f263          	bgeu	a5,a2,17a44 <_ldtoa_r+0xa58>
   17984:	00100713          	li	a4,1
   17988:	00400793          	li	a5,4
   1798c:	00179793          	slli	a5,a5,0x1
   17990:	01478693          	addi	a3,a5,20
   17994:	00070593          	mv	a1,a4
   17998:	00170713          	addi	a4,a4,1
   1799c:	fed678e3          	bgeu	a2,a3,1798c <_ldtoa_r+0x9a0>
   179a0:	04bb2223          	sw	a1,68(s6)
   179a4:	000b0513          	mv	a0,s6
   179a8:	7e8010ef          	jal	ra,19190 <_Balloc>
   179ac:	04ab2023          	sw	a0,64(s6)
   179b0:	00090593          	mv	a1,s2
   179b4:	00050493          	mv	s1,a0
   179b8:	280030ef          	jal	ra,1ac38 <strcpy>
   179bc:	02012783          	lw	a5,32(sp)
   179c0:	00078863          	beqz	a5,179d0 <_ldtoa_r+0x9e4>
   179c4:	41240433          	sub	s0,s0,s2
   179c8:	00848433          	add	s0,s1,s0
   179cc:	0087a023          	sw	s0,0(a5)
   179d0:	1ec12083          	lw	ra,492(sp)
   179d4:	1e812403          	lw	s0,488(sp)
   179d8:	00048513          	mv	a0,s1
   179dc:	1e012903          	lw	s2,480(sp)
   179e0:	1e412483          	lw	s1,484(sp)
   179e4:	1dc12983          	lw	s3,476(sp)
   179e8:	1d812a03          	lw	s4,472(sp)
   179ec:	1d412a83          	lw	s5,468(sp)
   179f0:	1d012b03          	lw	s6,464(sp)
   179f4:	1cc12b83          	lw	s7,460(sp)
   179f8:	1c812c03          	lw	s8,456(sp)
   179fc:	1c412c83          	lw	s9,452(sp)
   17a00:	1c012d03          	lw	s10,448(sp)
   17a04:	1bc12d83          	lw	s11,444(sp)
   17a08:	1f010113          	addi	sp,sp,496
   17a0c:	00008067          	ret
   17a10:	00c12783          	lw	a5,12(sp)
   17a14:	009784b3          	add	s1,a5,s1
   17a18:	4a04ce63          	bltz	s1,17ed4 <_ldtoa_r+0xee8>
   17a1c:	01412783          	lw	a5,20(sp)
   17a20:	01012703          	lw	a4,16(sp)
   17a24:	0007a783          	lw	a5,0(a5)
   17a28:	00f707b3          	add	a5,a4,a5
   17a2c:	00f12823          	sw	a5,16(sp)
   17a30:	01012783          	lw	a5,16(sp)
   17a34:	040b2223          	sw	zero,68(s6)
   17a38:	00378613          	addi	a2,a5,3
   17a3c:	01700793          	li	a5,23
   17a40:	f4c7e2e3          	bltu	a5,a2,17984 <_ldtoa_r+0x998>
   17a44:	00000593          	li	a1,0
   17a48:	f5dff06f          	j	179a4 <_ldtoa_r+0x9b8>
   17a4c:	03000793          	li	a5,48
   17a50:	f2f710e3          	bne	a4,a5,17970 <_ldtoa_r+0x984>
   17a54:	412407b3          	sub	a5,s0,s2
   17a58:	00100693          	li	a3,1
   17a5c:	eef6c4e3          	blt	a3,a5,17944 <_ldtoa_r+0x958>
   17a60:	f11ff06f          	j	17970 <_ldtoa_r+0x984>
   17a64:	01012b83          	lw	s7,16(sp)
   17a68:	01712623          	sw	s7,12(sp)
   17a6c:	02a00793          	li	a5,42
   17a70:	e577de63          	bge	a5,s7,170cc <_ldtoa_r+0xe0>
   17a74:	00f12623          	sw	a5,12(sp)
   17a78:	e54ff06f          	j	170cc <_ldtoa_r+0xe0>
   17a7c:	01412703          	lw	a4,20(sp)
   17a80:	000027b7          	lui	a5,0x2
   17a84:	70f78793          	addi	a5,a5,1807 # 270f <threadsense.2617+0x270f>
   17a88:	00f72023          	sw	a5,0(a4)
   17a8c:	e21ff06f          	j	178ac <_ldtoa_r+0x8c0>
   17a90:	0b410a93          	addi	s5,sp,180
   17a94:	000a8713          	mv	a4,s5
   17a98:	07c10793          	addi	a5,sp,124
   17a9c:	09010613          	addi	a2,sp,144
   17aa0:	00278793          	addi	a5,a5,2
   17aa4:	ffe7d683          	lhu	a3,-2(a5)
   17aa8:	00270713          	addi	a4,a4,2
   17aac:	fed71f23          	sh	a3,-2(a4)
   17ab0:	fec798e3          	bne	a5,a2,17aa0 <_ldtoa_r+0xab4>
   17ab4:	000047b7          	lui	a5,0x4
   17ab8:	08e78793          	addi	a5,a5,142 # 408e <threadsense.2617+0x408e>
   17abc:	0cf11323          	sh	a5,198(sp)
   17ac0:	000087b7          	lui	a5,0x8
   17ac4:	fff78793          	addi	a5,a5,-1 # 7fff <threadsense.2617+0x7fff>
   17ac8:	02f12223          	sw	a5,36(sp)
   17acc:	ffffc7b7          	lui	a5,0xffffc
   17ad0:	00278793          	addi	a5,a5,2 # ffffc002 <__global_pointer$+0xfffd3d32>
   17ad4:	01000d13          	li	s10,16
   17ad8:	00000493          	li	s1,0
   17adc:	0000dc17          	auipc	s8,0xd
   17ae0:	0f8c0c13          	addi	s8,s8,248 # 24bd4 <etens+0xa0>
   17ae4:	12410913          	addi	s2,sp,292
   17ae8:	16010993          	addi	s3,sp,352
   17aec:	0d010413          	addi	s0,sp,208
   17af0:	0aa10b93          	addi	s7,sp,170
   17af4:	02f12423          	sw	a5,40(sp)
   17af8:	05e10c93          	addi	s9,sp,94
   17afc:	00098693          	mv	a3,s3
   17b00:	09810613          	addi	a2,sp,152
   17b04:	000a8593          	mv	a1,s5
   17b08:	000c0513          	mv	a0,s8
   17b0c:	e9dfe0ef          	jal	ra,169a8 <ediv>
   17b10:	04c10713          	addi	a4,sp,76
   17b14:	09810793          	addi	a5,sp,152
   17b18:	00278793          	addi	a5,a5,2
   17b1c:	ffe7d683          	lhu	a3,-2(a5)
   17b20:	00270713          	addi	a4,a4,2
   17b24:	fed71f23          	sh	a3,-2(a4)
   17b28:	ffb798e3          	bne	a5,s11,17b18 <_ldtoa_r+0xb2c>
   17b2c:	02412783          	lw	a5,36(sp)
   17b30:	05e15503          	lhu	a0,94(sp)
   17b34:	00f57633          	and	a2,a0,a5
   17b38:	02812783          	lw	a5,40(sp)
   17b3c:	00f605b3          	add	a1,a2,a5
   17b40:	3ab05463          	blez	a1,17ee8 <_ldtoa_r+0xefc>
   17b44:	09000613          	li	a2,144
   17b48:	40b60633          	sub	a2,a2,a1
   17b4c:	00040713          	mv	a4,s0
   17b50:	04c10793          	addi	a5,sp,76
   17b54:	00278793          	addi	a5,a5,2
   17b58:	ffe7d683          	lhu	a3,-2(a5)
   17b5c:	00270713          	addi	a4,a4,2
   17b60:	fed71f23          	sh	a3,-2(a4)
   17b64:	ff4798e3          	bne	a5,s4,17b54 <_ldtoa_r+0xb68>
   17b68:	06c05863          	blez	a2,17bd8 <_ldtoa_r+0xbec>
   17b6c:	00f00793          	li	a5,15
   17b70:	00040713          	mv	a4,s0
   17b74:	02c7dc63          	bge	a5,a2,17bac <_ldtoa_r+0xbc0>
   17b78:	ff060613          	addi	a2,a2,-16 # 7ff0 <threadsense.2617+0x7ff0>
   17b7c:	00465693          	srli	a3,a2,0x4
   17b80:	00168713          	addi	a4,a3,1
   17b84:	00171713          	slli	a4,a4,0x1
   17b88:	00e40733          	add	a4,s0,a4
   17b8c:	00040793          	mv	a5,s0
   17b90:	00278793          	addi	a5,a5,2
   17b94:	fe079f23          	sh	zero,-2(a5)
   17b98:	fee79ce3          	bne	a5,a4,17b90 <_ldtoa_r+0xba4>
   17b9c:	08000613          	li	a2,128
   17ba0:	40b60633          	sub	a2,a2,a1
   17ba4:	00469693          	slli	a3,a3,0x4
   17ba8:	40d60633          	sub	a2,a2,a3
   17bac:	0000d797          	auipc	a5,0xd
   17bb0:	f6078793          	addi	a5,a5,-160 # 24b0c <ezero>
   17bb4:	00161613          	slli	a2,a2,0x1
   17bb8:	00c78633          	add	a2,a5,a2
   17bbc:	23065683          	lhu	a3,560(a2)
   17bc0:	00075783          	lhu	a5,0(a4)
   17bc4:	00d7f7b3          	and	a5,a5,a3
   17bc8:	00f71023          	sh	a5,0(a4)
   17bcc:	01051513          	slli	a0,a0,0x10
   17bd0:	41055513          	srai	a0,a0,0x10
   17bd4:	16054063          	bltz	a0,17d34 <_ldtoa_r+0xd48>
   17bd8:	09810793          	addi	a5,sp,152
   17bdc:	00040713          	mv	a4,s0
   17be0:	0007d603          	lhu	a2,0(a5)
   17be4:	00075683          	lhu	a3,0(a4)
   17be8:	00278793          	addi	a5,a5,2
   17bec:	00270713          	addi	a4,a4,2
   17bf0:	02d61463          	bne	a2,a3,17c18 <_ldtoa_r+0xc2c>
   17bf4:	fefb96e3          	bne	s7,a5,17be0 <_ldtoa_r+0xbf4>
   17bf8:	000a8713          	mv	a4,s5
   17bfc:	09810793          	addi	a5,sp,152
   17c00:	00278793          	addi	a5,a5,2
   17c04:	ffe7d683          	lhu	a3,-2(a5)
   17c08:	00270713          	addi	a4,a4,2
   17c0c:	fed71f23          	sh	a3,-2(a4)
   17c10:	ffb798e3          	bne	a5,s11,17c00 <_ldtoa_r+0xc14>
   17c14:	01a484b3          	add	s1,s1,s10
   17c18:	014c0c13          	addi	s8,s8,20
   17c1c:	0000d797          	auipc	a5,0xd
   17c20:	01c78793          	addi	a5,a5,28 # 24c38 <emtens>
   17c24:	001d5d13          	srli	s10,s10,0x1
   17c28:	ecfc1ae3          	bne	s8,a5,17afc <_ldtoa_r+0xb10>
   17c2c:	0c615783          	lhu	a5,198(sp)
   17c30:	08e15703          	lhu	a4,142(sp)
   17c34:	0c810613          	addi	a2,sp,200
   17c38:	00e787b3          	add	a5,a5,a4
   17c3c:	ffffc737          	lui	a4,0xffffc
   17c40:	f7270713          	addi	a4,a4,-142 # ffffbf72 <__global_pointer$+0xfffd3ca2>
   17c44:	00e787b3          	add	a5,a5,a4
   17c48:	0cf11323          	sh	a5,198(sp)
   17c4c:	07c10713          	addi	a4,sp,124
   17c50:	000a8793          	mv	a5,s5
   17c54:	00278793          	addi	a5,a5,2
   17c58:	ffe7d683          	lhu	a3,-2(a5)
   17c5c:	00270713          	addi	a4,a4,2
   17c60:	fed71f23          	sh	a3,-2(a4)
   17c64:	fec798e3          	bne	a5,a2,17c54 <_ldtoa_r+0xc68>
   17c68:	00000693          	li	a3,0
   17c6c:	09810793          	addi	a5,sp,152
   17c70:	0000d717          	auipc	a4,0xd
   17c74:	eb070713          	addi	a4,a4,-336 # 24b20 <eone>
   17c78:	0080006f          	j	17c80 <_ldtoa_r+0xc94>
   17c7c:	00075683          	lhu	a3,0(a4)
   17c80:	00278793          	addi	a5,a5,2
   17c84:	fed79f23          	sh	a3,-2(a5)
   17c88:	00270713          	addi	a4,a4,2
   17c8c:	ffb798e3          	bne	a5,s11,17c7c <_ldtoa_r+0xc90>
   17c90:	00001d37          	lui	s10,0x1
   17c94:	0000dc97          	auipc	s9,0xd
   17c98:	ea0c8c93          	addi	s9,s9,-352 # 24b34 <etens>
   17c9c:	0000dd97          	auipc	s11,0xd
   17ca0:	f88d8d93          	addi	s11,s11,-120 # 24c24 <etens+0xf0>
   17ca4:	0100006f          	j	17cb4 <_ldtoa_r+0xcc8>
   17ca8:	001d5d13          	srli	s10,s10,0x1
   17cac:	2dbc8463          	beq	s9,s11,17f74 <_ldtoa_r+0xf88>
   17cb0:	014c8c93          	addi	s9,s9,20
   17cb4:	000a8593          	mv	a1,s5
   17cb8:	000d8513          	mv	a0,s11
   17cbc:	e69fd0ef          	jal	ra,15b24 <ecmp>
   17cc0:	000a8593          	mv	a1,s5
   17cc4:	2aa04863          	bgtz	a0,17f74 <_ldtoa_r+0xf88>
   17cc8:	000c8513          	mv	a0,s9
   17ccc:	e59fd0ef          	jal	ra,15b24 <ecmp>
   17cd0:	fca04ce3          	bgtz	a0,17ca8 <_ldtoa_r+0xcbc>
   17cd4:	00098693          	mv	a3,s3
   17cd8:	000a8613          	mv	a2,s5
   17cdc:	000a8593          	mv	a1,s5
   17ce0:	000c8513          	mv	a0,s9
   17ce4:	cc5fe0ef          	jal	ra,169a8 <ediv>
   17ce8:	09810613          	addi	a2,sp,152
   17cec:	00098693          	mv	a3,s3
   17cf0:	00060593          	mv	a1,a2
   17cf4:	000c8513          	mv	a0,s9
   17cf8:	8a9fe0ef          	jal	ra,165a0 <emul>
   17cfc:	01a484b3          	add	s1,s1,s10
   17d00:	fa9ff06f          	j	17ca8 <_ldtoa_r+0xcbc>
   17d04:	1ac15783          	lhu	a5,428(sp)
   17d08:	12610c93          	addi	s9,sp,294
   17d0c:	12710993          	addi	s3,sp,295
   17d10:	a7dff06f          	j	1778c <_ldtoa_r+0x7a0>
   17d14:	12410913          	addi	s2,sp,292
   17d18:	0000d597          	auipc	a1,0xd
   17d1c:	04858593          	addi	a1,a1,72 # 24d60 <bmask+0x24>
   17d20:	00090513          	mv	a0,s2
   17d24:	000024b7          	lui	s1,0x2
   17d28:	3bd020ef          	jal	ra,1a8e4 <sprintf>
   17d2c:	70f48493          	addi	s1,s1,1807 # 270f <threadsense.2617+0x270f>
   17d30:	af1ff06f          	j	17820 <_ldtoa_r+0x834>
   17d34:	04c10793          	addi	a5,sp,76
   17d38:	00040713          	mv	a4,s0
   17d3c:	0080006f          	j	17d44 <_ldtoa_r+0xd58>
   17d40:	e8fc8ce3          	beq	s9,a5,17bd8 <_ldtoa_r+0xbec>
   17d44:	0007d603          	lhu	a2,0(a5)
   17d48:	00075683          	lhu	a3,0(a4)
   17d4c:	00278793          	addi	a5,a5,2
   17d50:	00270713          	addi	a4,a4,2
   17d54:	fed606e3          	beq	a2,a3,17d40 <_ldtoa_r+0xd54>
   17d58:	0e215783          	lhu	a5,226(sp)
   17d5c:	02412703          	lw	a4,36(sp)
   17d60:	00f777b3          	and	a5,a4,a5
   17d64:	00e79e63          	bne	a5,a4,17d80 <_ldtoa_r+0xd94>
   17d68:	00040513          	mv	a0,s0
   17d6c:	c21fd0ef          	jal	ra,1598c <eisnan.part.0>
   17d70:	e60514e3          	bnez	a0,17bd8 <_ldtoa_r+0xbec>
   17d74:	00040513          	mv	a0,s0
   17d78:	ec9fd0ef          	jal	ra,15c40 <eisinf.part.1>
   17d7c:	e4051ee3          	bnez	a0,17bd8 <_ldtoa_r+0xbec>
   17d80:	0ec10593          	addi	a1,sp,236
   17d84:	0000d517          	auipc	a0,0xd
   17d88:	d9c50513          	addi	a0,a0,-612 # 24b20 <eone>
   17d8c:	cb1fd0ef          	jal	ra,15a3c <emovi>
   17d90:	10810593          	addi	a1,sp,264
   17d94:	00040513          	mv	a0,s0
   17d98:	ca5fd0ef          	jal	ra,15a3c <emovi>
   17d9c:	0ec15603          	lhu	a2,236(sp)
   17da0:	10a15503          	lhu	a0,266(sp)
   17da4:	0ee15803          	lhu	a6,238(sp)
   17da8:	fff64613          	not	a2,a2
   17dac:	01061613          	slli	a2,a2,0x10
   17db0:	01065613          	srli	a2,a2,0x10
   17db4:	0ec11623          	sh	a2,236(sp)
   17db8:	40a805b3          	sub	a1,a6,a0
   17dbc:	00050693          	mv	a3,a0
   17dc0:	06b05e63          	blez	a1,17e3c <_ldtoa_r+0xe50>
   17dc4:	00090693          	mv	a3,s2
   17dc8:	10810713          	addi	a4,sp,264
   17dcc:	12010793          	addi	a5,sp,288
   17dd0:	00270713          	addi	a4,a4,2
   17dd4:	ffe75583          	lhu	a1,-2(a4)
   17dd8:	00268693          	addi	a3,a3,2
   17ddc:	feb69f23          	sh	a1,-2(a3)
   17de0:	fef718e3          	bne	a4,a5,17dd0 <_ldtoa_r+0xde4>
   17de4:	12011e23          	sh	zero,316(sp)
   17de8:	10810713          	addi	a4,sp,264
   17dec:	0ec10693          	addi	a3,sp,236
   17df0:	0080006f          	j	17df8 <_ldtoa_r+0xe0c>
   17df4:	0006d603          	lhu	a2,0(a3)
   17df8:	00270713          	addi	a4,a4,2
   17dfc:	fec71f23          	sh	a2,-2(a4)
   17e00:	00268693          	addi	a3,a3,2
   17e04:	fef718e3          	bne	a4,a5,17df4 <_ldtoa_r+0xe08>
   17e08:	12011023          	sh	zero,288(sp)
   17e0c:	0ec10713          	addi	a4,sp,236
   17e10:	00090793          	mv	a5,s2
   17e14:	13c10613          	addi	a2,sp,316
   17e18:	00278793          	addi	a5,a5,2
   17e1c:	ffe7d683          	lhu	a3,-2(a5)
   17e20:	00270713          	addi	a4,a4,2
   17e24:	fed71f23          	sh	a3,-2(a4)
   17e28:	fec798e3          	bne	a5,a2,17e18 <_ldtoa_r+0xe2c>
   17e2c:	10a15683          	lhu	a3,266(sp)
   17e30:	410505b3          	sub	a1,a0,a6
   17e34:	10011223          	sh	zero,260(sp)
   17e38:	00068513          	mv	a0,a3
   17e3c:	30058863          	beqz	a1,1814c <_ldtoa_r+0x1160>
   17e40:	02d12623          	sw	a3,44(sp)
   17e44:	f6f00793          	li	a5,-145
   17e48:	06f5c863          	blt	a1,a5,17eb8 <_ldtoa_r+0xecc>
   17e4c:	0ec10513          	addi	a0,sp,236
   17e50:	e0dfd0ef          	jal	ra,15c5c <eshift.part.3>
   17e54:	02c12683          	lw	a3,44(sp)
   17e58:	00050593          	mv	a1,a0
   17e5c:	12010793          	addi	a5,sp,288
   17e60:	10410813          	addi	a6,sp,260
   17e64:	0ec15603          	lhu	a2,236(sp)
   17e68:	10815703          	lhu	a4,264(sp)
   17e6c:	32e60c63          	beq	a2,a4,181a4 <_ldtoa_r+0x11b8>
   17e70:	00000713          	li	a4,0
   17e74:	00070613          	mv	a2,a4
   17e78:	0007d703          	lhu	a4,0(a5)
   17e7c:	00085503          	lhu	a0,0(a6) # ffff8000 <__global_pointer$+0xfffcfd30>
   17e80:	ffe78793          	addi	a5,a5,-2
   17e84:	40c70733          	sub	a4,a4,a2
   17e88:	40a70733          	sub	a4,a4,a0
   17e8c:	00e79123          	sh	a4,2(a5)
   17e90:	01075713          	srli	a4,a4,0x10
   17e94:	00177613          	andi	a2,a4,1
   17e98:	10a10713          	addi	a4,sp,266
   17e9c:	ffe80813          	addi	a6,a6,-2
   17ea0:	fce79ce3          	bne	a5,a4,17e78 <_ldtoa_r+0xe8c>
   17ea4:	00100613          	li	a2,1
   17ea8:	00098793          	mv	a5,s3
   17eac:	04000713          	li	a4,64
   17eb0:	10810513          	addi	a0,sp,264
   17eb4:	8d0fe0ef          	jal	ra,15f84 <emdnorm>
   17eb8:	00040593          	mv	a1,s0
   17ebc:	10810513          	addi	a0,sp,264
   17ec0:	e30fe0ef          	jal	ra,164f0 <emovo.isra.6>
   17ec4:	d15ff06f          	j	17bd8 <_ldtoa_r+0xbec>
   17ec8:	01012783          	lw	a5,16(sp)
   17ecc:	fff78b93          	addi	s7,a5,-1
   17ed0:	b99ff06f          	j	17a68 <_ldtoa_r+0xa7c>
   17ed4:	01412783          	lw	a5,20(sp)
   17ed8:	12010223          	sb	zero,292(sp)
   17edc:	00090413          	mv	s0,s2
   17ee0:	0007a023          	sw	zero,0(a5)
   17ee4:	b4dff06f          	j	17a30 <_ldtoa_r+0xa44>
   17ee8:	00040793          	mv	a5,s0
   17eec:	0e410713          	addi	a4,sp,228
   17ef0:	00278793          	addi	a5,a5,2
   17ef4:	fe079f23          	sh	zero,-2(a5)
   17ef8:	fee79ce3          	bne	a5,a4,17ef0 <_ldtoa_r+0xf04>
   17efc:	cd1ff06f          	j	17bcc <_ldtoa_r+0xbe0>
   17f00:	01812783          	lw	a5,24(sp)
   17f04:	12410913          	addi	s2,sp,292
   17f08:	0e078a63          	beqz	a5,17ffc <_ldtoa_r+0x1010>
   17f0c:	0000d597          	auipc	a1,0xd
   17f10:	e5c58593          	addi	a1,a1,-420 # 24d68 <bmask+0x2c>
   17f14:	00090513          	mv	a0,s2
   17f18:	000024b7          	lui	s1,0x2
   17f1c:	1c9020ef          	jal	ra,1a8e4 <sprintf>
   17f20:	70f48493          	addi	s1,s1,1807 # 270f <threadsense.2617+0x270f>
   17f24:	8fdff06f          	j	17820 <_ldtoa_r+0x834>
   17f28:	03100793          	li	a5,49
   17f2c:	12f102a3          	sb	a5,293(sp)
   17f30:	02e00793          	li	a5,46
   17f34:	12f10323          	sb	a5,294(sp)
   17f38:	00148493          	addi	s1,s1,1
   17f3c:	02900413          	li	s0,41
   17f40:	03000793          	li	a5,48
   17f44:	12f103a3          	sb	a5,295(sp)
   17f48:	12810c93          	addi	s9,sp,296
   17f4c:	e6cff06f          	j	175b8 <_ldtoa_r+0x5cc>
   17f50:	03100793          	li	a5,49
   17f54:	12f102a3          	sb	a5,293(sp)
   17f58:	02e00793          	li	a5,46
   17f5c:	12f10323          	sb	a5,294(sp)
   17f60:	00148493          	addi	s1,s1,1
   17f64:	1e804063          	bgtz	s0,18144 <_ldtoa_r+0x1158>
   17f68:	12710c93          	addi	s9,sp,295
   17f6c:	8a0410e3          	bnez	s0,1780c <_ldtoa_r+0x820>
   17f70:	e48ff06f          	j	175b8 <_ldtoa_r+0x5cc>
   17f74:	0e810b93          	addi	s7,sp,232
   17f78:	b90ff06f          	j	17308 <_ldtoa_r+0x31c>
   17f7c:	03100793          	li	a5,49
   17f80:	fef98f23          	sb	a5,-2(s3)
   17f84:	00148493          	addi	s1,s1,1
   17f88:	885ff06f          	j	1780c <_ldtoa_r+0x820>
   17f8c:	12410913          	addi	s2,sp,292
   17f90:	0000d597          	auipc	a1,0xd
   17f94:	df058593          	addi	a1,a1,-528 # 24d80 <bmask+0x44>
   17f98:	00090513          	mv	a0,s2
   17f9c:	000024b7          	lui	s1,0x2
   17fa0:	145020ef          	jal	ra,1a8e4 <sprintf>
   17fa4:	70f48493          	addi	s1,s1,1807 # 270f <threadsense.2617+0x270f>
   17fa8:	879ff06f          	j	17820 <_ldtoa_r+0x834>
   17fac:	09810593          	addi	a1,sp,152
   17fb0:	07c10513          	addi	a0,sp,124
   17fb4:	d3cfe0ef          	jal	ra,164f0 <emovo.isra.6>
   17fb8:	0000d597          	auipc	a1,0xd
   17fbc:	b5458593          	addi	a1,a1,-1196 # 24b0c <ezero>
   17fc0:	09810513          	addi	a0,sp,152
   17fc4:	b61fd0ef          	jal	ra,15b24 <ecmp>
   17fc8:	fc051a63          	bnez	a0,1779c <_ldtoa_r+0x7b0>
   17fcc:	840440e3          	bltz	s0,1780c <_ldtoa_r+0x820>
   17fd0:	ffe9c783          	lbu	a5,-2(s3)
   17fd4:	fd278713          	addi	a4,a5,-46
   17fd8:	00173713          	seqz	a4,a4
   17fdc:	fff74713          	not	a4,a4
   17fe0:	00ec8733          	add	a4,s9,a4
   17fe4:	00074703          	lbu	a4,0(a4)
   17fe8:	00177713          	andi	a4,a4,1
   17fec:	820700e3          	beqz	a4,1780c <_ldtoa_r+0x820>
   17ff0:	ffe98713          	addi	a4,s3,-2
   17ff4:	07f7f793          	andi	a5,a5,127
   17ff8:	fb4ff06f          	j	177ac <_ldtoa_r+0x7c0>
   17ffc:	0000d597          	auipc	a1,0xd
   18000:	d7858593          	addi	a1,a1,-648 # 24d74 <bmask+0x38>
   18004:	00090513          	mv	a0,s2
   18008:	000024b7          	lui	s1,0x2
   1800c:	0d9020ef          	jal	ra,1a8e4 <sprintf>
   18010:	70f48493          	addi	s1,s1,1807 # 270f <threadsense.2617+0x270f>
   18014:	80dff06f          	j	17820 <_ldtoa_r+0x834>
   18018:	00178793          	addi	a5,a5,1
   1801c:	fef70fa3          	sb	a5,-1(a4)
   18020:	fecff06f          	j	1780c <_ldtoa_r+0x820>
   18024:	0d010413          	addi	s0,sp,208
   18028:	00040593          	mv	a1,s0
   1802c:	07c10513          	addi	a0,sp,124
   18030:	00004ab7          	lui	s5,0x4
   18034:	a09fd0ef          	jal	ra,15a3c <emovi>
   18038:	00000493          	li	s1,0
   1803c:	0e810b93          	addi	s7,sp,232
   18040:	0cc10913          	addi	s2,sp,204
   18044:	0d210993          	addi	s3,sp,210
   18048:	ffea8a93          	addi	s5,s5,-2 # 3ffe <threadsense.2617+0x3ffe>
   1804c:	fd500c93          	li	s9,-43
   18050:	0e815783          	lhu	a5,232(sp)
   18054:	0077f793          	andi	a5,a5,7
   18058:	0c079863          	bnez	a5,18128 <_ldtoa_r+0x113c>
   1805c:	0b410713          	addi	a4,sp,180
   18060:	00040793          	mv	a5,s0
   18064:	00278793          	addi	a5,a5,2
   18068:	ffe7d683          	lhu	a3,-2(a5)
   1806c:	00270713          	addi	a4,a4,2
   18070:	fed71f23          	sh	a3,-2(a4)
   18074:	ff7798e3          	bne	a5,s7,18064 <_ldtoa_r+0x1078>
   18078:	0b410513          	addi	a0,sp,180
   1807c:	0c011623          	sh	zero,204(sp)
   18080:	f9cfd0ef          	jal	ra,1581c <eshdn1>
   18084:	0b410513          	addi	a0,sp,180
   18088:	f94fd0ef          	jal	ra,1581c <eshdn1>
   1808c:	00000613          	li	a2,0
   18090:	00090693          	mv	a3,s2
   18094:	000b8713          	mv	a4,s7
   18098:	0006d583          	lhu	a1,0(a3)
   1809c:	00075783          	lhu	a5,0(a4)
   180a0:	ffe68693          	addi	a3,a3,-2
   180a4:	ffe70713          	addi	a4,a4,-2
   180a8:	00b787b3          	add	a5,a5,a1
   180ac:	00c787b3          	add	a5,a5,a2
   180b0:	00f69123          	sh	a5,2(a3)
   180b4:	0107d793          	srli	a5,a5,0x10
   180b8:	0017f613          	andi	a2,a5,1
   180bc:	fd371ee3          	bne	a4,s3,18098 <_ldtoa_r+0x10ac>
   180c0:	0b615783          	lhu	a5,182(sp)
   180c4:	0b815703          	lhu	a4,184(sp)
   180c8:	00378793          	addi	a5,a5,3
   180cc:	0af11b23          	sh	a5,182(sp)
   180d0:	02070063          	beqz	a4,180f0 <_ldtoa_r+0x1104>
   180d4:	0b410513          	addi	a0,sp,180
   180d8:	f44fd0ef          	jal	ra,1581c <eshdn1>
   180dc:	0b615783          	lhu	a5,182(sp)
   180e0:	0b815703          	lhu	a4,184(sp)
   180e4:	00178793          	addi	a5,a5,1
   180e8:	0af11b23          	sh	a5,182(sp)
   180ec:	fe0714e3          	bnez	a4,180d4 <_ldtoa_r+0x10e8>
   180f0:	0cc15783          	lhu	a5,204(sp)
   180f4:	02079a63          	bnez	a5,18128 <_ldtoa_r+0x113c>
   180f8:	0b615783          	lhu	a5,182(sp)
   180fc:	02fae663          	bltu	s5,a5,18128 <_ldtoa_r+0x113c>
   18100:	00040713          	mv	a4,s0
   18104:	0b410793          	addi	a5,sp,180
   18108:	00278793          	addi	a5,a5,2
   1810c:	ffe7d683          	lhu	a3,-2(a5)
   18110:	00270713          	addi	a4,a4,2
   18114:	fed71f23          	sh	a3,-2(a4)
   18118:	ff2798e3          	bne	a5,s2,18108 <_ldtoa_r+0x111c>
   1811c:	0e011423          	sh	zero,232(sp)
   18120:	fff48493          	addi	s1,s1,-1
   18124:	f39496e3          	bne	s1,s9,18050 <_ldtoa_r+0x1064>
   18128:	07c10593          	addi	a1,sp,124
   1812c:	00040513          	mv	a0,s0
   18130:	bc0fe0ef          	jal	ra,164f0 <emovo.isra.6>
   18134:	16010993          	addi	s3,sp,352
   18138:	8b0ff06f          	j	171e8 <_ldtoa_r+0x1fc>
   1813c:	00090793          	mv	a5,s2
   18140:	f68ff06f          	j	178a8 <_ldtoa_r+0x8bc>
   18144:	fff40413          	addi	s0,s0,-1
   18148:	df9ff06f          	j	17f40 <_ldtoa_r+0xf54>
   1814c:	10c10713          	addi	a4,sp,268
   18150:	0f010793          	addi	a5,sp,240
   18154:	00278793          	addi	a5,a5,2
   18158:	00270713          	addi	a4,a4,2
   1815c:	ffe7d803          	lhu	a6,-2(a5)
   18160:	ffe75603          	lhu	a2,-2(a4)
   18164:	02c81863          	bne	a6,a2,18194 <_ldtoa_r+0x11a8>
   18168:	10610613          	addi	a2,sp,262
   1816c:	fec794e3          	bne	a5,a2,18154 <_ldtoa_r+0x1168>
   18170:	0ec15703          	lhu	a4,236(sp)
   18174:	10815783          	lhu	a5,264(sp)
   18178:	06f70463          	beq	a4,a5,181e0 <_ldtoa_r+0x11f4>
   1817c:	00040793          	mv	a5,s0
   18180:	0e410713          	addi	a4,sp,228
   18184:	00278793          	addi	a5,a5,2
   18188:	fe079f23          	sh	zero,-2(a5)
   1818c:	fee79ce3          	bne	a5,a4,18184 <_ldtoa_r+0x1198>
   18190:	a49ff06f          	j	17bd8 <_ldtoa_r+0xbec>
   18194:	0d066863          	bltu	a2,a6,18264 <_ldtoa_r+0x1278>
   18198:	12010793          	addi	a5,sp,288
   1819c:	10410813          	addi	a6,sp,260
   181a0:	cc5ff06f          	j	17e64 <_ldtoa_r+0xe78>
   181a4:	00000613          	li	a2,0
   181a8:	00080713          	mv	a4,a6
   181ac:	0ee10893          	addi	a7,sp,238
   181b0:	0007d803          	lhu	a6,0(a5)
   181b4:	00075503          	lhu	a0,0(a4)
   181b8:	ffe78793          	addi	a5,a5,-2
   181bc:	ffe70713          	addi	a4,a4,-2
   181c0:	01050533          	add	a0,a0,a6
   181c4:	00c50633          	add	a2,a0,a2
   181c8:	00c79123          	sh	a2,2(a5)
   181cc:	01065613          	srli	a2,a2,0x10
   181d0:	00167613          	andi	a2,a2,1
   181d4:	fd171ee3          	bne	a4,a7,181b0 <_ldtoa_r+0x11c4>
   181d8:	00000613          	li	a2,0
   181dc:	ccdff06f          	j	17ea8 <_ldtoa_r+0xebc>
   181e0:	00068713          	mv	a4,a3
   181e4:	06069263          	bnez	a3,18248 <_ldtoa_r+0x125c>
   181e8:	10e11783          	lh	a5,270(sp)
   181ec:	0407ce63          	bltz	a5,18248 <_ldtoa_r+0x125c>
   181f0:	12010693          	addi	a3,sp,288
   181f4:	0200006f          	j	18214 <_ldtoa_r+0x1228>
   181f8:	00f69023          	sh	a5,0(a3)
   181fc:	00171713          	slli	a4,a4,0x1
   18200:	01071713          	slli	a4,a4,0x10
   18204:	ffe68693          	addi	a3,a3,-2
   18208:	10a10793          	addi	a5,sp,266
   1820c:	01075713          	srli	a4,a4,0x10
   18210:	caf684e3          	beq	a3,a5,17eb8 <_ldtoa_r+0xecc>
   18214:	0006d783          	lhu	a5,0(a3)
   18218:	01079613          	slli	a2,a5,0x10
   1821c:	41065613          	srai	a2,a2,0x10
   18220:	00179793          	slli	a5,a5,0x1
   18224:	00065463          	bgez	a2,1822c <_ldtoa_r+0x1240>
   18228:	00176713          	ori	a4,a4,1
   1822c:	01079793          	slli	a5,a5,0x10
   18230:	0107d793          	srli	a5,a5,0x10
   18234:	00277613          	andi	a2,a4,2
   18238:	0017e593          	ori	a1,a5,1
   1823c:	fa060ee3          	beqz	a2,181f8 <_ldtoa_r+0x120c>
   18240:	00b69023          	sh	a1,0(a3)
   18244:	fb9ff06f          	j	181fc <_ldtoa_r+0x1210>
   18248:	10c10613          	addi	a2,sp,268
   1824c:	12010793          	addi	a5,sp,288
   18250:	08071263          	bnez	a4,182d4 <_ldtoa_r+0x12e8>
   18254:	08c78263          	beq	a5,a2,182d8 <_ldtoa_r+0x12ec>
   18258:	00065703          	lhu	a4,0(a2)
   1825c:	00260613          	addi	a2,a2,2
   18260:	ff1ff06f          	j	18250 <_ldtoa_r+0x1264>
   18264:	00090613          	mv	a2,s2
   18268:	10810713          	addi	a4,sp,264
   1826c:	12010793          	addi	a5,sp,288
   18270:	00270713          	addi	a4,a4,2
   18274:	ffe75503          	lhu	a0,-2(a4)
   18278:	00260613          	addi	a2,a2,2
   1827c:	fea61f23          	sh	a0,-2(a2)
   18280:	fef718e3          	bne	a4,a5,18270 <_ldtoa_r+0x1284>
   18284:	12011e23          	sh	zero,316(sp)
   18288:	10810613          	addi	a2,sp,264
   1828c:	0ec10713          	addi	a4,sp,236
   18290:	10410813          	addi	a6,sp,260
   18294:	00270713          	addi	a4,a4,2
   18298:	ffe75503          	lhu	a0,-2(a4)
   1829c:	00260613          	addi	a2,a2,2
   182a0:	fea61f23          	sh	a0,-2(a2)
   182a4:	ff0718e3          	bne	a4,a6,18294 <_ldtoa_r+0x12a8>
   182a8:	12011023          	sh	zero,288(sp)
   182ac:	0ec10513          	addi	a0,sp,236
   182b0:	00090713          	mv	a4,s2
   182b4:	13c10613          	addi	a2,sp,316
   182b8:	00270713          	addi	a4,a4,2
   182bc:	ffe75883          	lhu	a7,-2(a4)
   182c0:	00250513          	addi	a0,a0,2
   182c4:	ff151f23          	sh	a7,-2(a0)
   182c8:	fec718e3          	bne	a4,a2,182b8 <_ldtoa_r+0x12cc>
   182cc:	10011223          	sh	zero,260(sp)
   182d0:	b95ff06f          	j	17e64 <_ldtoa_r+0xe78>
   182d4:	00168513          	addi	a0,a3,1
   182d8:	10a11523          	sh	a0,266(sp)
   182dc:	bddff06f          	j	17eb8 <_ldtoa_r+0xecc>

000182e0 <_ldcheck>:
   182e0:	00852703          	lw	a4,8(a0)
   182e4:	00c52783          	lw	a5,12(a0)
   182e8:	00052603          	lw	a2,0(a0)
   182ec:	00452683          	lw	a3,4(a0)
   182f0:	fc010113          	addi	sp,sp,-64
   182f4:	00010513          	mv	a0,sp
   182f8:	01410593          	addi	a1,sp,20
   182fc:	00e12423          	sw	a4,8(sp)
   18300:	00f12623          	sw	a5,12(sp)
   18304:	02112e23          	sw	ra,60(sp)
   18308:	00c12023          	sw	a2,0(sp)
   1830c:	00d12223          	sw	a3,4(sp)
   18310:	b99fe0ef          	jal	ra,16ea8 <e113toe.isra.8>
   18314:	02615783          	lhu	a5,38(sp)
   18318:	00000513          	li	a0,0
   1831c:	fff7c793          	not	a5,a5
   18320:	01179713          	slli	a4,a5,0x11
   18324:	00071a63          	bnez	a4,18338 <_ldcheck+0x58>
   18328:	01410513          	addi	a0,sp,20
   1832c:	e60fd0ef          	jal	ra,1598c <eisnan.part.0>
   18330:	00153513          	seqz	a0,a0
   18334:	00150513          	addi	a0,a0,1
   18338:	03c12083          	lw	ra,60(sp)
   1833c:	04010113          	addi	sp,sp,64
   18340:	00008067          	ret

00018344 <__localeconv_l>:
   18344:	0f050513          	addi	a0,a0,240
   18348:	00008067          	ret

0001834c <_localeconv_r>:
   1834c:	0000f517          	auipc	a0,0xf
   18350:	2fc50513          	addi	a0,a0,764 # 27648 <__global_locale+0xf0>
   18354:	00008067          	ret

00018358 <localeconv>:
   18358:	0000f517          	auipc	a0,0xf
   1835c:	2f050513          	addi	a0,a0,752 # 27648 <__global_locale+0xf0>
   18360:	00008067          	ret

00018364 <_setlocale_r>:
   18364:	04060063          	beqz	a2,183a4 <_setlocale_r+0x40>
   18368:	ff010113          	addi	sp,sp,-16
   1836c:	0000d597          	auipc	a1,0xd
   18370:	a2058593          	addi	a1,a1,-1504 # 24d8c <bmask+0x50>
   18374:	00060513          	mv	a0,a2
   18378:	00812423          	sw	s0,8(sp)
   1837c:	00112623          	sw	ra,12(sp)
   18380:	00060413          	mv	s0,a2
   18384:	738020ef          	jal	ra,1aabc <strcmp>
   18388:	02051463          	bnez	a0,183b0 <_setlocale_r+0x4c>
   1838c:	0000d517          	auipc	a0,0xd
   18390:	9fc50513          	addi	a0,a0,-1540 # 24d88 <bmask+0x4c>
   18394:	00c12083          	lw	ra,12(sp)
   18398:	00812403          	lw	s0,8(sp)
   1839c:	01010113          	addi	sp,sp,16
   183a0:	00008067          	ret
   183a4:	0000d517          	auipc	a0,0xd
   183a8:	9e450513          	addi	a0,a0,-1564 # 24d88 <bmask+0x4c>
   183ac:	00008067          	ret
   183b0:	0000d597          	auipc	a1,0xd
   183b4:	9d858593          	addi	a1,a1,-1576 # 24d88 <bmask+0x4c>
   183b8:	00040513          	mv	a0,s0
   183bc:	700020ef          	jal	ra,1aabc <strcmp>
   183c0:	fc0506e3          	beqz	a0,1838c <_setlocale_r+0x28>
   183c4:	0000c597          	auipc	a1,0xc
   183c8:	73858593          	addi	a1,a1,1848 # 24afc <zeroes.4505+0x44>
   183cc:	00040513          	mv	a0,s0
   183d0:	6ec020ef          	jal	ra,1aabc <strcmp>
   183d4:	fa050ce3          	beqz	a0,1838c <_setlocale_r+0x28>
   183d8:	00000513          	li	a0,0
   183dc:	fb9ff06f          	j	18394 <_setlocale_r+0x30>

000183e0 <__locale_mb_cur_max>:
   183e0:	0000f517          	auipc	a0,0xf
   183e4:	2a054503          	lbu	a0,672(a0) # 27680 <__global_locale+0x128>
   183e8:	00008067          	ret

000183ec <setlocale>:
   183ec:	81c18793          	addi	a5,gp,-2020 # 27aec <_impure_ptr>
   183f0:	00058613          	mv	a2,a1
   183f4:	00050593          	mv	a1,a0
   183f8:	0007a503          	lw	a0,0(a5)
   183fc:	f69ff06f          	j	18364 <_setlocale_r>

00018400 <__swhatbuf_r>:
   18400:	f9010113          	addi	sp,sp,-112
   18404:	06812423          	sw	s0,104(sp)
   18408:	00058413          	mv	s0,a1
   1840c:	00e59583          	lh	a1,14(a1)
   18410:	06912223          	sw	s1,100(sp)
   18414:	07212023          	sw	s2,96(sp)
   18418:	06112623          	sw	ra,108(sp)
   1841c:	00060493          	mv	s1,a2
   18420:	00068913          	mv	s2,a3
   18424:	0405ca63          	bltz	a1,18478 <__swhatbuf_r+0x78>
   18428:	00810613          	addi	a2,sp,8
   1842c:	5a5060ef          	jal	ra,1f1d0 <_fstat_r>
   18430:	04054463          	bltz	a0,18478 <__swhatbuf_r+0x78>
   18434:	00c12703          	lw	a4,12(sp)
   18438:	0000f7b7          	lui	a5,0xf
   1843c:	06c12083          	lw	ra,108(sp)
   18440:	00e7f7b3          	and	a5,a5,a4
   18444:	ffffe737          	lui	a4,0xffffe
   18448:	00e787b3          	add	a5,a5,a4
   1844c:	0017b793          	seqz	a5,a5
   18450:	06812403          	lw	s0,104(sp)
   18454:	00f92023          	sw	a5,0(s2) # fffff000 <__global_pointer$+0xfffd6d30>
   18458:	40000793          	li	a5,1024
   1845c:	00f4a023          	sw	a5,0(s1)
   18460:	00001537          	lui	a0,0x1
   18464:	06412483          	lw	s1,100(sp)
   18468:	06012903          	lw	s2,96(sp)
   1846c:	80050513          	addi	a0,a0,-2048 # 800 <threadsense.2617+0x800>
   18470:	07010113          	addi	sp,sp,112
   18474:	00008067          	ret
   18478:	00c45783          	lhu	a5,12(s0)
   1847c:	00092023          	sw	zero,0(s2)
   18480:	0807f793          	andi	a5,a5,128
   18484:	02078463          	beqz	a5,184ac <__swhatbuf_r+0xac>
   18488:	06c12083          	lw	ra,108(sp)
   1848c:	06812403          	lw	s0,104(sp)
   18490:	04000793          	li	a5,64
   18494:	00f4a023          	sw	a5,0(s1)
   18498:	06012903          	lw	s2,96(sp)
   1849c:	06412483          	lw	s1,100(sp)
   184a0:	00000513          	li	a0,0
   184a4:	07010113          	addi	sp,sp,112
   184a8:	00008067          	ret
   184ac:	06c12083          	lw	ra,108(sp)
   184b0:	06812403          	lw	s0,104(sp)
   184b4:	40000793          	li	a5,1024
   184b8:	00f4a023          	sw	a5,0(s1)
   184bc:	06012903          	lw	s2,96(sp)
   184c0:	06412483          	lw	s1,100(sp)
   184c4:	00000513          	li	a0,0
   184c8:	07010113          	addi	sp,sp,112
   184cc:	00008067          	ret

000184d0 <__smakebuf_r>:
   184d0:	00c5d703          	lhu	a4,12(a1)
   184d4:	fe010113          	addi	sp,sp,-32
   184d8:	00812c23          	sw	s0,24(sp)
   184dc:	00112e23          	sw	ra,28(sp)
   184e0:	00912a23          	sw	s1,20(sp)
   184e4:	01212823          	sw	s2,16(sp)
   184e8:	00277713          	andi	a4,a4,2
   184ec:	00058413          	mv	s0,a1
   184f0:	02070863          	beqz	a4,18520 <__smakebuf_r+0x50>
   184f4:	04358713          	addi	a4,a1,67
   184f8:	00e5a023          	sw	a4,0(a1)
   184fc:	00e5a823          	sw	a4,16(a1)
   18500:	00100713          	li	a4,1
   18504:	00e5aa23          	sw	a4,20(a1)
   18508:	01c12083          	lw	ra,28(sp)
   1850c:	01812403          	lw	s0,24(sp)
   18510:	01412483          	lw	s1,20(sp)
   18514:	01012903          	lw	s2,16(sp)
   18518:	02010113          	addi	sp,sp,32
   1851c:	00008067          	ret
   18520:	00c10693          	addi	a3,sp,12
   18524:	00810613          	addi	a2,sp,8
   18528:	00050493          	mv	s1,a0
   1852c:	ed5ff0ef          	jal	ra,18400 <__swhatbuf_r>
   18530:	00812583          	lw	a1,8(sp)
   18534:	00050913          	mv	s2,a0
   18538:	00048513          	mv	a0,s1
   1853c:	0b4000ef          	jal	ra,185f0 <_malloc_r>
   18540:	00c41783          	lh	a5,12(s0)
   18544:	04050863          	beqz	a0,18594 <__smakebuf_r+0xc4>
   18548:	ffffc697          	auipc	a3,0xffffc
   1854c:	50c68693          	addi	a3,a3,1292 # 14a54 <_cleanup_r>
   18550:	02d4ae23          	sw	a3,60(s1)
   18554:	00812683          	lw	a3,8(sp)
   18558:	00c12703          	lw	a4,12(sp)
   1855c:	0807e793          	ori	a5,a5,128
   18560:	00f41623          	sh	a5,12(s0)
   18564:	00a42023          	sw	a0,0(s0)
   18568:	00a42823          	sw	a0,16(s0)
   1856c:	00d42a23          	sw	a3,20(s0)
   18570:	04071863          	bnez	a4,185c0 <__smakebuf_r+0xf0>
   18574:	0127e7b3          	or	a5,a5,s2
   18578:	00f41623          	sh	a5,12(s0)
   1857c:	01c12083          	lw	ra,28(sp)
   18580:	01812403          	lw	s0,24(sp)
   18584:	01412483          	lw	s1,20(sp)
   18588:	01012903          	lw	s2,16(sp)
   1858c:	02010113          	addi	sp,sp,32
   18590:	00008067          	ret
   18594:	2007f713          	andi	a4,a5,512
   18598:	f60718e3          	bnez	a4,18508 <__smakebuf_r+0x38>
   1859c:	ffc7f793          	andi	a5,a5,-4
   185a0:	0027e793          	ori	a5,a5,2
   185a4:	04340713          	addi	a4,s0,67
   185a8:	00f41623          	sh	a5,12(s0)
   185ac:	00100793          	li	a5,1
   185b0:	00e42023          	sw	a4,0(s0)
   185b4:	00e42823          	sw	a4,16(s0)
   185b8:	00f42a23          	sw	a5,20(s0)
   185bc:	f4dff06f          	j	18508 <__smakebuf_r+0x38>
   185c0:	00e41583          	lh	a1,14(s0)
   185c4:	00048513          	mv	a0,s1
   185c8:	465060ef          	jal	ra,1f22c <_isatty_r>
   185cc:	00051663          	bnez	a0,185d8 <__smakebuf_r+0x108>
   185d0:	00c41783          	lh	a5,12(s0)
   185d4:	fa1ff06f          	j	18574 <__smakebuf_r+0xa4>
   185d8:	00c45783          	lhu	a5,12(s0)
   185dc:	ffc7f793          	andi	a5,a5,-4
   185e0:	0017e793          	ori	a5,a5,1
   185e4:	01079793          	slli	a5,a5,0x10
   185e8:	4107d793          	srai	a5,a5,0x10
   185ec:	f89ff06f          	j	18574 <__smakebuf_r+0xa4>

000185f0 <_malloc_r>:
   185f0:	fd010113          	addi	sp,sp,-48
   185f4:	02912223          	sw	s1,36(sp)
   185f8:	03212023          	sw	s2,32(sp)
   185fc:	02112623          	sw	ra,44(sp)
   18600:	02812423          	sw	s0,40(sp)
   18604:	01312e23          	sw	s3,28(sp)
   18608:	01412c23          	sw	s4,24(sp)
   1860c:	01512a23          	sw	s5,20(sp)
   18610:	01612823          	sw	s6,16(sp)
   18614:	01712623          	sw	s7,12(sp)
   18618:	01812423          	sw	s8,8(sp)
   1861c:	01912223          	sw	s9,4(sp)
   18620:	00b58493          	addi	s1,a1,11
   18624:	01600793          	li	a5,22
   18628:	00050913          	mv	s2,a0
   1862c:	0697e663          	bltu	a5,s1,18698 <_malloc_r+0xa8>
   18630:	01000793          	li	a5,16
   18634:	22b7ec63          	bltu	a5,a1,1886c <_malloc_r+0x27c>
   18638:	351000ef          	jal	ra,19188 <__malloc_lock>
   1863c:	01000493          	li	s1,16
   18640:	01800793          	li	a5,24
   18644:	00200613          	li	a2,2
   18648:	0000f997          	auipc	s3,0xf
   1864c:	07c98993          	addi	s3,s3,124 # 276c4 <__malloc_av_>
   18650:	00f987b3          	add	a5,s3,a5
   18654:	0047a403          	lw	s0,4(a5) # f004 <threadsense.2617+0xf004>
   18658:	ff878713          	addi	a4,a5,-8
   1865c:	26e40063          	beq	s0,a4,188bc <_malloc_r+0x2cc>
   18660:	00442783          	lw	a5,4(s0)
   18664:	00c42683          	lw	a3,12(s0)
   18668:	00842603          	lw	a2,8(s0)
   1866c:	ffc7f793          	andi	a5,a5,-4
   18670:	00f407b3          	add	a5,s0,a5
   18674:	0047a703          	lw	a4,4(a5)
   18678:	00d62623          	sw	a3,12(a2)
   1867c:	00c6a423          	sw	a2,8(a3)
   18680:	00176713          	ori	a4,a4,1
   18684:	00090513          	mv	a0,s2
   18688:	00e7a223          	sw	a4,4(a5)
   1868c:	301000ef          	jal	ra,1918c <__malloc_unlock>
   18690:	00840513          	addi	a0,s0,8
   18694:	1e40006f          	j	18878 <_malloc_r+0x288>
   18698:	ff84f493          	andi	s1,s1,-8
   1869c:	1c04c863          	bltz	s1,1886c <_malloc_r+0x27c>
   186a0:	1cb4e663          	bltu	s1,a1,1886c <_malloc_r+0x27c>
   186a4:	2e5000ef          	jal	ra,19188 <__malloc_lock>
   186a8:	1f700793          	li	a5,503
   186ac:	4a97f463          	bgeu	a5,s1,18b54 <_malloc_r+0x564>
   186b0:	0094d793          	srli	a5,s1,0x9
   186b4:	1e078c63          	beqz	a5,188ac <_malloc_r+0x2bc>
   186b8:	00400713          	li	a4,4
   186bc:	42f76863          	bltu	a4,a5,18aec <_malloc_r+0x4fc>
   186c0:	0064d793          	srli	a5,s1,0x6
   186c4:	03978613          	addi	a2,a5,57
   186c8:	03878513          	addi	a0,a5,56
   186cc:	00361693          	slli	a3,a2,0x3
   186d0:	0000f997          	auipc	s3,0xf
   186d4:	ff498993          	addi	s3,s3,-12 # 276c4 <__malloc_av_>
   186d8:	00d986b3          	add	a3,s3,a3
   186dc:	0046a403          	lw	s0,4(a3)
   186e0:	ff868693          	addi	a3,a3,-8
   186e4:	02868c63          	beq	a3,s0,1871c <_malloc_r+0x12c>
   186e8:	00442783          	lw	a5,4(s0)
   186ec:	00f00593          	li	a1,15
   186f0:	ffc7f793          	andi	a5,a5,-4
   186f4:	40978733          	sub	a4,a5,s1
   186f8:	02e5c063          	blt	a1,a4,18718 <_malloc_r+0x128>
   186fc:	38075263          	bgez	a4,18a80 <_malloc_r+0x490>
   18700:	00c42403          	lw	s0,12(s0)
   18704:	00868c63          	beq	a3,s0,1871c <_malloc_r+0x12c>
   18708:	00442783          	lw	a5,4(s0)
   1870c:	ffc7f793          	andi	a5,a5,-4
   18710:	40978733          	sub	a4,a5,s1
   18714:	fee5d4e3          	bge	a1,a4,186fc <_malloc_r+0x10c>
   18718:	00050613          	mv	a2,a0
   1871c:	0109a403          	lw	s0,16(s3)
   18720:	0000f817          	auipc	a6,0xf
   18724:	fac80813          	addi	a6,a6,-84 # 276cc <__malloc_av_+0x8>
   18728:	1b040863          	beq	s0,a6,188d8 <_malloc_r+0x2e8>
   1872c:	00442583          	lw	a1,4(s0)
   18730:	00f00713          	li	a4,15
   18734:	ffc5f593          	andi	a1,a1,-4
   18738:	409587b3          	sub	a5,a1,s1
   1873c:	44f74263          	blt	a4,a5,18b80 <_malloc_r+0x590>
   18740:	0000f717          	auipc	a4,0xf
   18744:	f9072c23          	sw	a6,-104(a4) # 276d8 <__malloc_av_+0x14>
   18748:	0000f717          	auipc	a4,0xf
   1874c:	f9072623          	sw	a6,-116(a4) # 276d4 <__malloc_av_+0x10>
   18750:	4007d863          	bgez	a5,18b60 <_malloc_r+0x570>
   18754:	1ff00793          	li	a5,511
   18758:	32b7ea63          	bltu	a5,a1,18a8c <_malloc_r+0x49c>
   1875c:	0035d593          	srli	a1,a1,0x3
   18760:	00158793          	addi	a5,a1,1
   18764:	00379793          	slli	a5,a5,0x3
   18768:	0049a503          	lw	a0,4(s3)
   1876c:	00f987b3          	add	a5,s3,a5
   18770:	0007a683          	lw	a3,0(a5)
   18774:	4025d593          	srai	a1,a1,0x2
   18778:	00100713          	li	a4,1
   1877c:	00b71733          	sll	a4,a4,a1
   18780:	00a76733          	or	a4,a4,a0
   18784:	ff878593          	addi	a1,a5,-8
   18788:	00b42623          	sw	a1,12(s0)
   1878c:	00d42423          	sw	a3,8(s0)
   18790:	0000f597          	auipc	a1,0xf
   18794:	f2e5ac23          	sw	a4,-200(a1) # 276c8 <__malloc_av_+0x4>
   18798:	0087a023          	sw	s0,0(a5)
   1879c:	0086a623          	sw	s0,12(a3)
   187a0:	40265793          	srai	a5,a2,0x2
   187a4:	00100693          	li	a3,1
   187a8:	00f696b3          	sll	a3,a3,a5
   187ac:	14d76063          	bltu	a4,a3,188ec <_malloc_r+0x2fc>
   187b0:	00e6f7b3          	and	a5,a3,a4
   187b4:	02079463          	bnez	a5,187dc <_malloc_r+0x1ec>
   187b8:	00169693          	slli	a3,a3,0x1
   187bc:	ffc67613          	andi	a2,a2,-4
   187c0:	00e6f7b3          	and	a5,a3,a4
   187c4:	00460613          	addi	a2,a2,4
   187c8:	00079a63          	bnez	a5,187dc <_malloc_r+0x1ec>
   187cc:	00169693          	slli	a3,a3,0x1
   187d0:	00e6f7b3          	and	a5,a3,a4
   187d4:	00460613          	addi	a2,a2,4
   187d8:	fe078ae3          	beqz	a5,187cc <_malloc_r+0x1dc>
   187dc:	00f00513          	li	a0,15
   187e0:	00361893          	slli	a7,a2,0x3
   187e4:	011988b3          	add	a7,s3,a7
   187e8:	00088593          	mv	a1,a7
   187ec:	00060313          	mv	t1,a2
   187f0:	00c5a403          	lw	s0,12(a1)
   187f4:	00859a63          	bne	a1,s0,18808 <_malloc_r+0x218>
   187f8:	3180006f          	j	18b10 <_malloc_r+0x520>
   187fc:	32075463          	bgez	a4,18b24 <_malloc_r+0x534>
   18800:	00c42403          	lw	s0,12(s0)
   18804:	30858663          	beq	a1,s0,18b10 <_malloc_r+0x520>
   18808:	00442783          	lw	a5,4(s0)
   1880c:	ffc7f793          	andi	a5,a5,-4
   18810:	40978733          	sub	a4,a5,s1
   18814:	fee554e3          	bge	a0,a4,187fc <_malloc_r+0x20c>
   18818:	00c42683          	lw	a3,12(s0)
   1881c:	00842603          	lw	a2,8(s0)
   18820:	0014e593          	ori	a1,s1,1
   18824:	00b42223          	sw	a1,4(s0)
   18828:	00d62623          	sw	a3,12(a2)
   1882c:	00c6a423          	sw	a2,8(a3)
   18830:	009404b3          	add	s1,s0,s1
   18834:	0000f697          	auipc	a3,0xf
   18838:	ea96a223          	sw	s1,-348(a3) # 276d8 <__malloc_av_+0x14>
   1883c:	0000f697          	auipc	a3,0xf
   18840:	e896ac23          	sw	s1,-360(a3) # 276d4 <__malloc_av_+0x10>
   18844:	00176693          	ori	a3,a4,1
   18848:	0104a623          	sw	a6,12(s1)
   1884c:	0104a423          	sw	a6,8(s1)
   18850:	00d4a223          	sw	a3,4(s1)
   18854:	00f407b3          	add	a5,s0,a5
   18858:	00090513          	mv	a0,s2
   1885c:	00e7a023          	sw	a4,0(a5)
   18860:	12d000ef          	jal	ra,1918c <__malloc_unlock>
   18864:	00840513          	addi	a0,s0,8
   18868:	0100006f          	j	18878 <_malloc_r+0x288>
   1886c:	00c00793          	li	a5,12
   18870:	00f92023          	sw	a5,0(s2)
   18874:	00000513          	li	a0,0
   18878:	02c12083          	lw	ra,44(sp)
   1887c:	02812403          	lw	s0,40(sp)
   18880:	02412483          	lw	s1,36(sp)
   18884:	02012903          	lw	s2,32(sp)
   18888:	01c12983          	lw	s3,28(sp)
   1888c:	01812a03          	lw	s4,24(sp)
   18890:	01412a83          	lw	s5,20(sp)
   18894:	01012b03          	lw	s6,16(sp)
   18898:	00c12b83          	lw	s7,12(sp)
   1889c:	00812c03          	lw	s8,8(sp)
   188a0:	00412c83          	lw	s9,4(sp)
   188a4:	03010113          	addi	sp,sp,48
   188a8:	00008067          	ret
   188ac:	20000693          	li	a3,512
   188b0:	04000613          	li	a2,64
   188b4:	03f00513          	li	a0,63
   188b8:	e19ff06f          	j	186d0 <_malloc_r+0xe0>
   188bc:	00c7a403          	lw	s0,12(a5)
   188c0:	00260613          	addi	a2,a2,2
   188c4:	d8879ee3          	bne	a5,s0,18660 <_malloc_r+0x70>
   188c8:	0109a403          	lw	s0,16(s3)
   188cc:	0000f817          	auipc	a6,0xf
   188d0:	e0080813          	addi	a6,a6,-512 # 276cc <__malloc_av_+0x8>
   188d4:	e5041ce3          	bne	s0,a6,1872c <_malloc_r+0x13c>
   188d8:	0049a703          	lw	a4,4(s3)
   188dc:	40265793          	srai	a5,a2,0x2
   188e0:	00100693          	li	a3,1
   188e4:	00f696b3          	sll	a3,a3,a5
   188e8:	ecd774e3          	bgeu	a4,a3,187b0 <_malloc_r+0x1c0>
   188ec:	0089a403          	lw	s0,8(s3)
   188f0:	00442a83          	lw	s5,4(s0)
   188f4:	ffcafb93          	andi	s7,s5,-4
   188f8:	009be863          	bltu	s7,s1,18908 <_malloc_r+0x318>
   188fc:	409b87b3          	sub	a5,s7,s1
   18900:	00f00713          	li	a4,15
   18904:	14f74863          	blt	a4,a5,18a54 <_malloc_r+0x464>
   18908:	83018793          	addi	a5,gp,-2000 # 27b00 <__malloc_top_pad>
   1890c:	82018c13          	addi	s8,gp,-2016 # 27af0 <__malloc_sbrk_base>
   18910:	0007aa83          	lw	s5,0(a5)
   18914:	000c2703          	lw	a4,0(s8)
   18918:	fff00793          	li	a5,-1
   1891c:	01740a33          	add	s4,s0,s7
   18920:	01548ab3          	add	s5,s1,s5
   18924:	34f70663          	beq	a4,a5,18c70 <_malloc_r+0x680>
   18928:	000017b7          	lui	a5,0x1
   1892c:	00f78793          	addi	a5,a5,15 # 100f <threadsense.2617+0x100f>
   18930:	00fa8ab3          	add	s5,s5,a5
   18934:	fffff7b7          	lui	a5,0xfffff
   18938:	00fafab3          	and	s5,s5,a5
   1893c:	000a8593          	mv	a1,s5
   18940:	00090513          	mv	a0,s2
   18944:	631010ef          	jal	ra,1a774 <_sbrk_r>
   18948:	fff00793          	li	a5,-1
   1894c:	00050b13          	mv	s6,a0
   18950:	28f50663          	beq	a0,a5,18bdc <_malloc_r+0x5ec>
   18954:	29456263          	bltu	a0,s4,18bd8 <_malloc_r+0x5e8>
   18958:	86018c93          	addi	s9,gp,-1952 # 27b30 <__malloc_current_mallinfo>
   1895c:	000ca783          	lw	a5,0(s9)
   18960:	00fa87b3          	add	a5,s5,a5
   18964:	86f1a023          	sw	a5,-1952(gp) # 27b30 <__malloc_current_mallinfo>
   18968:	00078713          	mv	a4,a5
   1896c:	3aaa0663          	beq	s4,a0,18d18 <_malloc_r+0x728>
   18970:	000c2683          	lw	a3,0(s8)
   18974:	fff00793          	li	a5,-1
   18978:	3af68e63          	beq	a3,a5,18d34 <_malloc_r+0x744>
   1897c:	414b07b3          	sub	a5,s6,s4
   18980:	00e787b3          	add	a5,a5,a4
   18984:	86f1a023          	sw	a5,-1952(gp) # 27b30 <__malloc_current_mallinfo>
   18988:	007b7c13          	andi	s8,s6,7
   1898c:	300c0663          	beqz	s8,18c98 <_malloc_r+0x6a8>
   18990:	418b0b33          	sub	s6,s6,s8
   18994:	000017b7          	lui	a5,0x1
   18998:	008b0b13          	addi	s6,s6,8
   1899c:	fff78a13          	addi	s4,a5,-1 # fff <threadsense.2617+0xfff>
   189a0:	015b0ab3          	add	s5,s6,s5
   189a4:	00878793          	addi	a5,a5,8
   189a8:	014af733          	and	a4,s5,s4
   189ac:	418787b3          	sub	a5,a5,s8
   189b0:	40e787b3          	sub	a5,a5,a4
   189b4:	0147fa33          	and	s4,a5,s4
   189b8:	000a0593          	mv	a1,s4
   189bc:	00090513          	mv	a0,s2
   189c0:	5b5010ef          	jal	ra,1a774 <_sbrk_r>
   189c4:	fff00793          	li	a5,-1
   189c8:	3cf50063          	beq	a0,a5,18d88 <_malloc_r+0x798>
   189cc:	41650533          	sub	a0,a0,s6
   189d0:	01450ab3          	add	s5,a0,s4
   189d4:	000ca783          	lw	a5,0(s9)
   189d8:	0000f717          	auipc	a4,0xf
   189dc:	cf672a23          	sw	s6,-780(a4) # 276cc <__malloc_av_+0x8>
   189e0:	001aea93          	ori	s5,s5,1
   189e4:	00fa07b3          	add	a5,s4,a5
   189e8:	86f1a023          	sw	a5,-1952(gp) # 27b30 <__malloc_current_mallinfo>
   189ec:	015b2223          	sw	s5,4(s6)
   189f0:	35340663          	beq	s0,s3,18d3c <_malloc_r+0x74c>
   189f4:	00f00613          	li	a2,15
   189f8:	35767663          	bgeu	a2,s7,18d44 <_malloc_r+0x754>
   189fc:	00442683          	lw	a3,4(s0)
   18a00:	ff4b8713          	addi	a4,s7,-12
   18a04:	ff877713          	andi	a4,a4,-8
   18a08:	0016f693          	andi	a3,a3,1
   18a0c:	00e6e6b3          	or	a3,a3,a4
   18a10:	00d42223          	sw	a3,4(s0)
   18a14:	00500593          	li	a1,5
   18a18:	00e406b3          	add	a3,s0,a4
   18a1c:	00b6a223          	sw	a1,4(a3)
   18a20:	00b6a423          	sw	a1,8(a3)
   18a24:	36e66c63          	bltu	a2,a4,18d9c <_malloc_r+0x7ac>
   18a28:	004b2a83          	lw	s5,4(s6)
   18a2c:	000b0413          	mv	s0,s6
   18a30:	82c18713          	addi	a4,gp,-2004 # 27afc <__malloc_max_sbrked_mem>
   18a34:	00072703          	lw	a4,0(a4)
   18a38:	00f77463          	bgeu	a4,a5,18a40 <_malloc_r+0x450>
   18a3c:	82f1a623          	sw	a5,-2004(gp) # 27afc <__malloc_max_sbrked_mem>
   18a40:	82818713          	addi	a4,gp,-2008 # 27af8 <_edata>
   18a44:	00072703          	lw	a4,0(a4)
   18a48:	18f77e63          	bgeu	a4,a5,18be4 <_malloc_r+0x5f4>
   18a4c:	82f1a423          	sw	a5,-2008(gp) # 27af8 <_edata>
   18a50:	1940006f          	j	18be4 <_malloc_r+0x5f4>
   18a54:	0014e713          	ori	a4,s1,1
   18a58:	00e42223          	sw	a4,4(s0)
   18a5c:	009404b3          	add	s1,s0,s1
   18a60:	0000f717          	auipc	a4,0xf
   18a64:	c6972623          	sw	s1,-916(a4) # 276cc <__malloc_av_+0x8>
   18a68:	0017e793          	ori	a5,a5,1
   18a6c:	00090513          	mv	a0,s2
   18a70:	00f4a223          	sw	a5,4(s1)
   18a74:	718000ef          	jal	ra,1918c <__malloc_unlock>
   18a78:	00840513          	addi	a0,s0,8
   18a7c:	dfdff06f          	j	18878 <_malloc_r+0x288>
   18a80:	00c42683          	lw	a3,12(s0)
   18a84:	00842603          	lw	a2,8(s0)
   18a88:	be9ff06f          	j	18670 <_malloc_r+0x80>
   18a8c:	0095d793          	srli	a5,a1,0x9
   18a90:	00400713          	li	a4,4
   18a94:	12f77863          	bgeu	a4,a5,18bc4 <_malloc_r+0x5d4>
   18a98:	01400713          	li	a4,20
   18a9c:	22f76863          	bltu	a4,a5,18ccc <_malloc_r+0x6dc>
   18aa0:	05c78693          	addi	a3,a5,92
   18aa4:	05b78713          	addi	a4,a5,91
   18aa8:	00369693          	slli	a3,a3,0x3
   18aac:	00d986b3          	add	a3,s3,a3
   18ab0:	0006a783          	lw	a5,0(a3)
   18ab4:	ff868693          	addi	a3,a3,-8
   18ab8:	1cf68063          	beq	a3,a5,18c78 <_malloc_r+0x688>
   18abc:	0047a703          	lw	a4,4(a5)
   18ac0:	ffc77713          	andi	a4,a4,-4
   18ac4:	00e5f663          	bgeu	a1,a4,18ad0 <_malloc_r+0x4e0>
   18ac8:	0087a783          	lw	a5,8(a5)
   18acc:	fef698e3          	bne	a3,a5,18abc <_malloc_r+0x4cc>
   18ad0:	00c7a683          	lw	a3,12(a5)
   18ad4:	0049a703          	lw	a4,4(s3)
   18ad8:	00d42623          	sw	a3,12(s0)
   18adc:	00f42423          	sw	a5,8(s0)
   18ae0:	0086a423          	sw	s0,8(a3)
   18ae4:	0087a623          	sw	s0,12(a5)
   18ae8:	cb9ff06f          	j	187a0 <_malloc_r+0x1b0>
   18aec:	01400713          	li	a4,20
   18af0:	10f77c63          	bgeu	a4,a5,18c08 <_malloc_r+0x618>
   18af4:	05400713          	li	a4,84
   18af8:	1ef76863          	bltu	a4,a5,18ce8 <_malloc_r+0x6f8>
   18afc:	00c4d793          	srli	a5,s1,0xc
   18b00:	06f78613          	addi	a2,a5,111
   18b04:	06e78513          	addi	a0,a5,110
   18b08:	00361693          	slli	a3,a2,0x3
   18b0c:	bc5ff06f          	j	186d0 <_malloc_r+0xe0>
   18b10:	00130313          	addi	t1,t1,1
   18b14:	00337793          	andi	a5,t1,3
   18b18:	00858593          	addi	a1,a1,8
   18b1c:	cc079ae3          	bnez	a5,187f0 <_malloc_r+0x200>
   18b20:	1040006f          	j	18c24 <_malloc_r+0x634>
   18b24:	00f407b3          	add	a5,s0,a5
   18b28:	0047a703          	lw	a4,4(a5)
   18b2c:	00c42683          	lw	a3,12(s0)
   18b30:	00842603          	lw	a2,8(s0)
   18b34:	00176713          	ori	a4,a4,1
   18b38:	00e7a223          	sw	a4,4(a5)
   18b3c:	00d62623          	sw	a3,12(a2)
   18b40:	00090513          	mv	a0,s2
   18b44:	00c6a423          	sw	a2,8(a3)
   18b48:	644000ef          	jal	ra,1918c <__malloc_unlock>
   18b4c:	00840513          	addi	a0,s0,8
   18b50:	d29ff06f          	j	18878 <_malloc_r+0x288>
   18b54:	0034d613          	srli	a2,s1,0x3
   18b58:	00848793          	addi	a5,s1,8
   18b5c:	aedff06f          	j	18648 <_malloc_r+0x58>
   18b60:	00b405b3          	add	a1,s0,a1
   18b64:	0045a783          	lw	a5,4(a1)
   18b68:	00090513          	mv	a0,s2
   18b6c:	0017e793          	ori	a5,a5,1
   18b70:	00f5a223          	sw	a5,4(a1)
   18b74:	618000ef          	jal	ra,1918c <__malloc_unlock>
   18b78:	00840513          	addi	a0,s0,8
   18b7c:	cfdff06f          	j	18878 <_malloc_r+0x288>
   18b80:	0014e713          	ori	a4,s1,1
   18b84:	00e42223          	sw	a4,4(s0)
   18b88:	009404b3          	add	s1,s0,s1
   18b8c:	0000f717          	auipc	a4,0xf
   18b90:	b4972623          	sw	s1,-1204(a4) # 276d8 <__malloc_av_+0x14>
   18b94:	0000f717          	auipc	a4,0xf
   18b98:	b4972023          	sw	s1,-1216(a4) # 276d4 <__malloc_av_+0x10>
   18b9c:	0017e713          	ori	a4,a5,1
   18ba0:	0104a623          	sw	a6,12(s1)
   18ba4:	0104a423          	sw	a6,8(s1)
   18ba8:	00e4a223          	sw	a4,4(s1)
   18bac:	00b405b3          	add	a1,s0,a1
   18bb0:	00090513          	mv	a0,s2
   18bb4:	00f5a023          	sw	a5,0(a1)
   18bb8:	5d4000ef          	jal	ra,1918c <__malloc_unlock>
   18bbc:	00840513          	addi	a0,s0,8
   18bc0:	cb9ff06f          	j	18878 <_malloc_r+0x288>
   18bc4:	0065d793          	srli	a5,a1,0x6
   18bc8:	03978693          	addi	a3,a5,57
   18bcc:	03878713          	addi	a4,a5,56
   18bd0:	00369693          	slli	a3,a3,0x3
   18bd4:	ed9ff06f          	j	18aac <_malloc_r+0x4bc>
   18bd8:	13340663          	beq	s0,s3,18d04 <_malloc_r+0x714>
   18bdc:	0089a403          	lw	s0,8(s3)
   18be0:	00442a83          	lw	s5,4(s0)
   18be4:	ffcafa93          	andi	s5,s5,-4
   18be8:	409a87b3          	sub	a5,s5,s1
   18bec:	009ae663          	bltu	s5,s1,18bf8 <_malloc_r+0x608>
   18bf0:	00f00713          	li	a4,15
   18bf4:	e6f740e3          	blt	a4,a5,18a54 <_malloc_r+0x464>
   18bf8:	00090513          	mv	a0,s2
   18bfc:	590000ef          	jal	ra,1918c <__malloc_unlock>
   18c00:	00000513          	li	a0,0
   18c04:	c75ff06f          	j	18878 <_malloc_r+0x288>
   18c08:	05c78613          	addi	a2,a5,92
   18c0c:	05b78513          	addi	a0,a5,91
   18c10:	00361693          	slli	a3,a2,0x3
   18c14:	abdff06f          	j	186d0 <_malloc_r+0xe0>
   18c18:	0088a783          	lw	a5,8(a7)
   18c1c:	fff60613          	addi	a2,a2,-1
   18c20:	1d179863          	bne	a5,a7,18df0 <_malloc_r+0x800>
   18c24:	00367793          	andi	a5,a2,3
   18c28:	ff888893          	addi	a7,a7,-8
   18c2c:	fe0796e3          	bnez	a5,18c18 <_malloc_r+0x628>
   18c30:	0049a703          	lw	a4,4(s3)
   18c34:	fff6c793          	not	a5,a3
   18c38:	00e7f7b3          	and	a5,a5,a4
   18c3c:	0000f717          	auipc	a4,0xf
   18c40:	a8f72623          	sw	a5,-1396(a4) # 276c8 <__malloc_av_+0x4>
   18c44:	00169693          	slli	a3,a3,0x1
   18c48:	cad7e2e3          	bltu	a5,a3,188ec <_malloc_r+0x2fc>
   18c4c:	ca0680e3          	beqz	a3,188ec <_malloc_r+0x2fc>
   18c50:	00f6f733          	and	a4,a3,a5
   18c54:	00071a63          	bnez	a4,18c68 <_malloc_r+0x678>
   18c58:	00169693          	slli	a3,a3,0x1
   18c5c:	00f6f733          	and	a4,a3,a5
   18c60:	00430313          	addi	t1,t1,4
   18c64:	fe070ae3          	beqz	a4,18c58 <_malloc_r+0x668>
   18c68:	00030613          	mv	a2,t1
   18c6c:	b75ff06f          	j	187e0 <_malloc_r+0x1f0>
   18c70:	010a8a93          	addi	s5,s5,16
   18c74:	cc9ff06f          	j	1893c <_malloc_r+0x34c>
   18c78:	0049a503          	lw	a0,4(s3)
   18c7c:	40275593          	srai	a1,a4,0x2
   18c80:	00100713          	li	a4,1
   18c84:	00b71733          	sll	a4,a4,a1
   18c88:	00a76733          	or	a4,a4,a0
   18c8c:	0000f597          	auipc	a1,0xf
   18c90:	a2e5ae23          	sw	a4,-1476(a1) # 276c8 <__malloc_av_+0x4>
   18c94:	e45ff06f          	j	18ad8 <_malloc_r+0x4e8>
   18c98:	000017b7          	lui	a5,0x1
   18c9c:	fff78713          	addi	a4,a5,-1 # fff <threadsense.2617+0xfff>
   18ca0:	015b0a33          	add	s4,s6,s5
   18ca4:	00ea7a33          	and	s4,s4,a4
   18ca8:	414787b3          	sub	a5,a5,s4
   18cac:	00e7fa33          	and	s4,a5,a4
   18cb0:	000a0593          	mv	a1,s4
   18cb4:	00090513          	mv	a0,s2
   18cb8:	2bd010ef          	jal	ra,1a774 <_sbrk_r>
   18cbc:	fff00793          	li	a5,-1
   18cc0:	d0f516e3          	bne	a0,a5,189cc <_malloc_r+0x3dc>
   18cc4:	00000a13          	li	s4,0
   18cc8:	d0dff06f          	j	189d4 <_malloc_r+0x3e4>
   18ccc:	05400713          	li	a4,84
   18cd0:	08f76063          	bltu	a4,a5,18d50 <_malloc_r+0x760>
   18cd4:	00c5d793          	srli	a5,a1,0xc
   18cd8:	06f78693          	addi	a3,a5,111
   18cdc:	06e78713          	addi	a4,a5,110
   18ce0:	00369693          	slli	a3,a3,0x3
   18ce4:	dc9ff06f          	j	18aac <_malloc_r+0x4bc>
   18ce8:	15400713          	li	a4,340
   18cec:	08f76063          	bltu	a4,a5,18d6c <_malloc_r+0x77c>
   18cf0:	00f4d793          	srli	a5,s1,0xf
   18cf4:	07878613          	addi	a2,a5,120
   18cf8:	07778513          	addi	a0,a5,119
   18cfc:	00361693          	slli	a3,a2,0x3
   18d00:	9d1ff06f          	j	186d0 <_malloc_r+0xe0>
   18d04:	86018c93          	addi	s9,gp,-1952 # 27b30 <__malloc_current_mallinfo>
   18d08:	000ca783          	lw	a5,0(s9)
   18d0c:	00fa8733          	add	a4,s5,a5
   18d10:	86e1a023          	sw	a4,-1952(gp) # 27b30 <__malloc_current_mallinfo>
   18d14:	c5dff06f          	j	18970 <_malloc_r+0x380>
   18d18:	014a1693          	slli	a3,s4,0x14
   18d1c:	c4069ae3          	bnez	a3,18970 <_malloc_r+0x380>
   18d20:	0089a403          	lw	s0,8(s3)
   18d24:	015b8ab3          	add	s5,s7,s5
   18d28:	001aea93          	ori	s5,s5,1
   18d2c:	01542223          	sw	s5,4(s0)
   18d30:	d01ff06f          	j	18a30 <_malloc_r+0x440>
   18d34:	8361a023          	sw	s6,-2016(gp) # 27af0 <__malloc_sbrk_base>
   18d38:	c51ff06f          	j	18988 <_malloc_r+0x398>
   18d3c:	000b0413          	mv	s0,s6
   18d40:	cf1ff06f          	j	18a30 <_malloc_r+0x440>
   18d44:	00100793          	li	a5,1
   18d48:	00fb2223          	sw	a5,4(s6)
   18d4c:	eadff06f          	j	18bf8 <_malloc_r+0x608>
   18d50:	15400713          	li	a4,340
   18d54:	06f76263          	bltu	a4,a5,18db8 <_malloc_r+0x7c8>
   18d58:	00f5d793          	srli	a5,a1,0xf
   18d5c:	07878693          	addi	a3,a5,120
   18d60:	07778713          	addi	a4,a5,119
   18d64:	00369693          	slli	a3,a3,0x3
   18d68:	d45ff06f          	j	18aac <_malloc_r+0x4bc>
   18d6c:	55400713          	li	a4,1364
   18d70:	06f76263          	bltu	a4,a5,18dd4 <_malloc_r+0x7e4>
   18d74:	0124d793          	srli	a5,s1,0x12
   18d78:	07d78613          	addi	a2,a5,125
   18d7c:	07c78513          	addi	a0,a5,124
   18d80:	00361693          	slli	a3,a2,0x3
   18d84:	94dff06f          	j	186d0 <_malloc_r+0xe0>
   18d88:	ff8c0c13          	addi	s8,s8,-8
   18d8c:	018a8ab3          	add	s5,s5,s8
   18d90:	416a8ab3          	sub	s5,s5,s6
   18d94:	00000a13          	li	s4,0
   18d98:	c3dff06f          	j	189d4 <_malloc_r+0x3e4>
   18d9c:	00840593          	addi	a1,s0,8
   18da0:	00090513          	mv	a0,s2
   18da4:	940fc0ef          	jal	ra,14ee4 <_free_r>
   18da8:	0089a403          	lw	s0,8(s3)
   18dac:	000ca783          	lw	a5,0(s9)
   18db0:	00442a83          	lw	s5,4(s0)
   18db4:	c7dff06f          	j	18a30 <_malloc_r+0x440>
   18db8:	55400713          	li	a4,1364
   18dbc:	02f76463          	bltu	a4,a5,18de4 <_malloc_r+0x7f4>
   18dc0:	0125d793          	srli	a5,a1,0x12
   18dc4:	07d78693          	addi	a3,a5,125
   18dc8:	07c78713          	addi	a4,a5,124
   18dcc:	00369693          	slli	a3,a3,0x3
   18dd0:	cddff06f          	j	18aac <_malloc_r+0x4bc>
   18dd4:	3f800693          	li	a3,1016
   18dd8:	07f00613          	li	a2,127
   18ddc:	07e00513          	li	a0,126
   18de0:	8f1ff06f          	j	186d0 <_malloc_r+0xe0>
   18de4:	3f800693          	li	a3,1016
   18de8:	07e00713          	li	a4,126
   18dec:	cc1ff06f          	j	18aac <_malloc_r+0x4bc>
   18df0:	0049a783          	lw	a5,4(s3)
   18df4:	e51ff06f          	j	18c44 <_malloc_r+0x654>

00018df8 <_mbtowc_r>:
   18df8:	0000e797          	auipc	a5,0xe
   18dfc:	76078793          	addi	a5,a5,1888 # 27558 <__global_locale>
   18e00:	0e47a303          	lw	t1,228(a5)
   18e04:	00030067          	jr	t1

00018e08 <__ascii_mbtowc>:
   18e08:	02058063          	beqz	a1,18e28 <__ascii_mbtowc+0x20>
   18e0c:	04060263          	beqz	a2,18e50 <__ascii_mbtowc+0x48>
   18e10:	04068863          	beqz	a3,18e60 <__ascii_mbtowc+0x58>
   18e14:	00064783          	lbu	a5,0(a2)
   18e18:	00f5a023          	sw	a5,0(a1)
   18e1c:	00064503          	lbu	a0,0(a2)
   18e20:	00a03533          	snez	a0,a0
   18e24:	00008067          	ret
   18e28:	ff010113          	addi	sp,sp,-16
   18e2c:	00c10593          	addi	a1,sp,12
   18e30:	02060463          	beqz	a2,18e58 <__ascii_mbtowc+0x50>
   18e34:	02068a63          	beqz	a3,18e68 <__ascii_mbtowc+0x60>
   18e38:	00064783          	lbu	a5,0(a2)
   18e3c:	00f5a023          	sw	a5,0(a1)
   18e40:	00064503          	lbu	a0,0(a2)
   18e44:	00a03533          	snez	a0,a0
   18e48:	01010113          	addi	sp,sp,16
   18e4c:	00008067          	ret
   18e50:	00000513          	li	a0,0
   18e54:	00008067          	ret
   18e58:	00000513          	li	a0,0
   18e5c:	fedff06f          	j	18e48 <__ascii_mbtowc+0x40>
   18e60:	ffe00513          	li	a0,-2
   18e64:	00008067          	ret
   18e68:	ffe00513          	li	a0,-2
   18e6c:	fddff06f          	j	18e48 <__ascii_mbtowc+0x40>

00018e70 <memchr>:
   18e70:	00357793          	andi	a5,a0,3
   18e74:	0ff5f813          	andi	a6,a1,255
   18e78:	0c078663          	beqz	a5,18f44 <memchr+0xd4>
   18e7c:	fff60793          	addi	a5,a2,-1
   18e80:	04060e63          	beqz	a2,18edc <memchr+0x6c>
   18e84:	00054703          	lbu	a4,0(a0)
   18e88:	05070c63          	beq	a4,a6,18ee0 <memchr+0x70>
   18e8c:	fff00693          	li	a3,-1
   18e90:	0140006f          	j	18ea4 <memchr+0x34>
   18e94:	fff78793          	addi	a5,a5,-1
   18e98:	04d78263          	beq	a5,a3,18edc <memchr+0x6c>
   18e9c:	00054703          	lbu	a4,0(a0)
   18ea0:	05070063          	beq	a4,a6,18ee0 <memchr+0x70>
   18ea4:	00150513          	addi	a0,a0,1
   18ea8:	00357713          	andi	a4,a0,3
   18eac:	fe0714e3          	bnez	a4,18e94 <memchr+0x24>
   18eb0:	00300713          	li	a4,3
   18eb4:	02f76863          	bltu	a4,a5,18ee4 <memchr+0x74>
   18eb8:	02078263          	beqz	a5,18edc <memchr+0x6c>
   18ebc:	00054703          	lbu	a4,0(a0)
   18ec0:	03070063          	beq	a4,a6,18ee0 <memchr+0x70>
   18ec4:	00f507b3          	add	a5,a0,a5
   18ec8:	00c0006f          	j	18ed4 <memchr+0x64>
   18ecc:	00054703          	lbu	a4,0(a0)
   18ed0:	01070863          	beq	a4,a6,18ee0 <memchr+0x70>
   18ed4:	00150513          	addi	a0,a0,1
   18ed8:	fea79ae3          	bne	a5,a0,18ecc <memchr+0x5c>
   18edc:	00000513          	li	a0,0
   18ee0:	00008067          	ret
   18ee4:	00010737          	lui	a4,0x10
   18ee8:	00859893          	slli	a7,a1,0x8
   18eec:	fff70713          	addi	a4,a4,-1 # ffff <threadsense.2617+0xffff>
   18ef0:	00e8f8b3          	and	a7,a7,a4
   18ef4:	0ff5f593          	andi	a1,a1,255
   18ef8:	00b8e5b3          	or	a1,a7,a1
   18efc:	01059893          	slli	a7,a1,0x10
   18f00:	00b8e8b3          	or	a7,a7,a1
   18f04:	80808637          	lui	a2,0x80808
   18f08:	feff05b7          	lui	a1,0xfeff0
   18f0c:	eff58593          	addi	a1,a1,-257 # fefefeff <__global_pointer$+0xfefc7c2f>
   18f10:	08060613          	addi	a2,a2,128 # 80808080 <__global_pointer$+0x807dfdb0>
   18f14:	00300313          	li	t1,3
   18f18:	00052703          	lw	a4,0(a0)
   18f1c:	00e8c733          	xor	a4,a7,a4
   18f20:	00b706b3          	add	a3,a4,a1
   18f24:	fff74713          	not	a4,a4
   18f28:	00e6f733          	and	a4,a3,a4
   18f2c:	00c77733          	and	a4,a4,a2
   18f30:	f80716e3          	bnez	a4,18ebc <memchr+0x4c>
   18f34:	ffc78793          	addi	a5,a5,-4
   18f38:	00450513          	addi	a0,a0,4
   18f3c:	fcf36ee3          	bltu	t1,a5,18f18 <memchr+0xa8>
   18f40:	f79ff06f          	j	18eb8 <memchr+0x48>
   18f44:	00060793          	mv	a5,a2
   18f48:	f69ff06f          	j	18eb0 <memchr+0x40>

00018f4c <memcpy>:
   18f4c:	00a5c7b3          	xor	a5,a1,a0
   18f50:	0037f793          	andi	a5,a5,3
   18f54:	00c508b3          	add	a7,a0,a2
   18f58:	06079263          	bnez	a5,18fbc <memcpy+0x70>
   18f5c:	00300793          	li	a5,3
   18f60:	04c7fe63          	bgeu	a5,a2,18fbc <memcpy+0x70>
   18f64:	00357793          	andi	a5,a0,3
   18f68:	00050713          	mv	a4,a0
   18f6c:	06079863          	bnez	a5,18fdc <memcpy+0x90>
   18f70:	ffc8f613          	andi	a2,a7,-4
   18f74:	fe060793          	addi	a5,a2,-32
   18f78:	08f76c63          	bltu	a4,a5,19010 <memcpy+0xc4>
   18f7c:	02c77c63          	bgeu	a4,a2,18fb4 <memcpy+0x68>
   18f80:	00058693          	mv	a3,a1
   18f84:	00070793          	mv	a5,a4
   18f88:	0006a803          	lw	a6,0(a3)
   18f8c:	00478793          	addi	a5,a5,4
   18f90:	00468693          	addi	a3,a3,4
   18f94:	ff07ae23          	sw	a6,-4(a5)
   18f98:	fec7e8e3          	bltu	a5,a2,18f88 <memcpy+0x3c>
   18f9c:	fff60793          	addi	a5,a2,-1
   18fa0:	40e787b3          	sub	a5,a5,a4
   18fa4:	ffc7f793          	andi	a5,a5,-4
   18fa8:	00478793          	addi	a5,a5,4
   18fac:	00f70733          	add	a4,a4,a5
   18fb0:	00f585b3          	add	a1,a1,a5
   18fb4:	01176863          	bltu	a4,a7,18fc4 <memcpy+0x78>
   18fb8:	00008067          	ret
   18fbc:	00050713          	mv	a4,a0
   18fc0:	ff157ce3          	bgeu	a0,a7,18fb8 <memcpy+0x6c>
   18fc4:	0005c783          	lbu	a5,0(a1)
   18fc8:	00170713          	addi	a4,a4,1
   18fcc:	00158593          	addi	a1,a1,1
   18fd0:	fef70fa3          	sb	a5,-1(a4)
   18fd4:	ff1768e3          	bltu	a4,a7,18fc4 <memcpy+0x78>
   18fd8:	00008067          	ret
   18fdc:	0005c683          	lbu	a3,0(a1)
   18fe0:	00170713          	addi	a4,a4,1
   18fe4:	00377793          	andi	a5,a4,3
   18fe8:	fed70fa3          	sb	a3,-1(a4)
   18fec:	00158593          	addi	a1,a1,1
   18ff0:	f80780e3          	beqz	a5,18f70 <memcpy+0x24>
   18ff4:	0005c683          	lbu	a3,0(a1)
   18ff8:	00170713          	addi	a4,a4,1
   18ffc:	00377793          	andi	a5,a4,3
   19000:	fed70fa3          	sb	a3,-1(a4)
   19004:	00158593          	addi	a1,a1,1
   19008:	fc079ae3          	bnez	a5,18fdc <memcpy+0x90>
   1900c:	f65ff06f          	j	18f70 <memcpy+0x24>
   19010:	0005a683          	lw	a3,0(a1)
   19014:	0045a283          	lw	t0,4(a1)
   19018:	0085af83          	lw	t6,8(a1)
   1901c:	00c5af03          	lw	t5,12(a1)
   19020:	0105ae83          	lw	t4,16(a1)
   19024:	0145ae03          	lw	t3,20(a1)
   19028:	0185a303          	lw	t1,24(a1)
   1902c:	01c5a803          	lw	a6,28(a1)
   19030:	02458593          	addi	a1,a1,36
   19034:	00d72023          	sw	a3,0(a4)
   19038:	ffc5a683          	lw	a3,-4(a1)
   1903c:	00572223          	sw	t0,4(a4)
   19040:	01f72423          	sw	t6,8(a4)
   19044:	01e72623          	sw	t5,12(a4)
   19048:	01d72823          	sw	t4,16(a4)
   1904c:	01c72a23          	sw	t3,20(a4)
   19050:	00672c23          	sw	t1,24(a4)
   19054:	01072e23          	sw	a6,28(a4)
   19058:	02470713          	addi	a4,a4,36
   1905c:	fed72e23          	sw	a3,-4(a4)
   19060:	faf768e3          	bltu	a4,a5,19010 <memcpy+0xc4>
   19064:	f19ff06f          	j	18f7c <memcpy+0x30>

00019068 <memmove>:
   19068:	02a5f663          	bgeu	a1,a0,19094 <memmove+0x2c>
   1906c:	00c587b3          	add	a5,a1,a2
   19070:	02f57263          	bgeu	a0,a5,19094 <memmove+0x2c>
   19074:	00c50733          	add	a4,a0,a2
   19078:	0e060a63          	beqz	a2,1916c <memmove+0x104>
   1907c:	fff78793          	addi	a5,a5,-1
   19080:	0007c683          	lbu	a3,0(a5)
   19084:	fff70713          	addi	a4,a4,-1
   19088:	00d70023          	sb	a3,0(a4)
   1908c:	fef598e3          	bne	a1,a5,1907c <memmove+0x14>
   19090:	00008067          	ret
   19094:	00f00793          	li	a5,15
   19098:	02c7e863          	bltu	a5,a2,190c8 <memmove+0x60>
   1909c:	00050793          	mv	a5,a0
   190a0:	fff60693          	addi	a3,a2,-1
   190a4:	0c060c63          	beqz	a2,1917c <memmove+0x114>
   190a8:	00168693          	addi	a3,a3,1
   190ac:	00d786b3          	add	a3,a5,a3
   190b0:	00158593          	addi	a1,a1,1
   190b4:	fff5c703          	lbu	a4,-1(a1)
   190b8:	00178793          	addi	a5,a5,1
   190bc:	fee78fa3          	sb	a4,-1(a5)
   190c0:	fed798e3          	bne	a5,a3,190b0 <memmove+0x48>
   190c4:	00008067          	ret
   190c8:	00a5e7b3          	or	a5,a1,a0
   190cc:	0037f793          	andi	a5,a5,3
   190d0:	0a079063          	bnez	a5,19170 <memmove+0x108>
   190d4:	ff060893          	addi	a7,a2,-16
   190d8:	ff08f893          	andi	a7,a7,-16
   190dc:	01088893          	addi	a7,a7,16
   190e0:	01150833          	add	a6,a0,a7
   190e4:	00058713          	mv	a4,a1
   190e8:	00050793          	mv	a5,a0
   190ec:	00072683          	lw	a3,0(a4)
   190f0:	01078793          	addi	a5,a5,16
   190f4:	01070713          	addi	a4,a4,16
   190f8:	fed7a823          	sw	a3,-16(a5)
   190fc:	ff472683          	lw	a3,-12(a4)
   19100:	fed7aa23          	sw	a3,-12(a5)
   19104:	ff872683          	lw	a3,-8(a4)
   19108:	fed7ac23          	sw	a3,-8(a5)
   1910c:	ffc72683          	lw	a3,-4(a4)
   19110:	fed7ae23          	sw	a3,-4(a5)
   19114:	fcf81ce3          	bne	a6,a5,190ec <memmove+0x84>
   19118:	00c67713          	andi	a4,a2,12
   1911c:	011585b3          	add	a1,a1,a7
   19120:	00f67813          	andi	a6,a2,15
   19124:	04070e63          	beqz	a4,19180 <memmove+0x118>
   19128:	00058713          	mv	a4,a1
   1912c:	00078893          	mv	a7,a5
   19130:	00300e13          	li	t3,3
   19134:	00470713          	addi	a4,a4,4
   19138:	ffc72303          	lw	t1,-4(a4)
   1913c:	00488893          	addi	a7,a7,4
   19140:	40e806b3          	sub	a3,a6,a4
   19144:	fe68ae23          	sw	t1,-4(a7)
   19148:	00d586b3          	add	a3,a1,a3
   1914c:	fede64e3          	bltu	t3,a3,19134 <memmove+0xcc>
   19150:	ffc80713          	addi	a4,a6,-4
   19154:	ffc77713          	andi	a4,a4,-4
   19158:	00470713          	addi	a4,a4,4
   1915c:	00367613          	andi	a2,a2,3
   19160:	00e787b3          	add	a5,a5,a4
   19164:	00e585b3          	add	a1,a1,a4
   19168:	f39ff06f          	j	190a0 <memmove+0x38>
   1916c:	00008067          	ret
   19170:	fff60693          	addi	a3,a2,-1
   19174:	00050793          	mv	a5,a0
   19178:	f31ff06f          	j	190a8 <memmove+0x40>
   1917c:	00008067          	ret
   19180:	00080613          	mv	a2,a6
   19184:	f1dff06f          	j	190a0 <memmove+0x38>

00019188 <__malloc_lock>:
   19188:	00008067          	ret

0001918c <__malloc_unlock>:
   1918c:	00008067          	ret

00019190 <_Balloc>:
   19190:	04c52783          	lw	a5,76(a0)
   19194:	ff010113          	addi	sp,sp,-16
   19198:	00812423          	sw	s0,8(sp)
   1919c:	00912223          	sw	s1,4(sp)
   191a0:	00112623          	sw	ra,12(sp)
   191a4:	01212023          	sw	s2,0(sp)
   191a8:	00050413          	mv	s0,a0
   191ac:	00058493          	mv	s1,a1
   191b0:	02078e63          	beqz	a5,191ec <_Balloc+0x5c>
   191b4:	00249713          	slli	a4,s1,0x2
   191b8:	00e787b3          	add	a5,a5,a4
   191bc:	0007a503          	lw	a0,0(a5)
   191c0:	04050663          	beqz	a0,1920c <_Balloc+0x7c>
   191c4:	00052703          	lw	a4,0(a0)
   191c8:	00e7a023          	sw	a4,0(a5)
   191cc:	00052823          	sw	zero,16(a0)
   191d0:	00052623          	sw	zero,12(a0)
   191d4:	00c12083          	lw	ra,12(sp)
   191d8:	00812403          	lw	s0,8(sp)
   191dc:	00412483          	lw	s1,4(sp)
   191e0:	00012903          	lw	s2,0(sp)
   191e4:	01010113          	addi	sp,sp,16
   191e8:	00008067          	ret
   191ec:	02100613          	li	a2,33
   191f0:	00400593          	li	a1,4
   191f4:	3dd050ef          	jal	ra,1edd0 <_calloc_r>
   191f8:	04a42623          	sw	a0,76(s0)
   191fc:	00050793          	mv	a5,a0
   19200:	fa051ae3          	bnez	a0,191b4 <_Balloc+0x24>
   19204:	00000513          	li	a0,0
   19208:	fcdff06f          	j	191d4 <_Balloc+0x44>
   1920c:	00100913          	li	s2,1
   19210:	00991933          	sll	s2,s2,s1
   19214:	00590613          	addi	a2,s2,5
   19218:	00261613          	slli	a2,a2,0x2
   1921c:	00100593          	li	a1,1
   19220:	00040513          	mv	a0,s0
   19224:	3ad050ef          	jal	ra,1edd0 <_calloc_r>
   19228:	fc050ee3          	beqz	a0,19204 <_Balloc+0x74>
   1922c:	00952223          	sw	s1,4(a0)
   19230:	01252423          	sw	s2,8(a0)
   19234:	f99ff06f          	j	191cc <_Balloc+0x3c>

00019238 <_Bfree>:
   19238:	02058063          	beqz	a1,19258 <_Bfree+0x20>
   1923c:	0045a703          	lw	a4,4(a1)
   19240:	04c52783          	lw	a5,76(a0)
   19244:	00271713          	slli	a4,a4,0x2
   19248:	00e787b3          	add	a5,a5,a4
   1924c:	0007a703          	lw	a4,0(a5)
   19250:	00e5a023          	sw	a4,0(a1)
   19254:	00b7a023          	sw	a1,0(a5)
   19258:	00008067          	ret

0001925c <__multadd>:
   1925c:	fd010113          	addi	sp,sp,-48
   19260:	00010837          	lui	a6,0x10
   19264:	02812423          	sw	s0,40(sp)
   19268:	02912223          	sw	s1,36(sp)
   1926c:	03212023          	sw	s2,32(sp)
   19270:	00058493          	mv	s1,a1
   19274:	0105a403          	lw	s0,16(a1)
   19278:	00050913          	mv	s2,a0
   1927c:	02112623          	sw	ra,44(sp)
   19280:	01312e23          	sw	s3,28(sp)
   19284:	01458593          	addi	a1,a1,20
   19288:	00000513          	li	a0,0
   1928c:	fff80813          	addi	a6,a6,-1 # ffff <threadsense.2617+0xffff>
   19290:	0005a783          	lw	a5,0(a1)
   19294:	00458593          	addi	a1,a1,4
   19298:	00150513          	addi	a0,a0,1
   1929c:	0107f733          	and	a4,a5,a6
   192a0:	02c70733          	mul	a4,a4,a2
   192a4:	0107d793          	srli	a5,a5,0x10
   192a8:	02c787b3          	mul	a5,a5,a2
   192ac:	00d706b3          	add	a3,a4,a3
   192b0:	0106d893          	srli	a7,a3,0x10
   192b4:	0106f733          	and	a4,a3,a6
   192b8:	011786b3          	add	a3,a5,a7
   192bc:	01069793          	slli	a5,a3,0x10
   192c0:	00e78733          	add	a4,a5,a4
   192c4:	fee5ae23          	sw	a4,-4(a1)
   192c8:	0106d693          	srli	a3,a3,0x10
   192cc:	fc8542e3          	blt	a0,s0,19290 <__multadd+0x34>
   192d0:	02068263          	beqz	a3,192f4 <__multadd+0x98>
   192d4:	0084a783          	lw	a5,8(s1)
   192d8:	02f45e63          	bge	s0,a5,19314 <__multadd+0xb8>
   192dc:	00440793          	addi	a5,s0,4
   192e0:	00279793          	slli	a5,a5,0x2
   192e4:	00f487b3          	add	a5,s1,a5
   192e8:	00d7a223          	sw	a3,4(a5)
   192ec:	00140413          	addi	s0,s0,1
   192f0:	0084a823          	sw	s0,16(s1)
   192f4:	02c12083          	lw	ra,44(sp)
   192f8:	02812403          	lw	s0,40(sp)
   192fc:	00048513          	mv	a0,s1
   19300:	02012903          	lw	s2,32(sp)
   19304:	02412483          	lw	s1,36(sp)
   19308:	01c12983          	lw	s3,28(sp)
   1930c:	03010113          	addi	sp,sp,48
   19310:	00008067          	ret
   19314:	0044a583          	lw	a1,4(s1)
   19318:	00090513          	mv	a0,s2
   1931c:	00d12623          	sw	a3,12(sp)
   19320:	00158593          	addi	a1,a1,1
   19324:	e6dff0ef          	jal	ra,19190 <_Balloc>
   19328:	0104a603          	lw	a2,16(s1)
   1932c:	00050993          	mv	s3,a0
   19330:	00c48593          	addi	a1,s1,12
   19334:	00260613          	addi	a2,a2,2
   19338:	00c50513          	addi	a0,a0,12
   1933c:	00261613          	slli	a2,a2,0x2
   19340:	c0dff0ef          	jal	ra,18f4c <memcpy>
   19344:	0044a703          	lw	a4,4(s1)
   19348:	04c92783          	lw	a5,76(s2)
   1934c:	00c12683          	lw	a3,12(sp)
   19350:	00271713          	slli	a4,a4,0x2
   19354:	00e787b3          	add	a5,a5,a4
   19358:	0007a703          	lw	a4,0(a5)
   1935c:	00e4a023          	sw	a4,0(s1)
   19360:	0097a023          	sw	s1,0(a5)
   19364:	00440793          	addi	a5,s0,4
   19368:	00098493          	mv	s1,s3
   1936c:	00279793          	slli	a5,a5,0x2
   19370:	00f487b3          	add	a5,s1,a5
   19374:	00d7a223          	sw	a3,4(a5)
   19378:	00140413          	addi	s0,s0,1
   1937c:	0084a823          	sw	s0,16(s1)
   19380:	f75ff06f          	j	192f4 <__multadd+0x98>

00019384 <__s2b>:
   19384:	fe010113          	addi	sp,sp,-32
   19388:	00812c23          	sw	s0,24(sp)
   1938c:	00912a23          	sw	s1,20(sp)
   19390:	01212823          	sw	s2,16(sp)
   19394:	01312623          	sw	s3,12(sp)
   19398:	01412423          	sw	s4,8(sp)
   1939c:	00068913          	mv	s2,a3
   193a0:	00900793          	li	a5,9
   193a4:	00868693          	addi	a3,a3,8
   193a8:	00112e23          	sw	ra,28(sp)
   193ac:	01512223          	sw	s5,4(sp)
   193b0:	00050993          	mv	s3,a0
   193b4:	00058413          	mv	s0,a1
   193b8:	00060a13          	mv	s4,a2
   193bc:	00070493          	mv	s1,a4
   193c0:	02f6c6b3          	div	a3,a3,a5
   193c4:	0d27d263          	bge	a5,s2,19488 <__s2b+0x104>
   193c8:	00100793          	li	a5,1
   193cc:	00000593          	li	a1,0
   193d0:	00179793          	slli	a5,a5,0x1
   193d4:	00158593          	addi	a1,a1,1
   193d8:	fed7cce3          	blt	a5,a3,193d0 <__s2b+0x4c>
   193dc:	00098513          	mv	a0,s3
   193e0:	db1ff0ef          	jal	ra,19190 <_Balloc>
   193e4:	00100793          	li	a5,1
   193e8:	00f52823          	sw	a5,16(a0)
   193ec:	00952a23          	sw	s1,20(a0)
   193f0:	00900793          	li	a5,9
   193f4:	0947d463          	bge	a5,s4,1947c <__s2b+0xf8>
   193f8:	00940a93          	addi	s5,s0,9
   193fc:	000a8493          	mv	s1,s5
   19400:	01440433          	add	s0,s0,s4
   19404:	00148493          	addi	s1,s1,1
   19408:	fff4c683          	lbu	a3,-1(s1)
   1940c:	00050593          	mv	a1,a0
   19410:	00a00613          	li	a2,10
   19414:	fd068693          	addi	a3,a3,-48
   19418:	00098513          	mv	a0,s3
   1941c:	e41ff0ef          	jal	ra,1925c <__multadd>
   19420:	fe9412e3          	bne	s0,s1,19404 <__s2b+0x80>
   19424:	ff8a0413          	addi	s0,s4,-8
   19428:	008a8433          	add	s0,s5,s0
   1942c:	032a5663          	bge	s4,s2,19458 <__s2b+0xd4>
   19430:	414904b3          	sub	s1,s2,s4
   19434:	009404b3          	add	s1,s0,s1
   19438:	00140413          	addi	s0,s0,1
   1943c:	fff44683          	lbu	a3,-1(s0)
   19440:	00050593          	mv	a1,a0
   19444:	00a00613          	li	a2,10
   19448:	fd068693          	addi	a3,a3,-48
   1944c:	00098513          	mv	a0,s3
   19450:	e0dff0ef          	jal	ra,1925c <__multadd>
   19454:	fe8492e3          	bne	s1,s0,19438 <__s2b+0xb4>
   19458:	01c12083          	lw	ra,28(sp)
   1945c:	01812403          	lw	s0,24(sp)
   19460:	01412483          	lw	s1,20(sp)
   19464:	01012903          	lw	s2,16(sp)
   19468:	00c12983          	lw	s3,12(sp)
   1946c:	00812a03          	lw	s4,8(sp)
   19470:	00412a83          	lw	s5,4(sp)
   19474:	02010113          	addi	sp,sp,32
   19478:	00008067          	ret
   1947c:	00a40413          	addi	s0,s0,10
   19480:	00900a13          	li	s4,9
   19484:	fa9ff06f          	j	1942c <__s2b+0xa8>
   19488:	00000593          	li	a1,0
   1948c:	f51ff06f          	j	193dc <__s2b+0x58>

00019490 <__hi0bits>:
   19490:	ffff0737          	lui	a4,0xffff0
   19494:	00e57733          	and	a4,a0,a4
   19498:	00050793          	mv	a5,a0
   1949c:	00000513          	li	a0,0
   194a0:	00071663          	bnez	a4,194ac <__hi0bits+0x1c>
   194a4:	01079793          	slli	a5,a5,0x10
   194a8:	01000513          	li	a0,16
   194ac:	ff000737          	lui	a4,0xff000
   194b0:	00e7f733          	and	a4,a5,a4
   194b4:	00071663          	bnez	a4,194c0 <__hi0bits+0x30>
   194b8:	00850513          	addi	a0,a0,8
   194bc:	00879793          	slli	a5,a5,0x8
   194c0:	f0000737          	lui	a4,0xf0000
   194c4:	00e7f733          	and	a4,a5,a4
   194c8:	00071663          	bnez	a4,194d4 <__hi0bits+0x44>
   194cc:	00450513          	addi	a0,a0,4
   194d0:	00479793          	slli	a5,a5,0x4
   194d4:	c0000737          	lui	a4,0xc0000
   194d8:	00e7f733          	and	a4,a5,a4
   194dc:	00071663          	bnez	a4,194e8 <__hi0bits+0x58>
   194e0:	00250513          	addi	a0,a0,2
   194e4:	00279793          	slli	a5,a5,0x2
   194e8:	0007c863          	bltz	a5,194f8 <__hi0bits+0x68>
   194ec:	00179713          	slli	a4,a5,0x1
   194f0:	00150513          	addi	a0,a0,1
   194f4:	00075463          	bgez	a4,194fc <__hi0bits+0x6c>
   194f8:	00008067          	ret
   194fc:	02000513          	li	a0,32
   19500:	00008067          	ret

00019504 <__lo0bits>:
   19504:	00052783          	lw	a5,0(a0)
   19508:	0077f713          	andi	a4,a5,7
   1950c:	02070663          	beqz	a4,19538 <__lo0bits+0x34>
   19510:	0017f693          	andi	a3,a5,1
   19514:	00000713          	li	a4,0
   19518:	00069c63          	bnez	a3,19530 <__lo0bits+0x2c>
   1951c:	0027f713          	andi	a4,a5,2
   19520:	08070463          	beqz	a4,195a8 <__lo0bits+0xa4>
   19524:	0017d793          	srli	a5,a5,0x1
   19528:	00f52023          	sw	a5,0(a0)
   1952c:	00100713          	li	a4,1
   19530:	00070513          	mv	a0,a4
   19534:	00008067          	ret
   19538:	01079693          	slli	a3,a5,0x10
   1953c:	0106d693          	srli	a3,a3,0x10
   19540:	00000713          	li	a4,0
   19544:	00069663          	bnez	a3,19550 <__lo0bits+0x4c>
   19548:	0107d793          	srli	a5,a5,0x10
   1954c:	01000713          	li	a4,16
   19550:	0ff7f693          	andi	a3,a5,255
   19554:	00069663          	bnez	a3,19560 <__lo0bits+0x5c>
   19558:	00870713          	addi	a4,a4,8 # c0000008 <__global_pointer$+0xbffd7d38>
   1955c:	0087d793          	srli	a5,a5,0x8
   19560:	00f7f693          	andi	a3,a5,15
   19564:	00069663          	bnez	a3,19570 <__lo0bits+0x6c>
   19568:	00470713          	addi	a4,a4,4
   1956c:	0047d793          	srli	a5,a5,0x4
   19570:	0037f693          	andi	a3,a5,3
   19574:	00069663          	bnez	a3,19580 <__lo0bits+0x7c>
   19578:	00270713          	addi	a4,a4,2
   1957c:	0027d793          	srli	a5,a5,0x2
   19580:	0017f693          	andi	a3,a5,1
   19584:	00069863          	bnez	a3,19594 <__lo0bits+0x90>
   19588:	0017d793          	srli	a5,a5,0x1
   1958c:	00170713          	addi	a4,a4,1
   19590:	00078863          	beqz	a5,195a0 <__lo0bits+0x9c>
   19594:	00f52023          	sw	a5,0(a0)
   19598:	00070513          	mv	a0,a4
   1959c:	00008067          	ret
   195a0:	02000713          	li	a4,32
   195a4:	f8dff06f          	j	19530 <__lo0bits+0x2c>
   195a8:	0027d793          	srli	a5,a5,0x2
   195ac:	00200713          	li	a4,2
   195b0:	00f52023          	sw	a5,0(a0)
   195b4:	00070513          	mv	a0,a4
   195b8:	00008067          	ret

000195bc <__i2b>:
   195bc:	ff010113          	addi	sp,sp,-16
   195c0:	00812423          	sw	s0,8(sp)
   195c4:	00058413          	mv	s0,a1
   195c8:	00100593          	li	a1,1
   195cc:	00112623          	sw	ra,12(sp)
   195d0:	bc1ff0ef          	jal	ra,19190 <_Balloc>
   195d4:	00852a23          	sw	s0,20(a0)
   195d8:	00c12083          	lw	ra,12(sp)
   195dc:	00812403          	lw	s0,8(sp)
   195e0:	00100713          	li	a4,1
   195e4:	00e52823          	sw	a4,16(a0)
   195e8:	01010113          	addi	sp,sp,16
   195ec:	00008067          	ret

000195f0 <__multiply>:
   195f0:	fe010113          	addi	sp,sp,-32
   195f4:	01312623          	sw	s3,12(sp)
   195f8:	01412423          	sw	s4,8(sp)
   195fc:	0105a983          	lw	s3,16(a1)
   19600:	01062a03          	lw	s4,16(a2)
   19604:	00912a23          	sw	s1,20(sp)
   19608:	01212823          	sw	s2,16(sp)
   1960c:	00112e23          	sw	ra,28(sp)
   19610:	00812c23          	sw	s0,24(sp)
   19614:	00058493          	mv	s1,a1
   19618:	00060913          	mv	s2,a2
   1961c:	0149cc63          	blt	s3,s4,19634 <__multiply+0x44>
   19620:	000a0713          	mv	a4,s4
   19624:	00058913          	mv	s2,a1
   19628:	00098a13          	mv	s4,s3
   1962c:	00060493          	mv	s1,a2
   19630:	00070993          	mv	s3,a4
   19634:	00892783          	lw	a5,8(s2)
   19638:	00492583          	lw	a1,4(s2)
   1963c:	013a0433          	add	s0,s4,s3
   19640:	0087a7b3          	slt	a5,a5,s0
   19644:	00f585b3          	add	a1,a1,a5
   19648:	b49ff0ef          	jal	ra,19190 <_Balloc>
   1964c:	01450e13          	addi	t3,a0,20
   19650:	00241313          	slli	t1,s0,0x2
   19654:	006e0333          	add	t1,t3,t1
   19658:	000e0793          	mv	a5,t3
   1965c:	006e7863          	bgeu	t3,t1,1966c <__multiply+0x7c>
   19660:	0007a023          	sw	zero,0(a5)
   19664:	00478793          	addi	a5,a5,4
   19668:	fe67ece3          	bltu	a5,t1,19660 <__multiply+0x70>
   1966c:	01448593          	addi	a1,s1,20
   19670:	00299e93          	slli	t4,s3,0x2
   19674:	01490613          	addi	a2,s2,20
   19678:	002a1893          	slli	a7,s4,0x2
   1967c:	00010837          	lui	a6,0x10
   19680:	01d58eb3          	add	t4,a1,t4
   19684:	011608b3          	add	a7,a2,a7
   19688:	fff80813          	addi	a6,a6,-1 # ffff <threadsense.2617+0xffff>
   1968c:	01d5ee63          	bltu	a1,t4,196a8 <__multiply+0xb8>
   19690:	10c0006f          	j	1979c <__multiply+0x1ac>
   19694:	010fdf93          	srli	t6,t6,0x10
   19698:	080f9663          	bnez	t6,19724 <__multiply+0x134>
   1969c:	00458593          	addi	a1,a1,4
   196a0:	004e0e13          	addi	t3,t3,4
   196a4:	0fd5fc63          	bgeu	a1,t4,1979c <__multiply+0x1ac>
   196a8:	0005af83          	lw	t6,0(a1)
   196ac:	010ff3b3          	and	t2,t6,a6
   196b0:	fe0382e3          	beqz	t2,19694 <__multiply+0xa4>
   196b4:	000e0f93          	mv	t6,t3
   196b8:	00060293          	mv	t0,a2
   196bc:	00000493          	li	s1,0
   196c0:	0002a703          	lw	a4,0(t0) # 11624 <memset+0xb4>
   196c4:	000faf03          	lw	t5,0(t6)
   196c8:	004f8f93          	addi	t6,t6,4
   196cc:	010776b3          	and	a3,a4,a6
   196d0:	027686b3          	mul	a3,a3,t2
   196d4:	01075793          	srli	a5,a4,0x10
   196d8:	010f7733          	and	a4,t5,a6
   196dc:	010f5f13          	srli	t5,t5,0x10
   196e0:	00428293          	addi	t0,t0,4
   196e4:	027787b3          	mul	a5,a5,t2
   196e8:	00e686b3          	add	a3,a3,a4
   196ec:	009686b3          	add	a3,a3,s1
   196f0:	0106d713          	srli	a4,a3,0x10
   196f4:	0106f6b3          	and	a3,a3,a6
   196f8:	01e787b3          	add	a5,a5,t5
   196fc:	00e787b3          	add	a5,a5,a4
   19700:	01079713          	slli	a4,a5,0x10
   19704:	00d766b3          	or	a3,a4,a3
   19708:	fedfae23          	sw	a3,-4(t6)
   1970c:	0107d493          	srli	s1,a5,0x10
   19710:	fb12e8e3          	bltu	t0,a7,196c0 <__multiply+0xd0>
   19714:	009fa023          	sw	s1,0(t6)
   19718:	0005af83          	lw	t6,0(a1)
   1971c:	010fdf93          	srli	t6,t6,0x10
   19720:	f60f8ee3          	beqz	t6,1969c <__multiply+0xac>
   19724:	000e2703          	lw	a4,0(t3)
   19728:	000e0f13          	mv	t5,t3
   1972c:	00060693          	mv	a3,a2
   19730:	00070393          	mv	t2,a4
   19734:	00000293          	li	t0,0
   19738:	0006a783          	lw	a5,0(a3)
   1973c:	0103d913          	srli	s2,t2,0x10
   19740:	01077733          	and	a4,a4,a6
   19744:	0107f7b3          	and	a5,a5,a6
   19748:	03f787b3          	mul	a5,a5,t6
   1974c:	004f0f13          	addi	t5,t5,4
   19750:	00468693          	addi	a3,a3,4
   19754:	000f2383          	lw	t2,0(t5)
   19758:	0103f4b3          	and	s1,t2,a6
   1975c:	012787b3          	add	a5,a5,s2
   19760:	005787b3          	add	a5,a5,t0
   19764:	01079293          	slli	t0,a5,0x10
   19768:	00e2e733          	or	a4,t0,a4
   1976c:	feef2e23          	sw	a4,-4(t5)
   19770:	ffe6d703          	lhu	a4,-2(a3)
   19774:	0107d793          	srli	a5,a5,0x10
   19778:	03f70733          	mul	a4,a4,t6
   1977c:	00970733          	add	a4,a4,s1
   19780:	00f70733          	add	a4,a4,a5
   19784:	01075293          	srli	t0,a4,0x10
   19788:	fb16e8e3          	bltu	a3,a7,19738 <__multiply+0x148>
   1978c:	00ef2023          	sw	a4,0(t5)
   19790:	00458593          	addi	a1,a1,4
   19794:	004e0e13          	addi	t3,t3,4
   19798:	f1d5e8e3          	bltu	a1,t4,196a8 <__multiply+0xb8>
   1979c:	02805463          	blez	s0,197c4 <__multiply+0x1d4>
   197a0:	ffc32783          	lw	a5,-4(t1)
   197a4:	ffc30313          	addi	t1,t1,-4
   197a8:	00078863          	beqz	a5,197b8 <__multiply+0x1c8>
   197ac:	0180006f          	j	197c4 <__multiply+0x1d4>
   197b0:	00032783          	lw	a5,0(t1)
   197b4:	00079863          	bnez	a5,197c4 <__multiply+0x1d4>
   197b8:	fff40413          	addi	s0,s0,-1
   197bc:	ffc30313          	addi	t1,t1,-4
   197c0:	fe0418e3          	bnez	s0,197b0 <__multiply+0x1c0>
   197c4:	00852823          	sw	s0,16(a0)
   197c8:	01c12083          	lw	ra,28(sp)
   197cc:	01812403          	lw	s0,24(sp)
   197d0:	01412483          	lw	s1,20(sp)
   197d4:	01012903          	lw	s2,16(sp)
   197d8:	00c12983          	lw	s3,12(sp)
   197dc:	00812a03          	lw	s4,8(sp)
   197e0:	02010113          	addi	sp,sp,32
   197e4:	00008067          	ret

000197e8 <__pow5mult>:
   197e8:	fe010113          	addi	sp,sp,-32
   197ec:	00812c23          	sw	s0,24(sp)
   197f0:	01312623          	sw	s3,12(sp)
   197f4:	01412423          	sw	s4,8(sp)
   197f8:	00112e23          	sw	ra,28(sp)
   197fc:	00912a23          	sw	s1,20(sp)
   19800:	01212823          	sw	s2,16(sp)
   19804:	00367793          	andi	a5,a2,3
   19808:	00060413          	mv	s0,a2
   1980c:	00050993          	mv	s3,a0
   19810:	00058a13          	mv	s4,a1
   19814:	0c079463          	bnez	a5,198dc <__pow5mult+0xf4>
   19818:	40245413          	srai	s0,s0,0x2
   1981c:	000a0913          	mv	s2,s4
   19820:	06040863          	beqz	s0,19890 <__pow5mult+0xa8>
   19824:	0489a483          	lw	s1,72(s3)
   19828:	0c048e63          	beqz	s1,19904 <__pow5mult+0x11c>
   1982c:	00147793          	andi	a5,s0,1
   19830:	000a0913          	mv	s2,s4
   19834:	02079063          	bnez	a5,19854 <__pow5mult+0x6c>
   19838:	40145413          	srai	s0,s0,0x1
   1983c:	04040a63          	beqz	s0,19890 <__pow5mult+0xa8>
   19840:	0004a503          	lw	a0,0(s1)
   19844:	06050863          	beqz	a0,198b4 <__pow5mult+0xcc>
   19848:	00050493          	mv	s1,a0
   1984c:	00147793          	andi	a5,s0,1
   19850:	fe0784e3          	beqz	a5,19838 <__pow5mult+0x50>
   19854:	00048613          	mv	a2,s1
   19858:	00090593          	mv	a1,s2
   1985c:	00098513          	mv	a0,s3
   19860:	d91ff0ef          	jal	ra,195f0 <__multiply>
   19864:	06090863          	beqz	s2,198d4 <__pow5mult+0xec>
   19868:	00492703          	lw	a4,4(s2)
   1986c:	04c9a783          	lw	a5,76(s3)
   19870:	40145413          	srai	s0,s0,0x1
   19874:	00271713          	slli	a4,a4,0x2
   19878:	00e787b3          	add	a5,a5,a4
   1987c:	0007a703          	lw	a4,0(a5)
   19880:	00e92023          	sw	a4,0(s2)
   19884:	0127a023          	sw	s2,0(a5)
   19888:	00050913          	mv	s2,a0
   1988c:	fa041ae3          	bnez	s0,19840 <__pow5mult+0x58>
   19890:	01c12083          	lw	ra,28(sp)
   19894:	01812403          	lw	s0,24(sp)
   19898:	00090513          	mv	a0,s2
   1989c:	01412483          	lw	s1,20(sp)
   198a0:	01012903          	lw	s2,16(sp)
   198a4:	00c12983          	lw	s3,12(sp)
   198a8:	00812a03          	lw	s4,8(sp)
   198ac:	02010113          	addi	sp,sp,32
   198b0:	00008067          	ret
   198b4:	00048613          	mv	a2,s1
   198b8:	00048593          	mv	a1,s1
   198bc:	00098513          	mv	a0,s3
   198c0:	d31ff0ef          	jal	ra,195f0 <__multiply>
   198c4:	00a4a023          	sw	a0,0(s1)
   198c8:	00052023          	sw	zero,0(a0)
   198cc:	00050493          	mv	s1,a0
   198d0:	f7dff06f          	j	1984c <__pow5mult+0x64>
   198d4:	00050913          	mv	s2,a0
   198d8:	f61ff06f          	j	19838 <__pow5mult+0x50>
   198dc:	fff78793          	addi	a5,a5,-1
   198e0:	0000b717          	auipc	a4,0xb
   198e4:	4b870713          	addi	a4,a4,1208 # 24d98 <p05.3298>
   198e8:	00279793          	slli	a5,a5,0x2
   198ec:	00f707b3          	add	a5,a4,a5
   198f0:	0007a603          	lw	a2,0(a5)
   198f4:	00000693          	li	a3,0
   198f8:	965ff0ef          	jal	ra,1925c <__multadd>
   198fc:	00050a13          	mv	s4,a0
   19900:	f19ff06f          	j	19818 <__pow5mult+0x30>
   19904:	00100593          	li	a1,1
   19908:	00098513          	mv	a0,s3
   1990c:	885ff0ef          	jal	ra,19190 <_Balloc>
   19910:	27100793          	li	a5,625
   19914:	00f52a23          	sw	a5,20(a0)
   19918:	00100793          	li	a5,1
   1991c:	00f52823          	sw	a5,16(a0)
   19920:	04a9a423          	sw	a0,72(s3)
   19924:	00050493          	mv	s1,a0
   19928:	00052023          	sw	zero,0(a0)
   1992c:	f01ff06f          	j	1982c <__pow5mult+0x44>

00019930 <__lshift>:
   19930:	fe010113          	addi	sp,sp,-32
   19934:	01412423          	sw	s4,8(sp)
   19938:	0105aa03          	lw	s4,16(a1)
   1993c:	00912a23          	sw	s1,20(sp)
   19940:	0085a783          	lw	a5,8(a1)
   19944:	40565493          	srai	s1,a2,0x5
   19948:	01448a33          	add	s4,s1,s4
   1994c:	00812c23          	sw	s0,24(sp)
   19950:	01212823          	sw	s2,16(sp)
   19954:	01312623          	sw	s3,12(sp)
   19958:	01512223          	sw	s5,4(sp)
   1995c:	00112e23          	sw	ra,28(sp)
   19960:	001a0413          	addi	s0,s4,1
   19964:	00058993          	mv	s3,a1
   19968:	00060913          	mv	s2,a2
   1996c:	00050a93          	mv	s5,a0
   19970:	0045a583          	lw	a1,4(a1)
   19974:	0087d863          	bge	a5,s0,19984 <__lshift+0x54>
   19978:	00179793          	slli	a5,a5,0x1
   1997c:	00158593          	addi	a1,a1,1
   19980:	fe87cce3          	blt	a5,s0,19978 <__lshift+0x48>
   19984:	000a8513          	mv	a0,s5
   19988:	809ff0ef          	jal	ra,19190 <_Balloc>
   1998c:	01450713          	addi	a4,a0,20
   19990:	02905463          	blez	s1,199b8 <__lshift+0x88>
   19994:	00548493          	addi	s1,s1,5
   19998:	00249493          	slli	s1,s1,0x2
   1999c:	009506b3          	add	a3,a0,s1
   199a0:	00070793          	mv	a5,a4
   199a4:	00478793          	addi	a5,a5,4
   199a8:	fe07ae23          	sw	zero,-4(a5)
   199ac:	fef69ce3          	bne	a3,a5,199a4 <__lshift+0x74>
   199b0:	fec48493          	addi	s1,s1,-20
   199b4:	00970733          	add	a4,a4,s1
   199b8:	0109a803          	lw	a6,16(s3)
   199bc:	01498793          	addi	a5,s3,20
   199c0:	01f97613          	andi	a2,s2,31
   199c4:	00281813          	slli	a6,a6,0x2
   199c8:	01078833          	add	a6,a5,a6
   199cc:	08060263          	beqz	a2,19a50 <__lshift+0x120>
   199d0:	02000893          	li	a7,32
   199d4:	40c888b3          	sub	a7,a7,a2
   199d8:	00000593          	li	a1,0
   199dc:	0007a683          	lw	a3,0(a5)
   199e0:	00470713          	addi	a4,a4,4
   199e4:	00478793          	addi	a5,a5,4
   199e8:	00c696b3          	sll	a3,a3,a2
   199ec:	00b6e6b3          	or	a3,a3,a1
   199f0:	fed72e23          	sw	a3,-4(a4)
   199f4:	ffc7a683          	lw	a3,-4(a5)
   199f8:	0116d5b3          	srl	a1,a3,a7
   199fc:	ff07e0e3          	bltu	a5,a6,199dc <__lshift+0xac>
   19a00:	00b72023          	sw	a1,0(a4)
   19a04:	00058463          	beqz	a1,19a0c <__lshift+0xdc>
   19a08:	00040a13          	mv	s4,s0
   19a0c:	0049a703          	lw	a4,4(s3)
   19a10:	04caa783          	lw	a5,76(s5)
   19a14:	01c12083          	lw	ra,28(sp)
   19a18:	00271713          	slli	a4,a4,0x2
   19a1c:	00e787b3          	add	a5,a5,a4
   19a20:	0007a703          	lw	a4,0(a5)
   19a24:	01452823          	sw	s4,16(a0)
   19a28:	01812403          	lw	s0,24(sp)
   19a2c:	00e9a023          	sw	a4,0(s3)
   19a30:	0137a023          	sw	s3,0(a5)
   19a34:	01412483          	lw	s1,20(sp)
   19a38:	01012903          	lw	s2,16(sp)
   19a3c:	00c12983          	lw	s3,12(sp)
   19a40:	00812a03          	lw	s4,8(sp)
   19a44:	00412a83          	lw	s5,4(sp)
   19a48:	02010113          	addi	sp,sp,32
   19a4c:	00008067          	ret
   19a50:	00478793          	addi	a5,a5,4
   19a54:	ffc7a683          	lw	a3,-4(a5)
   19a58:	00470713          	addi	a4,a4,4
   19a5c:	fed72e23          	sw	a3,-4(a4)
   19a60:	fb07f6e3          	bgeu	a5,a6,19a0c <__lshift+0xdc>
   19a64:	00478793          	addi	a5,a5,4
   19a68:	ffc7a683          	lw	a3,-4(a5)
   19a6c:	00470713          	addi	a4,a4,4
   19a70:	fed72e23          	sw	a3,-4(a4)
   19a74:	fd07eee3          	bltu	a5,a6,19a50 <__lshift+0x120>
   19a78:	f95ff06f          	j	19a0c <__lshift+0xdc>

00019a7c <__mcmp>:
   19a7c:	00050613          	mv	a2,a0
   19a80:	0105a783          	lw	a5,16(a1)
   19a84:	01052503          	lw	a0,16(a0)
   19a88:	40f50533          	sub	a0,a0,a5
   19a8c:	04051463          	bnez	a0,19ad4 <__mcmp+0x58>
   19a90:	00279713          	slli	a4,a5,0x2
   19a94:	01460613          	addi	a2,a2,20
   19a98:	01458593          	addi	a1,a1,20
   19a9c:	00e607b3          	add	a5,a2,a4
   19aa0:	00e585b3          	add	a1,a1,a4
   19aa4:	0080006f          	j	19aac <__mcmp+0x30>
   19aa8:	02f67663          	bgeu	a2,a5,19ad4 <__mcmp+0x58>
   19aac:	ffc78793          	addi	a5,a5,-4
   19ab0:	ffc58593          	addi	a1,a1,-4
   19ab4:	0007a703          	lw	a4,0(a5)
   19ab8:	0005a683          	lw	a3,0(a1)
   19abc:	fed706e3          	beq	a4,a3,19aa8 <__mcmp+0x2c>
   19ac0:	00d73733          	sltu	a4,a4,a3
   19ac4:	40e00533          	neg	a0,a4
   19ac8:	ffe57513          	andi	a0,a0,-2
   19acc:	00150513          	addi	a0,a0,1
   19ad0:	00008067          	ret
   19ad4:	00008067          	ret

00019ad8 <__mdiff>:
   19ad8:	fe010113          	addi	sp,sp,-32
   19adc:	01212823          	sw	s2,16(sp)
   19ae0:	01062703          	lw	a4,16(a2)
   19ae4:	0105a903          	lw	s2,16(a1)
   19ae8:	00812c23          	sw	s0,24(sp)
   19aec:	00912a23          	sw	s1,20(sp)
   19af0:	01312623          	sw	s3,12(sp)
   19af4:	01412423          	sw	s4,8(sp)
   19af8:	00112e23          	sw	ra,28(sp)
   19afc:	40e90933          	sub	s2,s2,a4
   19b00:	00058993          	mv	s3,a1
   19b04:	00060a13          	mv	s4,a2
   19b08:	01458413          	addi	s0,a1,20
   19b0c:	01460493          	addi	s1,a2,20
   19b10:	04091863          	bnez	s2,19b60 <__mdiff+0x88>
   19b14:	00271713          	slli	a4,a4,0x2
   19b18:	00e407b3          	add	a5,s0,a4
   19b1c:	00e48733          	add	a4,s1,a4
   19b20:	0080006f          	j	19b28 <__mdiff+0x50>
   19b24:	16f47263          	bgeu	s0,a5,19c88 <__mdiff+0x1b0>
   19b28:	ffc78793          	addi	a5,a5,-4
   19b2c:	ffc70713          	addi	a4,a4,-4
   19b30:	0007a583          	lw	a1,0(a5)
   19b34:	00072683          	lw	a3,0(a4)
   19b38:	fed586e3          	beq	a1,a3,19b24 <__mdiff+0x4c>
   19b3c:	02d5f663          	bgeu	a1,a3,19b68 <__mdiff+0x90>
   19b40:	00040713          	mv	a4,s0
   19b44:	00098793          	mv	a5,s3
   19b48:	00048413          	mv	s0,s1
   19b4c:	000a0993          	mv	s3,s4
   19b50:	00070493          	mv	s1,a4
   19b54:	00078a13          	mv	s4,a5
   19b58:	00100913          	li	s2,1
   19b5c:	00c0006f          	j	19b68 <__mdiff+0x90>
   19b60:	fe0940e3          	bltz	s2,19b40 <__mdiff+0x68>
   19b64:	00000913          	li	s2,0
   19b68:	0049a583          	lw	a1,4(s3)
   19b6c:	e24ff0ef          	jal	ra,19190 <_Balloc>
   19b70:	0109a303          	lw	t1,16(s3)
   19b74:	010a2e83          	lw	t4,16(s4)
   19b78:	00010637          	lui	a2,0x10
   19b7c:	00231e13          	slli	t3,t1,0x2
   19b80:	002e9e93          	slli	t4,t4,0x2
   19b84:	01252623          	sw	s2,12(a0)
   19b88:	01c40e33          	add	t3,s0,t3
   19b8c:	01d48eb3          	add	t4,s1,t4
   19b90:	01450813          	addi	a6,a0,20
   19b94:	00000793          	li	a5,0
   19b98:	fff60613          	addi	a2,a2,-1 # ffff <threadsense.2617+0xffff>
   19b9c:	0080006f          	j	19ba4 <__mdiff+0xcc>
   19ba0:	00088813          	mv	a6,a7
   19ba4:	00042703          	lw	a4,0(s0)
   19ba8:	0004a583          	lw	a1,0(s1)
   19bac:	00480893          	addi	a7,a6,4
   19bb0:	00c776b3          	and	a3,a4,a2
   19bb4:	00f686b3          	add	a3,a3,a5
   19bb8:	00c5f7b3          	and	a5,a1,a2
   19bbc:	40f686b3          	sub	a3,a3,a5
   19bc0:	0105d593          	srli	a1,a1,0x10
   19bc4:	01075793          	srli	a5,a4,0x10
   19bc8:	40b787b3          	sub	a5,a5,a1
   19bcc:	4106d713          	srai	a4,a3,0x10
   19bd0:	00e787b3          	add	a5,a5,a4
   19bd4:	01079713          	slli	a4,a5,0x10
   19bd8:	00c6f6b3          	and	a3,a3,a2
   19bdc:	00d766b3          	or	a3,a4,a3
   19be0:	00448493          	addi	s1,s1,4
   19be4:	fed8ae23          	sw	a3,-4(a7)
   19be8:	00440413          	addi	s0,s0,4
   19bec:	4107d793          	srai	a5,a5,0x10
   19bf0:	fbd4e8e3          	bltu	s1,t4,19ba0 <__mdiff+0xc8>
   19bf4:	05c47e63          	bgeu	s0,t3,19c50 <__mdiff+0x178>
   19bf8:	00010eb7          	lui	t4,0x10
   19bfc:	00088813          	mv	a6,a7
   19c00:	00040593          	mv	a1,s0
   19c04:	fffe8e93          	addi	t4,t4,-1 # ffff <threadsense.2617+0xffff>
   19c08:	0005a703          	lw	a4,0(a1)
   19c0c:	00480813          	addi	a6,a6,4
   19c10:	00458593          	addi	a1,a1,4
   19c14:	01d77633          	and	a2,a4,t4
   19c18:	00f60633          	add	a2,a2,a5
   19c1c:	41065693          	srai	a3,a2,0x10
   19c20:	01075793          	srli	a5,a4,0x10
   19c24:	00d787b3          	add	a5,a5,a3
   19c28:	01079693          	slli	a3,a5,0x10
   19c2c:	01d67633          	and	a2,a2,t4
   19c30:	00c6e6b3          	or	a3,a3,a2
   19c34:	fed82e23          	sw	a3,-4(a6)
   19c38:	4107d793          	srai	a5,a5,0x10
   19c3c:	fdc5e6e3          	bltu	a1,t3,19c08 <__mdiff+0x130>
   19c40:	fffe0813          	addi	a6,t3,-1
   19c44:	40880833          	sub	a6,a6,s0
   19c48:	ffc87813          	andi	a6,a6,-4
   19c4c:	01088833          	add	a6,a7,a6
   19c50:	00069a63          	bnez	a3,19c64 <__mdiff+0x18c>
   19c54:	ffc80813          	addi	a6,a6,-4
   19c58:	00082783          	lw	a5,0(a6)
   19c5c:	fff30313          	addi	t1,t1,-1
   19c60:	fe078ae3          	beqz	a5,19c54 <__mdiff+0x17c>
   19c64:	01c12083          	lw	ra,28(sp)
   19c68:	01812403          	lw	s0,24(sp)
   19c6c:	00652823          	sw	t1,16(a0)
   19c70:	01412483          	lw	s1,20(sp)
   19c74:	01012903          	lw	s2,16(sp)
   19c78:	00c12983          	lw	s3,12(sp)
   19c7c:	00812a03          	lw	s4,8(sp)
   19c80:	02010113          	addi	sp,sp,32
   19c84:	00008067          	ret
   19c88:	00000593          	li	a1,0
   19c8c:	d04ff0ef          	jal	ra,19190 <_Balloc>
   19c90:	01c12083          	lw	ra,28(sp)
   19c94:	01812403          	lw	s0,24(sp)
   19c98:	00100793          	li	a5,1
   19c9c:	00f52823          	sw	a5,16(a0)
   19ca0:	00052a23          	sw	zero,20(a0)
   19ca4:	01412483          	lw	s1,20(sp)
   19ca8:	01012903          	lw	s2,16(sp)
   19cac:	00c12983          	lw	s3,12(sp)
   19cb0:	00812a03          	lw	s4,8(sp)
   19cb4:	02010113          	addi	sp,sp,32
   19cb8:	00008067          	ret

00019cbc <__ulp>:
   19cbc:	7ff007b7          	lui	a5,0x7ff00
   19cc0:	00b7f5b3          	and	a1,a5,a1
   19cc4:	fcc007b7          	lui	a5,0xfcc00
   19cc8:	00f585b3          	add	a1,a1,a5
   19ccc:	00b05863          	blez	a1,19cdc <__ulp+0x20>
   19cd0:	00000793          	li	a5,0
   19cd4:	00078513          	mv	a0,a5
   19cd8:	00008067          	ret
   19cdc:	40b005b3          	neg	a1,a1
   19ce0:	4145d593          	srai	a1,a1,0x14
   19ce4:	01300793          	li	a5,19
   19ce8:	00b7c863          	blt	a5,a1,19cf8 <__ulp+0x3c>
   19cec:	000807b7          	lui	a5,0x80
   19cf0:	40b7d5b3          	sra	a1,a5,a1
   19cf4:	fddff06f          	j	19cd0 <__ulp+0x14>
   19cf8:	fec58713          	addi	a4,a1,-20
   19cfc:	01e00693          	li	a3,30
   19d00:	00000593          	li	a1,0
   19d04:	00100793          	li	a5,1
   19d08:	fce6c6e3          	blt	a3,a4,19cd4 <__ulp+0x18>
   19d0c:	800007b7          	lui	a5,0x80000
   19d10:	00e7d7b3          	srl	a5,a5,a4
   19d14:	00078513          	mv	a0,a5
   19d18:	00008067          	ret

00019d1c <__b2d>:
   19d1c:	fe010113          	addi	sp,sp,-32
   19d20:	00812c23          	sw	s0,24(sp)
   19d24:	01052403          	lw	s0,16(a0)
   19d28:	00912a23          	sw	s1,20(sp)
   19d2c:	01450493          	addi	s1,a0,20
   19d30:	00241413          	slli	s0,s0,0x2
   19d34:	00848433          	add	s0,s1,s0
   19d38:	01212823          	sw	s2,16(sp)
   19d3c:	ffc42903          	lw	s2,-4(s0)
   19d40:	01312623          	sw	s3,12(sp)
   19d44:	01412423          	sw	s4,8(sp)
   19d48:	00090513          	mv	a0,s2
   19d4c:	00058a13          	mv	s4,a1
   19d50:	00112e23          	sw	ra,28(sp)
   19d54:	f3cff0ef          	jal	ra,19490 <__hi0bits>
   19d58:	02000713          	li	a4,32
   19d5c:	40a707b3          	sub	a5,a4,a0
   19d60:	00fa2023          	sw	a5,0(s4)
   19d64:	00a00793          	li	a5,10
   19d68:	ffc40993          	addi	s3,s0,-4
   19d6c:	08a7d063          	bge	a5,a0,19dec <__b2d+0xd0>
   19d70:	ff550513          	addi	a0,a0,-11
   19d74:	0534f063          	bgeu	s1,s3,19db4 <__b2d+0x98>
   19d78:	ff842783          	lw	a5,-8(s0)
   19d7c:	04050063          	beqz	a0,19dbc <__b2d+0xa0>
   19d80:	40a70633          	sub	a2,a4,a0
   19d84:	00c7d733          	srl	a4,a5,a2
   19d88:	00a916b3          	sll	a3,s2,a0
   19d8c:	00e6e6b3          	or	a3,a3,a4
   19d90:	ff840593          	addi	a1,s0,-8
   19d94:	3ff00737          	lui	a4,0x3ff00
   19d98:	00e6e6b3          	or	a3,a3,a4
   19d9c:	00a797b3          	sll	a5,a5,a0
   19da0:	02b4f263          	bgeu	s1,a1,19dc4 <__b2d+0xa8>
   19da4:	ff442703          	lw	a4,-12(s0)
   19da8:	00c75733          	srl	a4,a4,a2
   19dac:	00e7e7b3          	or	a5,a5,a4
   19db0:	0140006f          	j	19dc4 <__b2d+0xa8>
   19db4:	00000793          	li	a5,0
   19db8:	06051463          	bnez	a0,19e20 <__b2d+0x104>
   19dbc:	3ff00737          	lui	a4,0x3ff00
   19dc0:	00e966b3          	or	a3,s2,a4
   19dc4:	01c12083          	lw	ra,28(sp)
   19dc8:	01812403          	lw	s0,24(sp)
   19dcc:	01412483          	lw	s1,20(sp)
   19dd0:	01012903          	lw	s2,16(sp)
   19dd4:	00c12983          	lw	s3,12(sp)
   19dd8:	00812a03          	lw	s4,8(sp)
   19ddc:	00078513          	mv	a0,a5
   19de0:	00068593          	mv	a1,a3
   19de4:	02010113          	addi	sp,sp,32
   19de8:	00008067          	ret
   19dec:	00b00613          	li	a2,11
   19df0:	40a60633          	sub	a2,a2,a0
   19df4:	00c95733          	srl	a4,s2,a2
   19df8:	3ff006b7          	lui	a3,0x3ff00
   19dfc:	00d766b3          	or	a3,a4,a3
   19e00:	00000713          	li	a4,0
   19e04:	0134f663          	bgeu	s1,s3,19e10 <__b2d+0xf4>
   19e08:	ff842703          	lw	a4,-8(s0)
   19e0c:	00c75733          	srl	a4,a4,a2
   19e10:	01550513          	addi	a0,a0,21
   19e14:	00a91533          	sll	a0,s2,a0
   19e18:	00e567b3          	or	a5,a0,a4
   19e1c:	fa9ff06f          	j	19dc4 <__b2d+0xa8>
   19e20:	00a91533          	sll	a0,s2,a0
   19e24:	3ff00737          	lui	a4,0x3ff00
   19e28:	00e566b3          	or	a3,a0,a4
   19e2c:	00000793          	li	a5,0
   19e30:	f95ff06f          	j	19dc4 <__b2d+0xa8>

00019e34 <__d2b>:
   19e34:	fd010113          	addi	sp,sp,-48
   19e38:	01512a23          	sw	s5,20(sp)
   19e3c:	00058a93          	mv	s5,a1
   19e40:	00100593          	li	a1,1
   19e44:	02812423          	sw	s0,40(sp)
   19e48:	02912223          	sw	s1,36(sp)
   19e4c:	03212023          	sw	s2,32(sp)
   19e50:	00060493          	mv	s1,a2
   19e54:	01312e23          	sw	s3,28(sp)
   19e58:	01412c23          	sw	s4,24(sp)
   19e5c:	02112623          	sw	ra,44(sp)
   19e60:	00068a13          	mv	s4,a3
   19e64:	00070993          	mv	s3,a4
   19e68:	b28ff0ef          	jal	ra,19190 <_Balloc>
   19e6c:	00100637          	lui	a2,0x100
   19e70:	0144d413          	srli	s0,s1,0x14
   19e74:	fff60793          	addi	a5,a2,-1 # fffff <__global_pointer$+0xd7d2f>
   19e78:	7ff47413          	andi	s0,s0,2047
   19e7c:	00050913          	mv	s2,a0
   19e80:	0097f7b3          	and	a5,a5,s1
   19e84:	00040463          	beqz	s0,19e8c <__d2b+0x58>
   19e88:	00c7e7b3          	or	a5,a5,a2
   19e8c:	00f12623          	sw	a5,12(sp)
   19e90:	080a8e63          	beqz	s5,19f2c <__d2b+0xf8>
   19e94:	00810513          	addi	a0,sp,8
   19e98:	01512423          	sw	s5,8(sp)
   19e9c:	e68ff0ef          	jal	ra,19504 <__lo0bits>
   19ea0:	00050793          	mv	a5,a0
   19ea4:	00c12703          	lw	a4,12(sp)
   19ea8:	06051063          	bnez	a0,19f08 <__d2b+0xd4>
   19eac:	00812683          	lw	a3,8(sp)
   19eb0:	00d92a23          	sw	a3,20(s2)
   19eb4:	00e034b3          	snez	s1,a4
   19eb8:	00148493          	addi	s1,s1,1
   19ebc:	00e92c23          	sw	a4,24(s2)
   19ec0:	00992823          	sw	s1,16(s2)
   19ec4:	08040663          	beqz	s0,19f50 <__d2b+0x11c>
   19ec8:	bcd40413          	addi	s0,s0,-1075
   19ecc:	00f40433          	add	s0,s0,a5
   19ed0:	03500713          	li	a4,53
   19ed4:	008a2023          	sw	s0,0(s4)
   19ed8:	40f707b3          	sub	a5,a4,a5
   19edc:	00f9a023          	sw	a5,0(s3)
   19ee0:	02c12083          	lw	ra,44(sp)
   19ee4:	02812403          	lw	s0,40(sp)
   19ee8:	00090513          	mv	a0,s2
   19eec:	02412483          	lw	s1,36(sp)
   19ef0:	02012903          	lw	s2,32(sp)
   19ef4:	01c12983          	lw	s3,28(sp)
   19ef8:	01812a03          	lw	s4,24(sp)
   19efc:	01412a83          	lw	s5,20(sp)
   19f00:	03010113          	addi	sp,sp,48
   19f04:	00008067          	ret
   19f08:	02000693          	li	a3,32
   19f0c:	00812603          	lw	a2,8(sp)
   19f10:	40a686b3          	sub	a3,a3,a0
   19f14:	00d716b3          	sll	a3,a4,a3
   19f18:	00c6e6b3          	or	a3,a3,a2
   19f1c:	00a75733          	srl	a4,a4,a0
   19f20:	00d92a23          	sw	a3,20(s2)
   19f24:	00e12623          	sw	a4,12(sp)
   19f28:	f8dff06f          	j	19eb4 <__d2b+0x80>
   19f2c:	00c10513          	addi	a0,sp,12
   19f30:	dd4ff0ef          	jal	ra,19504 <__lo0bits>
   19f34:	00100793          	li	a5,1
   19f38:	00f92823          	sw	a5,16(s2)
   19f3c:	00c12783          	lw	a5,12(sp)
   19f40:	00100493          	li	s1,1
   19f44:	00f92a23          	sw	a5,20(s2)
   19f48:	02050793          	addi	a5,a0,32
   19f4c:	f6041ee3          	bnez	s0,19ec8 <__d2b+0x94>
   19f50:	00249713          	slli	a4,s1,0x2
   19f54:	00e90733          	add	a4,s2,a4
   19f58:	01072503          	lw	a0,16(a4) # 3ff00010 <__global_pointer$+0x3fed7d40>
   19f5c:	bce78793          	addi	a5,a5,-1074 # 7ffffbce <__global_pointer$+0x7ffd78fe>
   19f60:	00fa2023          	sw	a5,0(s4)
   19f64:	d2cff0ef          	jal	ra,19490 <__hi0bits>
   19f68:	00549493          	slli	s1,s1,0x5
   19f6c:	40a484b3          	sub	s1,s1,a0
   19f70:	0099a023          	sw	s1,0(s3)
   19f74:	f6dff06f          	j	19ee0 <__d2b+0xac>

00019f78 <__ratio>:
   19f78:	fd010113          	addi	sp,sp,-48
   19f7c:	03212023          	sw	s2,32(sp)
   19f80:	00058913          	mv	s2,a1
   19f84:	00810593          	addi	a1,sp,8
   19f88:	02112623          	sw	ra,44(sp)
   19f8c:	02812423          	sw	s0,40(sp)
   19f90:	02912223          	sw	s1,36(sp)
   19f94:	01312e23          	sw	s3,28(sp)
   19f98:	00050993          	mv	s3,a0
   19f9c:	d81ff0ef          	jal	ra,19d1c <__b2d>
   19fa0:	00050493          	mv	s1,a0
   19fa4:	00058413          	mv	s0,a1
   19fa8:	00090513          	mv	a0,s2
   19fac:	00c10593          	addi	a1,sp,12
   19fb0:	d6dff0ef          	jal	ra,19d1c <__b2d>
   19fb4:	01092783          	lw	a5,16(s2)
   19fb8:	0109a703          	lw	a4,16(s3)
   19fbc:	00812683          	lw	a3,8(sp)
   19fc0:	40f70733          	sub	a4,a4,a5
   19fc4:	00c12783          	lw	a5,12(sp)
   19fc8:	00571713          	slli	a4,a4,0x5
   19fcc:	40f686b3          	sub	a3,a3,a5
   19fd0:	00d707b3          	add	a5,a4,a3
   19fd4:	02f05e63          	blez	a5,1a010 <__ratio+0x98>
   19fd8:	01479793          	slli	a5,a5,0x14
   19fdc:	00878433          	add	s0,a5,s0
   19fe0:	00050613          	mv	a2,a0
   19fe4:	00058693          	mv	a3,a1
   19fe8:	00048513          	mv	a0,s1
   19fec:	00040593          	mv	a1,s0
   19ff0:	b25f60ef          	jal	ra,10b14 <__divdf3>
   19ff4:	02c12083          	lw	ra,44(sp)
   19ff8:	02812403          	lw	s0,40(sp)
   19ffc:	02412483          	lw	s1,36(sp)
   1a000:	02012903          	lw	s2,32(sp)
   1a004:	01c12983          	lw	s3,28(sp)
   1a008:	03010113          	addi	sp,sp,48
   1a00c:	00008067          	ret
   1a010:	01479713          	slli	a4,a5,0x14
   1a014:	40e585b3          	sub	a1,a1,a4
   1a018:	fc9ff06f          	j	19fe0 <__ratio+0x68>

0001a01c <_mprec_log10>:
   1a01c:	ff010113          	addi	sp,sp,-16
   1a020:	00812423          	sw	s0,8(sp)
   1a024:	00112623          	sw	ra,12(sp)
   1a028:	01212223          	sw	s2,4(sp)
   1a02c:	01312023          	sw	s3,0(sp)
   1a030:	01700793          	li	a5,23
   1a034:	00050413          	mv	s0,a0
   1a038:	04a7d863          	bge	a5,a0,1a088 <_mprec_log10+0x6c>
   1a03c:	0000e797          	auipc	a5,0xe
   1a040:	a9478793          	addi	a5,a5,-1388 # 27ad0 <__malloc_av_+0x40c>
   1a044:	0007a503          	lw	a0,0(a5)
   1a048:	0047a583          	lw	a1,4(a5)
   1a04c:	0000e797          	auipc	a5,0xe
   1a050:	a8c78793          	addi	a5,a5,-1396 # 27ad8 <__malloc_av_+0x414>
   1a054:	0007a903          	lw	s2,0(a5)
   1a058:	0047a983          	lw	s3,4(a5)
   1a05c:	fff40413          	addi	s0,s0,-1
   1a060:	00090613          	mv	a2,s2
   1a064:	00098693          	mv	a3,s3
   1a068:	060070ef          	jal	ra,210c8 <__muldf3>
   1a06c:	fe0418e3          	bnez	s0,1a05c <_mprec_log10+0x40>
   1a070:	00c12083          	lw	ra,12(sp)
   1a074:	00812403          	lw	s0,8(sp)
   1a078:	00412903          	lw	s2,4(sp)
   1a07c:	00012983          	lw	s3,0(sp)
   1a080:	01010113          	addi	sp,sp,16
   1a084:	00008067          	ret
   1a088:	00351413          	slli	s0,a0,0x3
   1a08c:	0000b797          	auipc	a5,0xb
   1a090:	d0c78793          	addi	a5,a5,-756 # 24d98 <p05.3298>
   1a094:	00878433          	add	s0,a5,s0
   1a098:	01042503          	lw	a0,16(s0)
   1a09c:	01442583          	lw	a1,20(s0)
   1a0a0:	00c12083          	lw	ra,12(sp)
   1a0a4:	00812403          	lw	s0,8(sp)
   1a0a8:	00412903          	lw	s2,4(sp)
   1a0ac:	00012983          	lw	s3,0(sp)
   1a0b0:	01010113          	addi	sp,sp,16
   1a0b4:	00008067          	ret

0001a0b8 <__copybits>:
   1a0b8:	01062683          	lw	a3,16(a2)
   1a0bc:	fff58593          	addi	a1,a1,-1
   1a0c0:	4055d593          	srai	a1,a1,0x5
   1a0c4:	00158593          	addi	a1,a1,1
   1a0c8:	01460793          	addi	a5,a2,20
   1a0cc:	00269693          	slli	a3,a3,0x2
   1a0d0:	00259593          	slli	a1,a1,0x2
   1a0d4:	00d786b3          	add	a3,a5,a3
   1a0d8:	00b505b3          	add	a1,a0,a1
   1a0dc:	02d7f863          	bgeu	a5,a3,1a10c <__copybits+0x54>
   1a0e0:	00050713          	mv	a4,a0
   1a0e4:	00478793          	addi	a5,a5,4
   1a0e8:	ffc7a803          	lw	a6,-4(a5)
   1a0ec:	00470713          	addi	a4,a4,4
   1a0f0:	ff072e23          	sw	a6,-4(a4)
   1a0f4:	fed7e8e3          	bltu	a5,a3,1a0e4 <__copybits+0x2c>
   1a0f8:	40c687b3          	sub	a5,a3,a2
   1a0fc:	feb78793          	addi	a5,a5,-21
   1a100:	ffc7f793          	andi	a5,a5,-4
   1a104:	00478793          	addi	a5,a5,4
   1a108:	00f50533          	add	a0,a0,a5
   1a10c:	00b57863          	bgeu	a0,a1,1a11c <__copybits+0x64>
   1a110:	00450513          	addi	a0,a0,4
   1a114:	fe052e23          	sw	zero,-4(a0)
   1a118:	feb56ce3          	bltu	a0,a1,1a110 <__copybits+0x58>
   1a11c:	00008067          	ret

0001a120 <__any_on>:
   1a120:	01052703          	lw	a4,16(a0)
   1a124:	4055d613          	srai	a2,a1,0x5
   1a128:	01450693          	addi	a3,a0,20
   1a12c:	02c75a63          	bge	a4,a2,1a160 <__any_on+0x40>
   1a130:	00271793          	slli	a5,a4,0x2
   1a134:	00f687b3          	add	a5,a3,a5
   1a138:	04f6fc63          	bgeu	a3,a5,1a190 <__any_on+0x70>
   1a13c:	ffc7a503          	lw	a0,-4(a5)
   1a140:	ffc78793          	addi	a5,a5,-4
   1a144:	00051a63          	bnez	a0,1a158 <__any_on+0x38>
   1a148:	04f6f263          	bgeu	a3,a5,1a18c <__any_on+0x6c>
   1a14c:	ffc78793          	addi	a5,a5,-4
   1a150:	0007a703          	lw	a4,0(a5)
   1a154:	fe070ae3          	beqz	a4,1a148 <__any_on+0x28>
   1a158:	00100513          	li	a0,1
   1a15c:	00008067          	ret
   1a160:	00261793          	slli	a5,a2,0x2
   1a164:	00f687b3          	add	a5,a3,a5
   1a168:	fce658e3          	bge	a2,a4,1a138 <__any_on+0x18>
   1a16c:	01f5f593          	andi	a1,a1,31
   1a170:	fc0584e3          	beqz	a1,1a138 <__any_on+0x18>
   1a174:	0007a603          	lw	a2,0(a5)
   1a178:	00100513          	li	a0,1
   1a17c:	00b65733          	srl	a4,a2,a1
   1a180:	00b715b3          	sll	a1,a4,a1
   1a184:	fab60ae3          	beq	a2,a1,1a138 <__any_on+0x18>
   1a188:	00008067          	ret
   1a18c:	00008067          	ret
   1a190:	00000513          	li	a0,0
   1a194:	00008067          	ret

0001a198 <_realloc_r>:
   1a198:	fd010113          	addi	sp,sp,-48
   1a19c:	01312e23          	sw	s3,28(sp)
   1a1a0:	02112623          	sw	ra,44(sp)
   1a1a4:	02812423          	sw	s0,40(sp)
   1a1a8:	02912223          	sw	s1,36(sp)
   1a1ac:	03212023          	sw	s2,32(sp)
   1a1b0:	01412c23          	sw	s4,24(sp)
   1a1b4:	01512a23          	sw	s5,20(sp)
   1a1b8:	01612823          	sw	s6,16(sp)
   1a1bc:	01712623          	sw	s7,12(sp)
   1a1c0:	01812423          	sw	s8,8(sp)
   1a1c4:	00060993          	mv	s3,a2
   1a1c8:	22058c63          	beqz	a1,1a400 <_realloc_r+0x268>
   1a1cc:	00058b13          	mv	s6,a1
   1a1d0:	00050a93          	mv	s5,a0
   1a1d4:	fb5fe0ef          	jal	ra,19188 <__malloc_lock>
   1a1d8:	00b98413          	addi	s0,s3,11
   1a1dc:	01600793          	li	a5,22
   1a1e0:	0e87fe63          	bgeu	a5,s0,1a2dc <_realloc_r+0x144>
   1a1e4:	ff847413          	andi	s0,s0,-8
   1a1e8:	00040713          	mv	a4,s0
   1a1ec:	0e044e63          	bltz	s0,1a2e8 <_realloc_r+0x150>
   1a1f0:	0f346c63          	bltu	s0,s3,1a2e8 <_realloc_r+0x150>
   1a1f4:	ffcb2783          	lw	a5,-4(s6)
   1a1f8:	ff8b0913          	addi	s2,s6,-8
   1a1fc:	ffc7f493          	andi	s1,a5,-4
   1a200:	00990a33          	add	s4,s2,s1
   1a204:	1ae4d463          	bge	s1,a4,1a3ac <_realloc_r+0x214>
   1a208:	0000d697          	auipc	a3,0xd
   1a20c:	4bc68693          	addi	a3,a3,1212 # 276c4 <__malloc_av_>
   1a210:	0086a603          	lw	a2,8(a3)
   1a214:	004a2683          	lw	a3,4(s4)
   1a218:	25460663          	beq	a2,s4,1a464 <_realloc_r+0x2cc>
   1a21c:	ffe6f613          	andi	a2,a3,-2
   1a220:	00ca0633          	add	a2,s4,a2
   1a224:	00462603          	lw	a2,4(a2)
   1a228:	00167613          	andi	a2,a2,1
   1a22c:	1a061c63          	bnez	a2,1a3e4 <_realloc_r+0x24c>
   1a230:	ffc6f693          	andi	a3,a3,-4
   1a234:	00d48633          	add	a2,s1,a3
   1a238:	34e65a63          	bge	a2,a4,1a58c <_realloc_r+0x3f4>
   1a23c:	0017f793          	andi	a5,a5,1
   1a240:	02079463          	bnez	a5,1a268 <_realloc_r+0xd0>
   1a244:	ff8b2c03          	lw	s8,-8(s6)
   1a248:	41890c33          	sub	s8,s2,s8
   1a24c:	004c2783          	lw	a5,4(s8)
   1a250:	ffc7f793          	andi	a5,a5,-4
   1a254:	00d786b3          	add	a3,a5,a3
   1a258:	00968bb3          	add	s7,a3,s1
   1a25c:	0cebd663          	bge	s7,a4,1a328 <_realloc_r+0x190>
   1a260:	00f48bb3          	add	s7,s1,a5
   1a264:	34ebdc63          	bge	s7,a4,1a5bc <_realloc_r+0x424>
   1a268:	00098593          	mv	a1,s3
   1a26c:	000a8513          	mv	a0,s5
   1a270:	b80fe0ef          	jal	ra,185f0 <_malloc_r>
   1a274:	00050993          	mv	s3,a0
   1a278:	04050c63          	beqz	a0,1a2d0 <_realloc_r+0x138>
   1a27c:	ffcb2783          	lw	a5,-4(s6)
   1a280:	ff850713          	addi	a4,a0,-8
   1a284:	ffe7f793          	andi	a5,a5,-2
   1a288:	00f907b3          	add	a5,s2,a5
   1a28c:	30e78e63          	beq	a5,a4,1a5a8 <_realloc_r+0x410>
   1a290:	ffc48613          	addi	a2,s1,-4
   1a294:	02400793          	li	a5,36
   1a298:	38c7ee63          	bltu	a5,a2,1a634 <_realloc_r+0x49c>
   1a29c:	01300713          	li	a4,19
   1a2a0:	000b2683          	lw	a3,0(s6)
   1a2a4:	28c76663          	bltu	a4,a2,1a530 <_realloc_r+0x398>
   1a2a8:	00050793          	mv	a5,a0
   1a2ac:	000b0713          	mv	a4,s6
   1a2b0:	00d7a023          	sw	a3,0(a5)
   1a2b4:	00472683          	lw	a3,4(a4)
   1a2b8:	00d7a223          	sw	a3,4(a5)
   1a2bc:	00872703          	lw	a4,8(a4)
   1a2c0:	00e7a423          	sw	a4,8(a5)
   1a2c4:	000b0593          	mv	a1,s6
   1a2c8:	000a8513          	mv	a0,s5
   1a2cc:	c19fa0ef          	jal	ra,14ee4 <_free_r>
   1a2d0:	000a8513          	mv	a0,s5
   1a2d4:	eb9fe0ef          	jal	ra,1918c <__malloc_unlock>
   1a2d8:	01c0006f          	j	1a2f4 <_realloc_r+0x15c>
   1a2dc:	01000413          	li	s0,16
   1a2e0:	01000713          	li	a4,16
   1a2e4:	f13478e3          	bgeu	s0,s3,1a1f4 <_realloc_r+0x5c>
   1a2e8:	00c00793          	li	a5,12
   1a2ec:	00faa023          	sw	a5,0(s5)
   1a2f0:	00000993          	li	s3,0
   1a2f4:	02c12083          	lw	ra,44(sp)
   1a2f8:	02812403          	lw	s0,40(sp)
   1a2fc:	00098513          	mv	a0,s3
   1a300:	02412483          	lw	s1,36(sp)
   1a304:	02012903          	lw	s2,32(sp)
   1a308:	01c12983          	lw	s3,28(sp)
   1a30c:	01812a03          	lw	s4,24(sp)
   1a310:	01412a83          	lw	s5,20(sp)
   1a314:	01012b03          	lw	s6,16(sp)
   1a318:	00c12b83          	lw	s7,12(sp)
   1a31c:	00812c03          	lw	s8,8(sp)
   1a320:	03010113          	addi	sp,sp,48
   1a324:	00008067          	ret
   1a328:	00ca2783          	lw	a5,12(s4)
   1a32c:	008a2703          	lw	a4,8(s4)
   1a330:	ffc48613          	addi	a2,s1,-4
   1a334:	02400693          	li	a3,36
   1a338:	00f72623          	sw	a5,12(a4)
   1a33c:	00e7a423          	sw	a4,8(a5)
   1a340:	008c2703          	lw	a4,8(s8)
   1a344:	00cc2783          	lw	a5,12(s8)
   1a348:	008c0993          	addi	s3,s8,8
   1a34c:	017c0a33          	add	s4,s8,s7
   1a350:	00f72623          	sw	a5,12(a4)
   1a354:	00e7a423          	sw	a4,8(a5)
   1a358:	2ec6e463          	bltu	a3,a2,1a640 <_realloc_r+0x4a8>
   1a35c:	01300693          	li	a3,19
   1a360:	000b2703          	lw	a4,0(s6)
   1a364:	00098793          	mv	a5,s3
   1a368:	02c6f263          	bgeu	a3,a2,1a38c <_realloc_r+0x1f4>
   1a36c:	00ec2423          	sw	a4,8(s8)
   1a370:	004b2703          	lw	a4,4(s6)
   1a374:	01b00793          	li	a5,27
   1a378:	00ec2623          	sw	a4,12(s8)
   1a37c:	008b2703          	lw	a4,8(s6)
   1a380:	34c7e263          	bltu	a5,a2,1a6c4 <_realloc_r+0x52c>
   1a384:	010c0793          	addi	a5,s8,16
   1a388:	008b0b13          	addi	s6,s6,8
   1a38c:	00e7a023          	sw	a4,0(a5)
   1a390:	004b2703          	lw	a4,4(s6)
   1a394:	000b8493          	mv	s1,s7
   1a398:	000c0913          	mv	s2,s8
   1a39c:	00e7a223          	sw	a4,4(a5)
   1a3a0:	008b2703          	lw	a4,8(s6)
   1a3a4:	00098b13          	mv	s6,s3
   1a3a8:	00e7a423          	sw	a4,8(a5)
   1a3ac:	00492603          	lw	a2,4(s2)
   1a3b0:	408487b3          	sub	a5,s1,s0
   1a3b4:	00f00713          	li	a4,15
   1a3b8:	00167613          	andi	a2,a2,1
   1a3bc:	06f76c63          	bltu	a4,a5,1a434 <_realloc_r+0x29c>
   1a3c0:	00c4e633          	or	a2,s1,a2
   1a3c4:	00c92223          	sw	a2,4(s2)
   1a3c8:	004a2783          	lw	a5,4(s4)
   1a3cc:	0017e793          	ori	a5,a5,1
   1a3d0:	00fa2223          	sw	a5,4(s4)
   1a3d4:	000a8513          	mv	a0,s5
   1a3d8:	db5fe0ef          	jal	ra,1918c <__malloc_unlock>
   1a3dc:	000b0993          	mv	s3,s6
   1a3e0:	f15ff06f          	j	1a2f4 <_realloc_r+0x15c>
   1a3e4:	0017f793          	andi	a5,a5,1
   1a3e8:	e80790e3          	bnez	a5,1a268 <_realloc_r+0xd0>
   1a3ec:	ff8b2c03          	lw	s8,-8(s6)
   1a3f0:	41890c33          	sub	s8,s2,s8
   1a3f4:	004c2783          	lw	a5,4(s8)
   1a3f8:	ffc7f793          	andi	a5,a5,-4
   1a3fc:	e65ff06f          	j	1a260 <_realloc_r+0xc8>
   1a400:	02812403          	lw	s0,40(sp)
   1a404:	02c12083          	lw	ra,44(sp)
   1a408:	02412483          	lw	s1,36(sp)
   1a40c:	02012903          	lw	s2,32(sp)
   1a410:	01c12983          	lw	s3,28(sp)
   1a414:	01812a03          	lw	s4,24(sp)
   1a418:	01412a83          	lw	s5,20(sp)
   1a41c:	01012b03          	lw	s6,16(sp)
   1a420:	00c12b83          	lw	s7,12(sp)
   1a424:	00812c03          	lw	s8,8(sp)
   1a428:	00060593          	mv	a1,a2
   1a42c:	03010113          	addi	sp,sp,48
   1a430:	9c0fe06f          	j	185f0 <_malloc_r>
   1a434:	00866633          	or	a2,a2,s0
   1a438:	00c92223          	sw	a2,4(s2)
   1a43c:	008905b3          	add	a1,s2,s0
   1a440:	0017e793          	ori	a5,a5,1
   1a444:	00f5a223          	sw	a5,4(a1)
   1a448:	004a2783          	lw	a5,4(s4)
   1a44c:	00858593          	addi	a1,a1,8
   1a450:	000a8513          	mv	a0,s5
   1a454:	0017e793          	ori	a5,a5,1
   1a458:	00fa2223          	sw	a5,4(s4)
   1a45c:	a89fa0ef          	jal	ra,14ee4 <_free_r>
   1a460:	f75ff06f          	j	1a3d4 <_realloc_r+0x23c>
   1a464:	ffc6f693          	andi	a3,a3,-4
   1a468:	00d48633          	add	a2,s1,a3
   1a46c:	01040593          	addi	a1,s0,16
   1a470:	0eb65263          	bge	a2,a1,1a554 <_realloc_r+0x3bc>
   1a474:	0017f793          	andi	a5,a5,1
   1a478:	de0798e3          	bnez	a5,1a268 <_realloc_r+0xd0>
   1a47c:	ff8b2c03          	lw	s8,-8(s6)
   1a480:	41890c33          	sub	s8,s2,s8
   1a484:	004c2783          	lw	a5,4(s8)
   1a488:	ffc7f793          	andi	a5,a5,-4
   1a48c:	00d786b3          	add	a3,a5,a3
   1a490:	00968a33          	add	s4,a3,s1
   1a494:	dcba46e3          	blt	s4,a1,1a260 <_realloc_r+0xc8>
   1a498:	00cc2783          	lw	a5,12(s8)
   1a49c:	008c2703          	lw	a4,8(s8)
   1a4a0:	ffc48613          	addi	a2,s1,-4
   1a4a4:	02400693          	li	a3,36
   1a4a8:	00f72623          	sw	a5,12(a4)
   1a4ac:	00e7a423          	sw	a4,8(a5)
   1a4b0:	008c0993          	addi	s3,s8,8
   1a4b4:	22c6ea63          	bltu	a3,a2,1a6e8 <_realloc_r+0x550>
   1a4b8:	01300593          	li	a1,19
   1a4bc:	000b2703          	lw	a4,0(s6)
   1a4c0:	00098793          	mv	a5,s3
   1a4c4:	02c5f263          	bgeu	a1,a2,1a4e8 <_realloc_r+0x350>
   1a4c8:	00ec2423          	sw	a4,8(s8)
   1a4cc:	004b2703          	lw	a4,4(s6)
   1a4d0:	01b00793          	li	a5,27
   1a4d4:	00ec2623          	sw	a4,12(s8)
   1a4d8:	24c7ee63          	bltu	a5,a2,1a734 <_realloc_r+0x59c>
   1a4dc:	008b2703          	lw	a4,8(s6)
   1a4e0:	010c0793          	addi	a5,s8,16
   1a4e4:	008b0b13          	addi	s6,s6,8
   1a4e8:	00e7a023          	sw	a4,0(a5)
   1a4ec:	004b2703          	lw	a4,4(s6)
   1a4f0:	00e7a223          	sw	a4,4(a5)
   1a4f4:	008b2703          	lw	a4,8(s6)
   1a4f8:	00e7a423          	sw	a4,8(a5)
   1a4fc:	008c0733          	add	a4,s8,s0
   1a500:	408a07b3          	sub	a5,s4,s0
   1a504:	0000d697          	auipc	a3,0xd
   1a508:	1ce6a423          	sw	a4,456(a3) # 276cc <__malloc_av_+0x8>
   1a50c:	0017e793          	ori	a5,a5,1
   1a510:	00f72223          	sw	a5,4(a4)
   1a514:	004c2783          	lw	a5,4(s8)
   1a518:	000a8513          	mv	a0,s5
   1a51c:	0017f793          	andi	a5,a5,1
   1a520:	0087e433          	or	s0,a5,s0
   1a524:	008c2223          	sw	s0,4(s8)
   1a528:	c65fe0ef          	jal	ra,1918c <__malloc_unlock>
   1a52c:	dc9ff06f          	j	1a2f4 <_realloc_r+0x15c>
   1a530:	00d52023          	sw	a3,0(a0)
   1a534:	004b2683          	lw	a3,4(s6)
   1a538:	01b00713          	li	a4,27
   1a53c:	00d52223          	sw	a3,4(a0)
   1a540:	10c76e63          	bltu	a4,a2,1a65c <_realloc_r+0x4c4>
   1a544:	008b0713          	addi	a4,s6,8
   1a548:	00850793          	addi	a5,a0,8
   1a54c:	008b2683          	lw	a3,8(s6)
   1a550:	d61ff06f          	j	1a2b0 <_realloc_r+0x118>
   1a554:	00890933          	add	s2,s2,s0
   1a558:	408607b3          	sub	a5,a2,s0
   1a55c:	0000d717          	auipc	a4,0xd
   1a560:	17272823          	sw	s2,368(a4) # 276cc <__malloc_av_+0x8>
   1a564:	0017e793          	ori	a5,a5,1
   1a568:	00f92223          	sw	a5,4(s2)
   1a56c:	ffcb2783          	lw	a5,-4(s6)
   1a570:	000a8513          	mv	a0,s5
   1a574:	000b0993          	mv	s3,s6
   1a578:	0017f793          	andi	a5,a5,1
   1a57c:	0087e433          	or	s0,a5,s0
   1a580:	fe8b2e23          	sw	s0,-4(s6)
   1a584:	c09fe0ef          	jal	ra,1918c <__malloc_unlock>
   1a588:	d6dff06f          	j	1a2f4 <_realloc_r+0x15c>
   1a58c:	00ca2783          	lw	a5,12(s4)
   1a590:	008a2703          	lw	a4,8(s4)
   1a594:	00060493          	mv	s1,a2
   1a598:	00c90a33          	add	s4,s2,a2
   1a59c:	00f72623          	sw	a5,12(a4)
   1a5a0:	00e7a423          	sw	a4,8(a5)
   1a5a4:	e09ff06f          	j	1a3ac <_realloc_r+0x214>
   1a5a8:	ffc52783          	lw	a5,-4(a0)
   1a5ac:	ffc7f793          	andi	a5,a5,-4
   1a5b0:	00f484b3          	add	s1,s1,a5
   1a5b4:	00990a33          	add	s4,s2,s1
   1a5b8:	df5ff06f          	j	1a3ac <_realloc_r+0x214>
   1a5bc:	00cc2703          	lw	a4,12(s8)
   1a5c0:	008c2683          	lw	a3,8(s8)
   1a5c4:	ffc48613          	addi	a2,s1,-4
   1a5c8:	02400593          	li	a1,36
   1a5cc:	00e6a623          	sw	a4,12(a3)
   1a5d0:	00d72423          	sw	a3,8(a4)
   1a5d4:	008c0993          	addi	s3,s8,8
   1a5d8:	017c0a33          	add	s4,s8,s7
   1a5dc:	06c5e263          	bltu	a1,a2,1a640 <_realloc_r+0x4a8>
   1a5e0:	01300513          	li	a0,19
   1a5e4:	000b2683          	lw	a3,0(s6)
   1a5e8:	00098713          	mv	a4,s3
   1a5ec:	02c57263          	bgeu	a0,a2,1a610 <_realloc_r+0x478>
   1a5f0:	00dc2423          	sw	a3,8(s8)
   1a5f4:	004b2703          	lw	a4,4(s6)
   1a5f8:	01b00793          	li	a5,27
   1a5fc:	00ec2623          	sw	a4,12(s8)
   1a600:	0ac7e063          	bltu	a5,a2,1a6a0 <_realloc_r+0x508>
   1a604:	008b2683          	lw	a3,8(s6)
   1a608:	010c0713          	addi	a4,s8,16
   1a60c:	008b0b13          	addi	s6,s6,8
   1a610:	00d72023          	sw	a3,0(a4)
   1a614:	004b2683          	lw	a3,4(s6)
   1a618:	000b8493          	mv	s1,s7
   1a61c:	000c0913          	mv	s2,s8
   1a620:	00d72223          	sw	a3,4(a4)
   1a624:	008b2783          	lw	a5,8(s6)
   1a628:	00098b13          	mv	s6,s3
   1a62c:	00f72423          	sw	a5,8(a4)
   1a630:	d7dff06f          	j	1a3ac <_realloc_r+0x214>
   1a634:	000b0593          	mv	a1,s6
   1a638:	a31fe0ef          	jal	ra,19068 <memmove>
   1a63c:	c89ff06f          	j	1a2c4 <_realloc_r+0x12c>
   1a640:	000b0593          	mv	a1,s6
   1a644:	00098513          	mv	a0,s3
   1a648:	a21fe0ef          	jal	ra,19068 <memmove>
   1a64c:	00098b13          	mv	s6,s3
   1a650:	000b8493          	mv	s1,s7
   1a654:	000c0913          	mv	s2,s8
   1a658:	d55ff06f          	j	1a3ac <_realloc_r+0x214>
   1a65c:	008b2703          	lw	a4,8(s6)
   1a660:	00e52423          	sw	a4,8(a0)
   1a664:	00cb2703          	lw	a4,12(s6)
   1a668:	00e52623          	sw	a4,12(a0)
   1a66c:	00f60a63          	beq	a2,a5,1a680 <_realloc_r+0x4e8>
   1a670:	010b0713          	addi	a4,s6,16
   1a674:	01050793          	addi	a5,a0,16
   1a678:	010b2683          	lw	a3,16(s6)
   1a67c:	c35ff06f          	j	1a2b0 <_realloc_r+0x118>
   1a680:	010b2683          	lw	a3,16(s6)
   1a684:	018b0713          	addi	a4,s6,24
   1a688:	01850793          	addi	a5,a0,24
   1a68c:	00d52823          	sw	a3,16(a0)
   1a690:	014b2683          	lw	a3,20(s6)
   1a694:	00d52a23          	sw	a3,20(a0)
   1a698:	018b2683          	lw	a3,24(s6)
   1a69c:	c15ff06f          	j	1a2b0 <_realloc_r+0x118>
   1a6a0:	008b2783          	lw	a5,8(s6)
   1a6a4:	00fc2823          	sw	a5,16(s8)
   1a6a8:	00cb2783          	lw	a5,12(s6)
   1a6ac:	00fc2a23          	sw	a5,20(s8)
   1a6b0:	04b60463          	beq	a2,a1,1a6f8 <_realloc_r+0x560>
   1a6b4:	010b2683          	lw	a3,16(s6)
   1a6b8:	018c0713          	addi	a4,s8,24
   1a6bc:	010b0b13          	addi	s6,s6,16
   1a6c0:	f51ff06f          	j	1a610 <_realloc_r+0x478>
   1a6c4:	00ec2823          	sw	a4,16(s8)
   1a6c8:	00cb2703          	lw	a4,12(s6)
   1a6cc:	02400793          	li	a5,36
   1a6d0:	00ec2a23          	sw	a4,20(s8)
   1a6d4:	010b2703          	lw	a4,16(s6)
   1a6d8:	04f60063          	beq	a2,a5,1a718 <_realloc_r+0x580>
   1a6dc:	018c0793          	addi	a5,s8,24
   1a6e0:	010b0b13          	addi	s6,s6,16
   1a6e4:	ca9ff06f          	j	1a38c <_realloc_r+0x1f4>
   1a6e8:	000b0593          	mv	a1,s6
   1a6ec:	00098513          	mv	a0,s3
   1a6f0:	979fe0ef          	jal	ra,19068 <memmove>
   1a6f4:	e09ff06f          	j	1a4fc <_realloc_r+0x364>
   1a6f8:	010b2783          	lw	a5,16(s6)
   1a6fc:	020c0713          	addi	a4,s8,32
   1a700:	018b0b13          	addi	s6,s6,24
   1a704:	00fc2c23          	sw	a5,24(s8)
   1a708:	ffcb2783          	lw	a5,-4(s6)
   1a70c:	00fc2e23          	sw	a5,28(s8)
   1a710:	000b2683          	lw	a3,0(s6)
   1a714:	efdff06f          	j	1a610 <_realloc_r+0x478>
   1a718:	00ec2c23          	sw	a4,24(s8)
   1a71c:	014b2703          	lw	a4,20(s6)
   1a720:	020c0793          	addi	a5,s8,32
   1a724:	018b0b13          	addi	s6,s6,24
   1a728:	00ec2e23          	sw	a4,28(s8)
   1a72c:	000b2703          	lw	a4,0(s6)
   1a730:	c5dff06f          	j	1a38c <_realloc_r+0x1f4>
   1a734:	008b2783          	lw	a5,8(s6)
   1a738:	00fc2823          	sw	a5,16(s8)
   1a73c:	00cb2783          	lw	a5,12(s6)
   1a740:	00fc2a23          	sw	a5,20(s8)
   1a744:	010b2703          	lw	a4,16(s6)
   1a748:	00d60863          	beq	a2,a3,1a758 <_realloc_r+0x5c0>
   1a74c:	018c0793          	addi	a5,s8,24
   1a750:	010b0b13          	addi	s6,s6,16
   1a754:	d95ff06f          	j	1a4e8 <_realloc_r+0x350>
   1a758:	00ec2c23          	sw	a4,24(s8)
   1a75c:	014b2703          	lw	a4,20(s6)
   1a760:	020c0793          	addi	a5,s8,32
   1a764:	018b0b13          	addi	s6,s6,24
   1a768:	00ec2e23          	sw	a4,28(s8)
   1a76c:	000b2703          	lw	a4,0(s6)
   1a770:	d79ff06f          	j	1a4e8 <_realloc_r+0x350>

0001a774 <_sbrk_r>:
   1a774:	ff010113          	addi	sp,sp,-16
   1a778:	00812423          	sw	s0,8(sp)
   1a77c:	00050413          	mv	s0,a0
   1a780:	00058513          	mv	a0,a1
   1a784:	8a01a623          	sw	zero,-1876(gp) # 27b7c <errno>
   1a788:	00112623          	sw	ra,12(sp)
   1a78c:	b28f60ef          	jal	ra,10ab4 <_sbrk>
   1a790:	fff00793          	li	a5,-1
   1a794:	00f50a63          	beq	a0,a5,1a7a8 <_sbrk_r+0x34>
   1a798:	00c12083          	lw	ra,12(sp)
   1a79c:	00812403          	lw	s0,8(sp)
   1a7a0:	01010113          	addi	sp,sp,16
   1a7a4:	00008067          	ret
   1a7a8:	8ac18793          	addi	a5,gp,-1876 # 27b7c <errno>
   1a7ac:	0007a783          	lw	a5,0(a5)
   1a7b0:	fe0784e3          	beqz	a5,1a798 <_sbrk_r+0x24>
   1a7b4:	00f42023          	sw	a5,0(s0)
   1a7b8:	00c12083          	lw	ra,12(sp)
   1a7bc:	00812403          	lw	s0,8(sp)
   1a7c0:	01010113          	addi	sp,sp,16
   1a7c4:	00008067          	ret

0001a7c8 <frexp>:
   1a7c8:	ff010113          	addi	sp,sp,-16
   1a7cc:	00812423          	sw	s0,8(sp)
   1a7d0:	80000437          	lui	s0,0x80000
   1a7d4:	00912223          	sw	s1,4(sp)
   1a7d8:	00112623          	sw	ra,12(sp)
   1a7dc:	fff44413          	not	s0,s0
   1a7e0:	00060493          	mv	s1,a2
   1a7e4:	00062023          	sw	zero,0(a2)
   1a7e8:	00b47733          	and	a4,s0,a1
   1a7ec:	7ff00637          	lui	a2,0x7ff00
   1a7f0:	00058793          	mv	a5,a1
   1a7f4:	00050693          	mv	a3,a0
   1a7f8:	06c75263          	bge	a4,a2,1a85c <frexp+0x94>
   1a7fc:	00a768b3          	or	a7,a4,a0
   1a800:	04088e63          	beqz	a7,1a85c <frexp+0x94>
   1a804:	00c5f633          	and	a2,a1,a2
   1a808:	00058813          	mv	a6,a1
   1a80c:	00000893          	li	a7,0
   1a810:	02061463          	bnez	a2,1a838 <frexp+0x70>
   1a814:	0000d797          	auipc	a5,0xd
   1a818:	2cc78793          	addi	a5,a5,716 # 27ae0 <__malloc_av_+0x41c>
   1a81c:	0047a683          	lw	a3,4(a5)
   1a820:	0007a603          	lw	a2,0(a5)
   1a824:	0a5060ef          	jal	ra,210c8 <__muldf3>
   1a828:	00050693          	mv	a3,a0
   1a82c:	00058813          	mv	a6,a1
   1a830:	00b47733          	and	a4,s0,a1
   1a834:	fca00893          	li	a7,-54
   1a838:	41475713          	srai	a4,a4,0x14
   1a83c:	801007b7          	lui	a5,0x80100
   1a840:	fff78793          	addi	a5,a5,-1 # 800fffff <__global_pointer$+0x800d7d2f>
   1a844:	c0270713          	addi	a4,a4,-1022
   1a848:	00f87833          	and	a6,a6,a5
   1a84c:	01170733          	add	a4,a4,a7
   1a850:	3fe007b7          	lui	a5,0x3fe00
   1a854:	00f867b3          	or	a5,a6,a5
   1a858:	00e4a023          	sw	a4,0(s1)
   1a85c:	00c12083          	lw	ra,12(sp)
   1a860:	00812403          	lw	s0,8(sp)
   1a864:	00412483          	lw	s1,4(sp)
   1a868:	00068513          	mv	a0,a3
   1a86c:	00078593          	mv	a1,a5
   1a870:	01010113          	addi	sp,sp,16
   1a874:	00008067          	ret

0001a878 <_sprintf_r>:
   1a878:	f6010113          	addi	sp,sp,-160
   1a87c:	08c10e13          	addi	t3,sp,140
   1a880:	08f12a23          	sw	a5,148(sp)
   1a884:	80000337          	lui	t1,0x80000
   1a888:	ffff07b7          	lui	a5,0xffff0
   1a88c:	00058e93          	mv	t4,a1
   1a890:	fff34313          	not	t1,t1
   1a894:	08d12623          	sw	a3,140(sp)
   1a898:	20878793          	addi	a5,a5,520 # ffff0208 <__global_pointer$+0xfffc7f38>
   1a89c:	00810593          	addi	a1,sp,8
   1a8a0:	000e0693          	mv	a3,t3
   1a8a4:	06112e23          	sw	ra,124(sp)
   1a8a8:	00f12a23          	sw	a5,20(sp)
   1a8ac:	08e12823          	sw	a4,144(sp)
   1a8b0:	09012c23          	sw	a6,152(sp)
   1a8b4:	09112e23          	sw	a7,156(sp)
   1a8b8:	01d12423          	sw	t4,8(sp)
   1a8bc:	01d12c23          	sw	t4,24(sp)
   1a8c0:	00612e23          	sw	t1,28(sp)
   1a8c4:	00612823          	sw	t1,16(sp)
   1a8c8:	01c12223          	sw	t3,4(sp)
   1a8cc:	4e8000ef          	jal	ra,1adb4 <_svfprintf_r>
   1a8d0:	00812783          	lw	a5,8(sp)
   1a8d4:	00078023          	sb	zero,0(a5)
   1a8d8:	07c12083          	lw	ra,124(sp)
   1a8dc:	0a010113          	addi	sp,sp,160
   1a8e0:	00008067          	ret

0001a8e4 <sprintf>:
   1a8e4:	00050e93          	mv	t4,a0
   1a8e8:	81c18513          	addi	a0,gp,-2020 # 27aec <_impure_ptr>
   1a8ec:	f6010113          	addi	sp,sp,-160
   1a8f0:	00052503          	lw	a0,0(a0)
   1a8f4:	08810e13          	addi	t3,sp,136
   1a8f8:	08f12a23          	sw	a5,148(sp)
   1a8fc:	80000337          	lui	t1,0x80000
   1a900:	ffff07b7          	lui	a5,0xffff0
   1a904:	fff34313          	not	t1,t1
   1a908:	08c12423          	sw	a2,136(sp)
   1a90c:	08d12623          	sw	a3,140(sp)
   1a910:	20878793          	addi	a5,a5,520 # ffff0208 <__global_pointer$+0xfffc7f38>
   1a914:	00058613          	mv	a2,a1
   1a918:	000e0693          	mv	a3,t3
   1a91c:	00810593          	addi	a1,sp,8
   1a920:	06112e23          	sw	ra,124(sp)
   1a924:	00f12a23          	sw	a5,20(sp)
   1a928:	08e12823          	sw	a4,144(sp)
   1a92c:	09012c23          	sw	a6,152(sp)
   1a930:	09112e23          	sw	a7,156(sp)
   1a934:	01d12423          	sw	t4,8(sp)
   1a938:	01d12c23          	sw	t4,24(sp)
   1a93c:	00612e23          	sw	t1,28(sp)
   1a940:	00612823          	sw	t1,16(sp)
   1a944:	01c12223          	sw	t3,4(sp)
   1a948:	46c000ef          	jal	ra,1adb4 <_svfprintf_r>
   1a94c:	00812783          	lw	a5,8(sp)
   1a950:	00078023          	sb	zero,0(a5)
   1a954:	07c12083          	lw	ra,124(sp)
   1a958:	0a010113          	addi	sp,sp,160
   1a95c:	00008067          	ret

0001a960 <__sread>:
   1a960:	ff010113          	addi	sp,sp,-16
   1a964:	00812423          	sw	s0,8(sp)
   1a968:	00058413          	mv	s0,a1
   1a96c:	00e59583          	lh	a1,14(a1)
   1a970:	00112623          	sw	ra,12(sp)
   1a974:	16d040ef          	jal	ra,1f2e0 <_read_r>
   1a978:	02054063          	bltz	a0,1a998 <__sread+0x38>
   1a97c:	05042783          	lw	a5,80(s0) # 80000050 <__global_pointer$+0x7ffd7d80>
   1a980:	00c12083          	lw	ra,12(sp)
   1a984:	00a787b3          	add	a5,a5,a0
   1a988:	04f42823          	sw	a5,80(s0)
   1a98c:	00812403          	lw	s0,8(sp)
   1a990:	01010113          	addi	sp,sp,16
   1a994:	00008067          	ret
   1a998:	00c45783          	lhu	a5,12(s0)
   1a99c:	fffff737          	lui	a4,0xfffff
   1a9a0:	fff70713          	addi	a4,a4,-1 # ffffefff <__global_pointer$+0xfffd6d2f>
   1a9a4:	00e7f7b3          	and	a5,a5,a4
   1a9a8:	00f41623          	sh	a5,12(s0)
   1a9ac:	00c12083          	lw	ra,12(sp)
   1a9b0:	00812403          	lw	s0,8(sp)
   1a9b4:	01010113          	addi	sp,sp,16
   1a9b8:	00008067          	ret

0001a9bc <__seofread>:
   1a9bc:	00000513          	li	a0,0
   1a9c0:	00008067          	ret

0001a9c4 <__swrite>:
   1a9c4:	00c59783          	lh	a5,12(a1)
   1a9c8:	fe010113          	addi	sp,sp,-32
   1a9cc:	00812c23          	sw	s0,24(sp)
   1a9d0:	00912a23          	sw	s1,20(sp)
   1a9d4:	01212823          	sw	s2,16(sp)
   1a9d8:	01312623          	sw	s3,12(sp)
   1a9dc:	00112e23          	sw	ra,28(sp)
   1a9e0:	1007f713          	andi	a4,a5,256
   1a9e4:	00058413          	mv	s0,a1
   1a9e8:	00050493          	mv	s1,a0
   1a9ec:	00060913          	mv	s2,a2
   1a9f0:	00068993          	mv	s3,a3
   1a9f4:	00e59583          	lh	a1,14(a1)
   1a9f8:	02071e63          	bnez	a4,1aa34 <__swrite+0x70>
   1a9fc:	fffff737          	lui	a4,0xfffff
   1aa00:	fff70713          	addi	a4,a4,-1 # ffffefff <__global_pointer$+0xfffd6d2f>
   1aa04:	00e7f7b3          	and	a5,a5,a4
   1aa08:	00f41623          	sh	a5,12(s0)
   1aa0c:	01812403          	lw	s0,24(sp)
   1aa10:	01c12083          	lw	ra,28(sp)
   1aa14:	00098693          	mv	a3,s3
   1aa18:	00090613          	mv	a2,s2
   1aa1c:	00c12983          	lw	s3,12(sp)
   1aa20:	01012903          	lw	s2,16(sp)
   1aa24:	00048513          	mv	a0,s1
   1aa28:	01412483          	lw	s1,20(sp)
   1aa2c:	02010113          	addi	sp,sp,32
   1aa30:	3400406f          	j	1ed70 <_write_r>
   1aa34:	00200693          	li	a3,2
   1aa38:	00000613          	li	a2,0
   1aa3c:	045040ef          	jal	ra,1f280 <_lseek_r>
   1aa40:	00c41783          	lh	a5,12(s0)
   1aa44:	00e41583          	lh	a1,14(s0)
   1aa48:	fb5ff06f          	j	1a9fc <__swrite+0x38>

0001aa4c <__sseek>:
   1aa4c:	ff010113          	addi	sp,sp,-16
   1aa50:	00812423          	sw	s0,8(sp)
   1aa54:	00058413          	mv	s0,a1
   1aa58:	00e59583          	lh	a1,14(a1)
   1aa5c:	00112623          	sw	ra,12(sp)
   1aa60:	021040ef          	jal	ra,1f280 <_lseek_r>
   1aa64:	fff00793          	li	a5,-1
   1aa68:	02f50463          	beq	a0,a5,1aa90 <__sseek+0x44>
   1aa6c:	00c45783          	lhu	a5,12(s0)
   1aa70:	00001737          	lui	a4,0x1
   1aa74:	04a42823          	sw	a0,80(s0)
   1aa78:	00e7e7b3          	or	a5,a5,a4
   1aa7c:	00f41623          	sh	a5,12(s0)
   1aa80:	00c12083          	lw	ra,12(sp)
   1aa84:	00812403          	lw	s0,8(sp)
   1aa88:	01010113          	addi	sp,sp,16
   1aa8c:	00008067          	ret
   1aa90:	00c45783          	lhu	a5,12(s0)
   1aa94:	fffff737          	lui	a4,0xfffff
   1aa98:	fff70713          	addi	a4,a4,-1 # ffffefff <__global_pointer$+0xfffd6d2f>
   1aa9c:	00e7f7b3          	and	a5,a5,a4
   1aaa0:	00f41623          	sh	a5,12(s0)
   1aaa4:	00c12083          	lw	ra,12(sp)
   1aaa8:	00812403          	lw	s0,8(sp)
   1aaac:	01010113          	addi	sp,sp,16
   1aab0:	00008067          	ret

0001aab4 <__sclose>:
   1aab4:	00e59583          	lh	a1,14(a1)
   1aab8:	3c80406f          	j	1ee80 <_close_r>

0001aabc <strcmp>:
   1aabc:	00b56733          	or	a4,a0,a1
   1aac0:	fff00393          	li	t2,-1
   1aac4:	00377713          	andi	a4,a4,3
   1aac8:	10071063          	bnez	a4,1abc8 <strcmp+0x10c>
   1aacc:	7f7f87b7          	lui	a5,0x7f7f8
   1aad0:	f7f78793          	addi	a5,a5,-129 # 7f7f7f7f <__global_pointer$+0x7f7cfcaf>
   1aad4:	00052603          	lw	a2,0(a0)
   1aad8:	0005a683          	lw	a3,0(a1)
   1aadc:	00f672b3          	and	t0,a2,a5
   1aae0:	00f66333          	or	t1,a2,a5
   1aae4:	00f282b3          	add	t0,t0,a5
   1aae8:	0062e2b3          	or	t0,t0,t1
   1aaec:	10729263          	bne	t0,t2,1abf0 <strcmp+0x134>
   1aaf0:	08d61663          	bne	a2,a3,1ab7c <strcmp+0xc0>
   1aaf4:	00452603          	lw	a2,4(a0)
   1aaf8:	0045a683          	lw	a3,4(a1)
   1aafc:	00f672b3          	and	t0,a2,a5
   1ab00:	00f66333          	or	t1,a2,a5
   1ab04:	00f282b3          	add	t0,t0,a5
   1ab08:	0062e2b3          	or	t0,t0,t1
   1ab0c:	0c729e63          	bne	t0,t2,1abe8 <strcmp+0x12c>
   1ab10:	06d61663          	bne	a2,a3,1ab7c <strcmp+0xc0>
   1ab14:	00852603          	lw	a2,8(a0)
   1ab18:	0085a683          	lw	a3,8(a1)
   1ab1c:	00f672b3          	and	t0,a2,a5
   1ab20:	00f66333          	or	t1,a2,a5
   1ab24:	00f282b3          	add	t0,t0,a5
   1ab28:	0062e2b3          	or	t0,t0,t1
   1ab2c:	0c729863          	bne	t0,t2,1abfc <strcmp+0x140>
   1ab30:	04d61663          	bne	a2,a3,1ab7c <strcmp+0xc0>
   1ab34:	00c52603          	lw	a2,12(a0)
   1ab38:	00c5a683          	lw	a3,12(a1)
   1ab3c:	00f672b3          	and	t0,a2,a5
   1ab40:	00f66333          	or	t1,a2,a5
   1ab44:	00f282b3          	add	t0,t0,a5
   1ab48:	0062e2b3          	or	t0,t0,t1
   1ab4c:	0c729263          	bne	t0,t2,1ac10 <strcmp+0x154>
   1ab50:	02d61663          	bne	a2,a3,1ab7c <strcmp+0xc0>
   1ab54:	01052603          	lw	a2,16(a0)
   1ab58:	0105a683          	lw	a3,16(a1)
   1ab5c:	00f672b3          	and	t0,a2,a5
   1ab60:	00f66333          	or	t1,a2,a5
   1ab64:	00f282b3          	add	t0,t0,a5
   1ab68:	0062e2b3          	or	t0,t0,t1
   1ab6c:	0a729c63          	bne	t0,t2,1ac24 <strcmp+0x168>
   1ab70:	01450513          	addi	a0,a0,20
   1ab74:	01458593          	addi	a1,a1,20
   1ab78:	f4d60ee3          	beq	a2,a3,1aad4 <strcmp+0x18>
   1ab7c:	01061713          	slli	a4,a2,0x10
   1ab80:	01069793          	slli	a5,a3,0x10
   1ab84:	00f71e63          	bne	a4,a5,1aba0 <strcmp+0xe4>
   1ab88:	01065713          	srli	a4,a2,0x10
   1ab8c:	0106d793          	srli	a5,a3,0x10
   1ab90:	40f70533          	sub	a0,a4,a5
   1ab94:	0ff57593          	andi	a1,a0,255
   1ab98:	02059063          	bnez	a1,1abb8 <strcmp+0xfc>
   1ab9c:	00008067          	ret
   1aba0:	01075713          	srli	a4,a4,0x10
   1aba4:	0107d793          	srli	a5,a5,0x10
   1aba8:	40f70533          	sub	a0,a4,a5
   1abac:	0ff57593          	andi	a1,a0,255
   1abb0:	00059463          	bnez	a1,1abb8 <strcmp+0xfc>
   1abb4:	00008067          	ret
   1abb8:	0ff77713          	andi	a4,a4,255
   1abbc:	0ff7f793          	andi	a5,a5,255
   1abc0:	40f70533          	sub	a0,a4,a5
   1abc4:	00008067          	ret
   1abc8:	00054603          	lbu	a2,0(a0)
   1abcc:	0005c683          	lbu	a3,0(a1)
   1abd0:	00150513          	addi	a0,a0,1
   1abd4:	00158593          	addi	a1,a1,1
   1abd8:	00d61463          	bne	a2,a3,1abe0 <strcmp+0x124>
   1abdc:	fe0616e3          	bnez	a2,1abc8 <strcmp+0x10c>
   1abe0:	40d60533          	sub	a0,a2,a3
   1abe4:	00008067          	ret
   1abe8:	00450513          	addi	a0,a0,4
   1abec:	00458593          	addi	a1,a1,4
   1abf0:	fcd61ce3          	bne	a2,a3,1abc8 <strcmp+0x10c>
   1abf4:	00000513          	li	a0,0
   1abf8:	00008067          	ret
   1abfc:	00850513          	addi	a0,a0,8
   1ac00:	00858593          	addi	a1,a1,8
   1ac04:	fcd612e3          	bne	a2,a3,1abc8 <strcmp+0x10c>
   1ac08:	00000513          	li	a0,0
   1ac0c:	00008067          	ret
   1ac10:	00c50513          	addi	a0,a0,12
   1ac14:	00c58593          	addi	a1,a1,12
   1ac18:	fad618e3          	bne	a2,a3,1abc8 <strcmp+0x10c>
   1ac1c:	00000513          	li	a0,0
   1ac20:	00008067          	ret
   1ac24:	01050513          	addi	a0,a0,16
   1ac28:	01058593          	addi	a1,a1,16
   1ac2c:	f8d61ee3          	bne	a2,a3,1abc8 <strcmp+0x10c>
   1ac30:	00000513          	li	a0,0
   1ac34:	00008067          	ret

0001ac38 <strcpy>:
   1ac38:	00b567b3          	or	a5,a0,a1
   1ac3c:	0037f793          	andi	a5,a5,3
   1ac40:	08079263          	bnez	a5,1acc4 <strcpy+0x8c>
   1ac44:	0005a703          	lw	a4,0(a1)
   1ac48:	7f7f86b7          	lui	a3,0x7f7f8
   1ac4c:	f7f68693          	addi	a3,a3,-129 # 7f7f7f7f <__global_pointer$+0x7f7cfcaf>
   1ac50:	00d777b3          	and	a5,a4,a3
   1ac54:	00d787b3          	add	a5,a5,a3
   1ac58:	00e7e7b3          	or	a5,a5,a4
   1ac5c:	00d7e7b3          	or	a5,a5,a3
   1ac60:	fff00613          	li	a2,-1
   1ac64:	06c79e63          	bne	a5,a2,1ace0 <strcpy+0xa8>
   1ac68:	00050613          	mv	a2,a0
   1ac6c:	fff00813          	li	a6,-1
   1ac70:	00460613          	addi	a2,a2,4 # 7ff00004 <__global_pointer$+0x7fed7d34>
   1ac74:	00458593          	addi	a1,a1,4
   1ac78:	fee62e23          	sw	a4,-4(a2)
   1ac7c:	0005a703          	lw	a4,0(a1)
   1ac80:	00d777b3          	and	a5,a4,a3
   1ac84:	00d787b3          	add	a5,a5,a3
   1ac88:	00e7e7b3          	or	a5,a5,a4
   1ac8c:	00d7e7b3          	or	a5,a5,a3
   1ac90:	ff0780e3          	beq	a5,a6,1ac70 <strcpy+0x38>
   1ac94:	0005c783          	lbu	a5,0(a1)
   1ac98:	0015c703          	lbu	a4,1(a1)
   1ac9c:	0025c683          	lbu	a3,2(a1)
   1aca0:	00f60023          	sb	a5,0(a2)
   1aca4:	00078a63          	beqz	a5,1acb8 <strcpy+0x80>
   1aca8:	00e600a3          	sb	a4,1(a2)
   1acac:	00070663          	beqz	a4,1acb8 <strcpy+0x80>
   1acb0:	00d60123          	sb	a3,2(a2)
   1acb4:	00069463          	bnez	a3,1acbc <strcpy+0x84>
   1acb8:	00008067          	ret
   1acbc:	000601a3          	sb	zero,3(a2)
   1acc0:	00008067          	ret
   1acc4:	00050793          	mv	a5,a0
   1acc8:	0005c703          	lbu	a4,0(a1)
   1accc:	00178793          	addi	a5,a5,1
   1acd0:	00158593          	addi	a1,a1,1
   1acd4:	fee78fa3          	sb	a4,-1(a5)
   1acd8:	fe0718e3          	bnez	a4,1acc8 <strcpy+0x90>
   1acdc:	00008067          	ret
   1ace0:	00050613          	mv	a2,a0
   1ace4:	fb1ff06f          	j	1ac94 <strcpy+0x5c>

0001ace8 <strncpy>:
   1ace8:	00a5e7b3          	or	a5,a1,a0
   1acec:	0037f793          	andi	a5,a5,3
   1acf0:	06079a63          	bnez	a5,1ad64 <strncpy+0x7c>
   1acf4:	00300793          	li	a5,3
   1acf8:	00050713          	mv	a4,a0
   1acfc:	06c7e863          	bltu	a5,a2,1ad6c <strncpy+0x84>
   1ad00:	06060063          	beqz	a2,1ad60 <strncpy+0x78>
   1ad04:	0005c803          	lbu	a6,0(a1)
   1ad08:	fff60693          	addi	a3,a2,-1
   1ad0c:	00158593          	addi	a1,a1,1
   1ad10:	01070023          	sb	a6,0(a4)
   1ad14:	00170793          	addi	a5,a4,1
   1ad18:	02080863          	beqz	a6,1ad48 <strncpy+0x60>
   1ad1c:	00c70633          	add	a2,a4,a2
   1ad20:	00d706b3          	add	a3,a4,a3
   1ad24:	0140006f          	j	1ad38 <strncpy+0x50>
   1ad28:	fff5c703          	lbu	a4,-1(a1)
   1ad2c:	00178793          	addi	a5,a5,1
   1ad30:	fee78fa3          	sb	a4,-1(a5)
   1ad34:	00070c63          	beqz	a4,1ad4c <strncpy+0x64>
   1ad38:	00158593          	addi	a1,a1,1
   1ad3c:	40f68833          	sub	a6,a3,a5
   1ad40:	fec794e3          	bne	a5,a2,1ad28 <strncpy+0x40>
   1ad44:	00008067          	ret
   1ad48:	00068813          	mv	a6,a3
   1ad4c:	01078733          	add	a4,a5,a6
   1ad50:	06080063          	beqz	a6,1adb0 <strncpy+0xc8>
   1ad54:	00178793          	addi	a5,a5,1
   1ad58:	fe078fa3          	sb	zero,-1(a5)
   1ad5c:	fee79ce3          	bne	a5,a4,1ad54 <strncpy+0x6c>
   1ad60:	00008067          	ret
   1ad64:	00050713          	mv	a4,a0
   1ad68:	f99ff06f          	j	1ad00 <strncpy+0x18>
   1ad6c:	feff0337          	lui	t1,0xfeff0
   1ad70:	808088b7          	lui	a7,0x80808
   1ad74:	eff30313          	addi	t1,t1,-257 # fefefeff <__global_pointer$+0xfefc7c2f>
   1ad78:	08088893          	addi	a7,a7,128 # 80808080 <__global_pointer$+0x807dfdb0>
   1ad7c:	00300e13          	li	t3,3
   1ad80:	0005a683          	lw	a3,0(a1)
   1ad84:	006687b3          	add	a5,a3,t1
   1ad88:	fff6c813          	not	a6,a3
   1ad8c:	0107f7b3          	and	a5,a5,a6
   1ad90:	0117f7b3          	and	a5,a5,a7
   1ad94:	f60798e3          	bnez	a5,1ad04 <strncpy+0x1c>
   1ad98:	00470713          	addi	a4,a4,4
   1ad9c:	ffc60613          	addi	a2,a2,-4
   1ada0:	fed72e23          	sw	a3,-4(a4)
   1ada4:	00458593          	addi	a1,a1,4
   1ada8:	fcce6ce3          	bltu	t3,a2,1ad80 <strncpy+0x98>
   1adac:	f55ff06f          	j	1ad00 <strncpy+0x18>
   1adb0:	00008067          	ret

0001adb4 <_svfprintf_r>:
   1adb4:	e1010113          	addi	sp,sp,-496
   1adb8:	1e112623          	sw	ra,492(sp)
   1adbc:	1e812423          	sw	s0,488(sp)
   1adc0:	1d812423          	sw	s8,456(sp)
   1adc4:	00058413          	mv	s0,a1
   1adc8:	00b12423          	sw	a1,8(sp)
   1adcc:	00060c13          	mv	s8,a2
   1add0:	00d12823          	sw	a3,16(sp)
   1add4:	1e912223          	sw	s1,484(sp)
   1add8:	1f212023          	sw	s2,480(sp)
   1addc:	1d312e23          	sw	s3,476(sp)
   1ade0:	1d412c23          	sw	s4,472(sp)
   1ade4:	1d512a23          	sw	s5,468(sp)
   1ade8:	1d612823          	sw	s6,464(sp)
   1adec:	1d712623          	sw	s7,460(sp)
   1adf0:	1d912223          	sw	s9,452(sp)
   1adf4:	1da12023          	sw	s10,448(sp)
   1adf8:	1bb12e23          	sw	s11,444(sp)
   1adfc:	02a12223          	sw	a0,36(sp)
   1ae00:	d4cfd0ef          	jal	ra,1834c <_localeconv_r>
   1ae04:	00052783          	lw	a5,0(a0)
   1ae08:	00078513          	mv	a0,a5
   1ae0c:	02f12823          	sw	a5,48(sp)
   1ae10:	9b5f60ef          	jal	ra,117c4 <strlen>
   1ae14:	00c45783          	lhu	a5,12(s0)
   1ae18:	02a12423          	sw	a0,40(sp)
   1ae1c:	0e012823          	sw	zero,240(sp)
   1ae20:	0e012a23          	sw	zero,244(sp)
   1ae24:	0e012c23          	sw	zero,248(sp)
   1ae28:	0e012e23          	sw	zero,252(sp)
   1ae2c:	0807f793          	andi	a5,a5,128
   1ae30:	00078863          	beqz	a5,1ae40 <_svfprintf_r+0x8c>
   1ae34:	01042783          	lw	a5,16(s0)
   1ae38:	00079463          	bnez	a5,1ae40 <_svfprintf_r+0x8c>
   1ae3c:	6ec0106f          	j	1c528 <_svfprintf_r+0x1774>
   1ae40:	000c0c93          	mv	s9,s8
   1ae44:	000cc703          	lbu	a4,0(s9)
   1ae48:	10c10793          	addi	a5,sp,268
   1ae4c:	0ef12223          	sw	a5,228(sp)
   1ae50:	0e012623          	sw	zero,236(sp)
   1ae54:	0e012423          	sw	zero,232(sp)
   1ae58:	00012c23          	sw	zero,24(sp)
   1ae5c:	02012623          	sw	zero,44(sp)
   1ae60:	02012c23          	sw	zero,56(sp)
   1ae64:	02012e23          	sw	zero,60(sp)
   1ae68:	04012023          	sw	zero,64(sp)
   1ae6c:	04012223          	sw	zero,68(sp)
   1ae70:	00012223          	sw	zero,4(sp)
   1ae74:	01000b93          	li	s7,16
   1ae78:	00078d13          	mv	s10,a5
   1ae7c:	02412a03          	lw	s4,36(sp)
   1ae80:	3a070463          	beqz	a4,1b228 <_svfprintf_r+0x474>
   1ae84:	02500693          	li	a3,37
   1ae88:	00d71463          	bne	a4,a3,1ae90 <_svfprintf_r+0xdc>
   1ae8c:	5400106f          	j	1c3cc <_svfprintf_r+0x1618>
   1ae90:	000c8413          	mv	s0,s9
   1ae94:	00c0006f          	j	1aea0 <_svfprintf_r+0xec>
   1ae98:	0ed78e63          	beq	a5,a3,1af94 <_svfprintf_r+0x1e0>
   1ae9c:	00090413          	mv	s0,s2
   1aea0:	00144783          	lbu	a5,1(s0)
   1aea4:	00140913          	addi	s2,s0,1
   1aea8:	fe0798e3          	bnez	a5,1ae98 <_svfprintf_r+0xe4>
   1aeac:	419904b3          	sub	s1,s2,s9
   1aeb0:	36048c63          	beqz	s1,1b228 <_svfprintf_r+0x474>
   1aeb4:	0ec12683          	lw	a3,236(sp)
   1aeb8:	0e812703          	lw	a4,232(sp)
   1aebc:	019d2023          	sw	s9,0(s10) # 1000 <threadsense.2617+0x1000>
   1aec0:	009686b3          	add	a3,a3,s1
   1aec4:	00170713          	addi	a4,a4,1
   1aec8:	009d2223          	sw	s1,4(s10)
   1aecc:	0ed12623          	sw	a3,236(sp)
   1aed0:	0ee12423          	sw	a4,232(sp)
   1aed4:	00700693          	li	a3,7
   1aed8:	008d0d13          	addi	s10,s10,8
   1aedc:	0ce6c263          	blt	a3,a4,1afa0 <_svfprintf_r+0x1ec>
   1aee0:	00412783          	lw	a5,4(sp)
   1aee4:	00144703          	lbu	a4,1(s0)
   1aee8:	009787b3          	add	a5,a5,s1
   1aeec:	00f12223          	sw	a5,4(sp)
   1aef0:	32070c63          	beqz	a4,1b228 <_svfprintf_r+0x474>
   1aef4:	fff00313          	li	t1,-1
   1aef8:	00190493          	addi	s1,s2,1
   1aefc:	00194e03          	lbu	t3,1(s2)
   1af00:	0c0103a3          	sb	zero,199(sp)
   1af04:	00000413          	li	s0,0
   1af08:	00000913          	li	s2,0
   1af0c:	00900993          	li	s3,9
   1af10:	02a00b13          	li	s6,42
   1af14:	00030c13          	mv	s8,t1
   1af18:	00148493          	addi	s1,s1,1
   1af1c:	000e0a93          	mv	s5,t3
   1af20:	05a00713          	li	a4,90
   1af24:	fe0a8793          	addi	a5,s5,-32
   1af28:	1ef76863          	bltu	a4,a5,1b118 <_svfprintf_r+0x364>
   1af2c:	0000a697          	auipc	a3,0xa
   1af30:	f9468693          	addi	a3,a3,-108 # 24ec0 <__mprec_bigtens+0x28>
   1af34:	00279793          	slli	a5,a5,0x2
   1af38:	00d787b3          	add	a5,a5,a3
   1af3c:	0007a783          	lw	a5,0(a5)
   1af40:	00d787b3          	add	a5,a5,a3
   1af44:	00078067          	jr	a5
   1af48:	000a0513          	mv	a0,s4
   1af4c:	c00fd0ef          	jal	ra,1834c <_localeconv_r>
   1af50:	00452783          	lw	a5,4(a0)
   1af54:	00078513          	mv	a0,a5
   1af58:	04f12223          	sw	a5,68(sp)
   1af5c:	869f60ef          	jal	ra,117c4 <strlen>
   1af60:	04a12023          	sw	a0,64(sp)
   1af64:	00050a93          	mv	s5,a0
   1af68:	000a0513          	mv	a0,s4
   1af6c:	be0fd0ef          	jal	ra,1834c <_localeconv_r>
   1af70:	00852783          	lw	a5,8(a0)
   1af74:	02f12e23          	sw	a5,60(sp)
   1af78:	000a8463          	beqz	s5,1af80 <_svfprintf_r+0x1cc>
   1af7c:	5040106f          	j	1c480 <_svfprintf_r+0x16cc>
   1af80:	0004ce03          	lbu	t3,0(s1)
   1af84:	f95ff06f          	j	1af18 <_svfprintf_r+0x164>
   1af88:	02096913          	ori	s2,s2,32
   1af8c:	0004ce03          	lbu	t3,0(s1)
   1af90:	f89ff06f          	j	1af18 <_svfprintf_r+0x164>
   1af94:	419904b3          	sub	s1,s2,s9
   1af98:	f4048ee3          	beqz	s1,1aef4 <_svfprintf_r+0x140>
   1af9c:	f19ff06f          	j	1aeb4 <_svfprintf_r+0x100>
   1afa0:	00812583          	lw	a1,8(sp)
   1afa4:	0e410613          	addi	a2,sp,228
   1afa8:	000a0513          	mv	a0,s4
   1afac:	394040ef          	jal	ra,1f340 <__ssprint_r>
   1afb0:	02051a63          	bnez	a0,1afe4 <_svfprintf_r+0x230>
   1afb4:	10c10d13          	addi	s10,sp,268
   1afb8:	f29ff06f          	j	1aee0 <_svfprintf_r+0x12c>
   1afbc:	00812583          	lw	a1,8(sp)
   1afc0:	0e410613          	addi	a2,sp,228
   1afc4:	000a0513          	mv	a0,s4
   1afc8:	378040ef          	jal	ra,1f340 <__ssprint_r>
   1afcc:	040506e3          	beqz	a0,1b818 <_svfprintf_r+0xa64>
   1afd0:	00c12783          	lw	a5,12(sp)
   1afd4:	00078863          	beqz	a5,1afe4 <_svfprintf_r+0x230>
   1afd8:	00c12583          	lw	a1,12(sp)
   1afdc:	02412503          	lw	a0,36(sp)
   1afe0:	f05f90ef          	jal	ra,14ee4 <_free_r>
   1afe4:	00812783          	lw	a5,8(sp)
   1afe8:	00c7d783          	lhu	a5,12(a5)
   1afec:	0407f793          	andi	a5,a5,64
   1aff0:	00078463          	beqz	a5,1aff8 <_svfprintf_r+0x244>
   1aff4:	56c0206f          	j	1d560 <_svfprintf_r+0x27ac>
   1aff8:	1ec12083          	lw	ra,492(sp)
   1affc:	1e812403          	lw	s0,488(sp)
   1b000:	00412503          	lw	a0,4(sp)
   1b004:	1e412483          	lw	s1,484(sp)
   1b008:	1e012903          	lw	s2,480(sp)
   1b00c:	1dc12983          	lw	s3,476(sp)
   1b010:	1d812a03          	lw	s4,472(sp)
   1b014:	1d412a83          	lw	s5,468(sp)
   1b018:	1d012b03          	lw	s6,464(sp)
   1b01c:	1cc12b83          	lw	s7,460(sp)
   1b020:	1c812c03          	lw	s8,456(sp)
   1b024:	1c412c83          	lw	s9,452(sp)
   1b028:	1c012d03          	lw	s10,448(sp)
   1b02c:	1bc12d83          	lw	s11,444(sp)
   1b030:	1f010113          	addi	sp,sp,496
   1b034:	00008067          	ret
   1b038:	0000a797          	auipc	a5,0xa
   1b03c:	aa078793          	addi	a5,a5,-1376 # 24ad8 <zeroes.4505+0x20>
   1b040:	02f12623          	sw	a5,44(sp)
   1b044:	02097793          	andi	a5,s2,32
   1b048:	000c0313          	mv	t1,s8
   1b04c:	10078063          	beqz	a5,1b14c <_svfprintf_r+0x398>
   1b050:	01012783          	lw	a5,16(sp)
   1b054:	00778793          	addi	a5,a5,7
   1b058:	ff87f793          	andi	a5,a5,-8
   1b05c:	0007ac03          	lw	s8,0(a5)
   1b060:	0047ad83          	lw	s11,4(a5)
   1b064:	00878713          	addi	a4,a5,8
   1b068:	00e12823          	sw	a4,16(sp)
   1b06c:	00197793          	andi	a5,s2,1
   1b070:	00078863          	beqz	a5,1b080 <_svfprintf_r+0x2cc>
   1b074:	01bc67b3          	or	a5,s8,s11
   1b078:	00078463          	beqz	a5,1b080 <_svfprintf_r+0x2cc>
   1b07c:	3e80106f          	j	1c464 <_svfprintf_r+0x16b0>
   1b080:	bff97993          	andi	s3,s2,-1025
   1b084:	00200793          	li	a5,2
   1b088:	0c0103a3          	sb	zero,199(sp)
   1b08c:	fff00713          	li	a4,-1
   1b090:	0ee308e3          	beq	t1,a4,1b980 <_svfprintf_r+0xbcc>
   1b094:	01bc6733          	or	a4,s8,s11
   1b098:	f7f9f913          	andi	s2,s3,-129
   1b09c:	00070463          	beqz	a4,1b0a4 <_svfprintf_r+0x2f0>
   1b0a0:	7bd0006f          	j	1c05c <_svfprintf_r+0x12a8>
   1b0a4:	2e0310e3          	bnez	t1,1bb84 <_svfprintf_r+0xdd0>
   1b0a8:	62079a63          	bnez	a5,1b6dc <_svfprintf_r+0x928>
   1b0ac:	0019fb13          	andi	s6,s3,1
   1b0b0:	1b010c93          	addi	s9,sp,432
   1b0b4:	000b0463          	beqz	s6,1b0bc <_svfprintf_r+0x308>
   1b0b8:	36c0106f          	j	1c424 <_svfprintf_r+0x1670>
   1b0bc:	000b0993          	mv	s3,s6
   1b0c0:	006b5463          	bge	s6,t1,1b0c8 <_svfprintf_r+0x314>
   1b0c4:	00030993          	mv	s3,t1
   1b0c8:	0c714703          	lbu	a4,199(sp)
   1b0cc:	00012623          	sw	zero,12(sp)
   1b0d0:	02012023          	sw	zero,32(sp)
   1b0d4:	00012e23          	sw	zero,28(sp)
   1b0d8:	00012a23          	sw	zero,20(sp)
   1b0dc:	64070463          	beqz	a4,1b724 <_svfprintf_r+0x970>
   1b0e0:	00198993          	addi	s3,s3,1
   1b0e4:	6400006f          	j	1b724 <_svfprintf_r+0x970>
   1b0e8:	00000413          	li	s0,0
   1b0ec:	fd0a8693          	addi	a3,s5,-48
   1b0f0:	00148493          	addi	s1,s1,1
   1b0f4:	00241793          	slli	a5,s0,0x2
   1b0f8:	fff4ca83          	lbu	s5,-1(s1)
   1b0fc:	008787b3          	add	a5,a5,s0
   1b100:	00179793          	slli	a5,a5,0x1
   1b104:	00f68433          	add	s0,a3,a5
   1b108:	fd0a8693          	addi	a3,s5,-48
   1b10c:	fed9f2e3          	bgeu	s3,a3,1b0f0 <_svfprintf_r+0x33c>
   1b110:	fe0a8793          	addi	a5,s5,-32
   1b114:	e0f77ce3          	bgeu	a4,a5,1af2c <_svfprintf_r+0x178>
   1b118:	100a8863          	beqz	s5,1b228 <_svfprintf_r+0x474>
   1b11c:	15510623          	sb	s5,332(sp)
   1b120:	0c0103a3          	sb	zero,199(sp)
   1b124:	00100993          	li	s3,1
   1b128:	00100b13          	li	s6,1
   1b12c:	14c10c93          	addi	s9,sp,332
   1b130:	5e00006f          	j	1b710 <_svfprintf_r+0x95c>
   1b134:	0000a797          	auipc	a5,0xa
   1b138:	9b878793          	addi	a5,a5,-1608 # 24aec <zeroes.4505+0x34>
   1b13c:	02f12623          	sw	a5,44(sp)
   1b140:	02097793          	andi	a5,s2,32
   1b144:	000c0313          	mv	t1,s8
   1b148:	f00794e3          	bnez	a5,1b050 <_svfprintf_r+0x29c>
   1b14c:	01012703          	lw	a4,16(sp)
   1b150:	01097793          	andi	a5,s2,16
   1b154:	00072c03          	lw	s8,0(a4)
   1b158:	00470713          	addi	a4,a4,4
   1b15c:	00e12823          	sw	a4,16(sp)
   1b160:	00078463          	beqz	a5,1b168 <_svfprintf_r+0x3b4>
   1b164:	2d80106f          	j	1c43c <_svfprintf_r+0x1688>
   1b168:	04097793          	andi	a5,s2,64
   1b16c:	00079463          	bnez	a5,1b174 <_svfprintf_r+0x3c0>
   1b170:	2c40106f          	j	1c434 <_svfprintf_r+0x1680>
   1b174:	010c1c13          	slli	s8,s8,0x10
   1b178:	010c5c13          	srli	s8,s8,0x10
   1b17c:	00000d93          	li	s11,0
   1b180:	eedff06f          	j	1b06c <_svfprintf_r+0x2b8>
   1b184:	0004ce03          	lbu	t3,0(s1)
   1b188:	00496913          	ori	s2,s2,4
   1b18c:	d8dff06f          	j	1af18 <_svfprintf_r+0x164>
   1b190:	02097793          	andi	a5,s2,32
   1b194:	000c0313          	mv	t1,s8
   1b198:	140796e3          	bnez	a5,1bae4 <_svfprintf_r+0xd30>
   1b19c:	01012683          	lw	a3,16(sp)
   1b1a0:	01097713          	andi	a4,s2,16
   1b1a4:	00468793          	addi	a5,a3,4
   1b1a8:	0006ac03          	lw	s8,0(a3)
   1b1ac:	4c071263          	bnez	a4,1b670 <_svfprintf_r+0x8bc>
   1b1b0:	04097713          	andi	a4,s2,64
   1b1b4:	00071463          	bnez	a4,1b1bc <_svfprintf_r+0x408>
   1b1b8:	1a90106f          	j	1cb60 <_svfprintf_r+0x1dac>
   1b1bc:	010c1c13          	slli	s8,s8,0x10
   1b1c0:	010c5c13          	srli	s8,s8,0x10
   1b1c4:	00000d93          	li	s11,0
   1b1c8:	00f12823          	sw	a5,16(sp)
   1b1cc:	1350006f          	j	1bb00 <_svfprintf_r+0xd4c>
   1b1d0:	01012683          	lw	a3,16(sp)
   1b1d4:	02097793          	andi	a5,s2,32
   1b1d8:	00468713          	addi	a4,a3,4
   1b1dc:	00078463          	beqz	a5,1b1e4 <_svfprintf_r+0x430>
   1b1e0:	2640106f          	j	1c444 <_svfprintf_r+0x1690>
   1b1e4:	01097793          	andi	a5,s2,16
   1b1e8:	00078463          	beqz	a5,1b1f0 <_svfprintf_r+0x43c>
   1b1ec:	0450106f          	j	1ca30 <_svfprintf_r+0x1c7c>
   1b1f0:	04097793          	andi	a5,s2,64
   1b1f4:	00078463          	beqz	a5,1b1fc <_svfprintf_r+0x448>
   1b1f8:	2710106f          	j	1cc68 <_svfprintf_r+0x1eb4>
   1b1fc:	20097913          	andi	s2,s2,512
   1b200:	00091463          	bnez	s2,1b208 <_svfprintf_r+0x454>
   1b204:	02d0106f          	j	1ca30 <_svfprintf_r+0x1c7c>
   1b208:	01012783          	lw	a5,16(sp)
   1b20c:	00e12823          	sw	a4,16(sp)
   1b210:	00412703          	lw	a4,4(sp)
   1b214:	0007a783          	lw	a5,0(a5)
   1b218:	00048c93          	mv	s9,s1
   1b21c:	00e78023          	sb	a4,0(a5)
   1b220:	000cc703          	lbu	a4,0(s9)
   1b224:	c60710e3          	bnez	a4,1ae84 <_svfprintf_r+0xd0>
   1b228:	0ec12783          	lw	a5,236(sp)
   1b22c:	da078ce3          	beqz	a5,1afe4 <_svfprintf_r+0x230>
   1b230:	00812403          	lw	s0,8(sp)
   1b234:	02412503          	lw	a0,36(sp)
   1b238:	0e410613          	addi	a2,sp,228
   1b23c:	00040593          	mv	a1,s0
   1b240:	100040ef          	jal	ra,1f340 <__ssprint_r>
   1b244:	00c45783          	lhu	a5,12(s0)
   1b248:	da5ff06f          	j	1afec <_svfprintf_r+0x238>
   1b24c:	0004ce03          	lbu	t3,0(s1)
   1b250:	06c00793          	li	a5,108
   1b254:	00fe1463          	bne	t3,a5,1b25c <_svfprintf_r+0x4a8>
   1b258:	2c00106f          	j	1c518 <_svfprintf_r+0x1764>
   1b25c:	01096913          	ori	s2,s2,16
   1b260:	cb9ff06f          	j	1af18 <_svfprintf_r+0x164>
   1b264:	0004ce03          	lbu	t3,0(s1)
   1b268:	06800793          	li	a5,104
   1b26c:	00fe1463          	bne	t3,a5,1b274 <_svfprintf_r+0x4c0>
   1b270:	2980106f          	j	1c508 <_svfprintf_r+0x1754>
   1b274:	04096913          	ori	s2,s2,64
   1b278:	ca1ff06f          	j	1af18 <_svfprintf_r+0x164>
   1b27c:	01012703          	lw	a4,16(sp)
   1b280:	ffff87b7          	lui	a5,0xffff8
   1b284:	8307c793          	xori	a5,a5,-2000
   1b288:	0cf11423          	sh	a5,200(sp)
   1b28c:	00470793          	addi	a5,a4,4
   1b290:	00f12823          	sw	a5,16(sp)
   1b294:	0000a797          	auipc	a5,0xa
   1b298:	84478793          	addi	a5,a5,-1980 # 24ad8 <zeroes.4505+0x20>
   1b29c:	000c0313          	mv	t1,s8
   1b2a0:	02f12623          	sw	a5,44(sp)
   1b2a4:	00072c03          	lw	s8,0(a4)
   1b2a8:	00000d93          	li	s11,0
   1b2ac:	00296993          	ori	s3,s2,2
   1b2b0:	00200793          	li	a5,2
   1b2b4:	07800a93          	li	s5,120
   1b2b8:	dd1ff06f          	j	1b088 <_svfprintf_r+0x2d4>
   1b2bc:	00897713          	andi	a4,s2,8
   1b2c0:	000c0313          	mv	t1,s8
   1b2c4:	00070463          	beqz	a4,1b2cc <_svfprintf_r+0x518>
   1b2c8:	1dc0106f          	j	1c4a4 <_svfprintf_r+0x16f0>
   1b2cc:	01012783          	lw	a5,16(sp)
   1b2d0:	0b010513          	addi	a0,sp,176
   1b2d4:	01812623          	sw	s8,12(sp)
   1b2d8:	00778793          	addi	a5,a5,7
   1b2dc:	ff87f793          	andi	a5,a5,-8
   1b2e0:	0007a583          	lw	a1,0(a5)
   1b2e4:	0047a603          	lw	a2,4(a5)
   1b2e8:	00878793          	addi	a5,a5,8
   1b2ec:	00f12823          	sw	a5,16(sp)
   1b2f0:	6ed080ef          	jal	ra,241dc <__extenddftf2>
   1b2f4:	0b012703          	lw	a4,176(sp)
   1b2f8:	00c12303          	lw	t1,12(sp)
   1b2fc:	0ee12823          	sw	a4,240(sp)
   1b300:	0b412703          	lw	a4,180(sp)
   1b304:	0ee12a23          	sw	a4,244(sp)
   1b308:	0b812703          	lw	a4,184(sp)
   1b30c:	0ee12c23          	sw	a4,248(sp)
   1b310:	0bc12703          	lw	a4,188(sp)
   1b314:	0ee12e23          	sw	a4,252(sp)
   1b318:	0f010513          	addi	a0,sp,240
   1b31c:	00612623          	sw	t1,12(sp)
   1b320:	fc1fc0ef          	jal	ra,182e0 <_ldcheck>
   1b324:	0ca12623          	sw	a0,204(sp)
   1b328:	00200713          	li	a4,2
   1b32c:	00c12303          	lw	t1,12(sp)
   1b330:	00e51463          	bne	a0,a4,1b338 <_svfprintf_r+0x584>
   1b334:	67c0106f          	j	1c9b0 <_svfprintf_r+0x1bfc>
   1b338:	00100713          	li	a4,1
   1b33c:	00e51463          	bne	a0,a4,1b344 <_svfprintf_r+0x590>
   1b340:	05d0106f          	j	1cb9c <_svfprintf_r+0x1de8>
   1b344:	06100713          	li	a4,97
   1b348:	00ea9463          	bne	s5,a4,1b350 <_svfprintf_r+0x59c>
   1b34c:	12c0206f          	j	1d478 <_svfprintf_r+0x26c4>
   1b350:	04100713          	li	a4,65
   1b354:	00ea9463          	bne	s5,a4,1b35c <_svfprintf_r+0x5a8>
   1b358:	4b90106f          	j	1d010 <_svfprintf_r+0x225c>
   1b35c:	fdfaf793          	andi	a5,s5,-33
   1b360:	fff00713          	li	a4,-1
   1b364:	04f12423          	sw	a5,72(sp)
   1b368:	00e31463          	bne	t1,a4,1b370 <_svfprintf_r+0x5bc>
   1b36c:	1a10106f          	j	1cd0c <_svfprintf_r+0x1f58>
   1b370:	04700713          	li	a4,71
   1b374:	00e79463          	bne	a5,a4,1b37c <_svfprintf_r+0x5c8>
   1b378:	1d80206f          	j	1d550 <_svfprintf_r+0x279c>
   1b37c:	0fc12b03          	lw	s6,252(sp)
   1b380:	05212a23          	sw	s2,84(sp)
   1b384:	10096713          	ori	a4,s2,256
   1b388:	0f012f03          	lw	t5,240(sp)
   1b38c:	0f412d83          	lw	s11,244(sp)
   1b390:	0f812e83          	lw	t4,248(sp)
   1b394:	000b5463          	bgez	s6,1b39c <_svfprintf_r+0x5e8>
   1b398:	0400206f          	j	1d3d8 <_svfprintf_r+0x2624>
   1b39c:	04012e23          	sw	zero,92(sp)
   1b3a0:	00070913          	mv	s2,a4
   1b3a4:	00012623          	sw	zero,12(sp)
   1b3a8:	04812703          	lw	a4,72(sp)
   1b3ac:	04600793          	li	a5,70
   1b3b0:	00f71463          	bne	a4,a5,1b3b8 <_svfprintf_r+0x604>
   1b3b4:	2a90106f          	j	1ce5c <_svfprintf_r+0x20a8>
   1b3b8:	04500793          	li	a5,69
   1b3bc:	00f71463          	bne	a4,a5,1b3c4 <_svfprintf_r+0x610>
   1b3c0:	0c80206f          	j	1d488 <_svfprintf_r+0x26d4>
   1b3c4:	0b010c13          	addi	s8,sp,176
   1b3c8:	0d010793          	addi	a5,sp,208
   1b3cc:	0cc10713          	addi	a4,sp,204
   1b3d0:	00030693          	mv	a3,t1
   1b3d4:	0dc10813          	addi	a6,sp,220
   1b3d8:	00200613          	li	a2,2
   1b3dc:	000c0593          	mv	a1,s8
   1b3e0:	000a0513          	mv	a0,s4
   1b3e4:	00612e23          	sw	t1,28(sp)
   1b3e8:	0be12823          	sw	t5,176(sp)
   1b3ec:	01e12c23          	sw	t5,24(sp)
   1b3f0:	0bd12c23          	sw	t4,184(sp)
   1b3f4:	01d12a23          	sw	t4,20(sp)
   1b3f8:	0bb12a23          	sw	s11,180(sp)
   1b3fc:	0b612e23          	sw	s6,188(sp)
   1b400:	bedfb0ef          	jal	ra,16fec <_ldtoa_r>
   1b404:	04812783          	lw	a5,72(sp)
   1b408:	04700713          	li	a4,71
   1b40c:	00050c93          	mv	s9,a0
   1b410:	01412e83          	lw	t4,20(sp)
   1b414:	01812f03          	lw	t5,24(sp)
   1b418:	01c12303          	lw	t1,28(sp)
   1b41c:	00e78463          	beq	a5,a4,1b424 <_svfprintf_r+0x670>
   1b420:	4140206f          	j	1d834 <_svfprintf_r+0x2a80>
   1b424:	05412783          	lw	a5,84(sp)
   1b428:	0017f713          	andi	a4,a5,1
   1b42c:	00070463          	beqz	a4,1b434 <_svfprintf_r+0x680>
   1b430:	1100206f          	j	1d540 <_svfprintf_r+0x278c>
   1b434:	0dc12703          	lw	a4,220(sp)
   1b438:	419707b3          	sub	a5,a4,s9
   1b43c:	00f12c23          	sw	a5,24(sp)
   1b440:	0cc12783          	lw	a5,204(sp)
   1b444:	04700713          	li	a4,71
   1b448:	00f12a23          	sw	a5,20(sp)
   1b44c:	04812783          	lw	a5,72(sp)
   1b450:	00e79463          	bne	a5,a4,1b458 <_svfprintf_r+0x6a4>
   1b454:	0f90106f          	j	1cd4c <_svfprintf_r+0x1f98>
   1b458:	04812783          	lw	a5,72(sp)
   1b45c:	04600713          	li	a4,70
   1b460:	00e79463          	bne	a5,a4,1b468 <_svfprintf_r+0x6b4>
   1b464:	3890106f          	j	1cfec <_svfprintf_r+0x2238>
   1b468:	01412783          	lw	a5,20(sp)
   1b46c:	04100593          	li	a1,65
   1b470:	0ffaf693          	andi	a3,s5,255
   1b474:	fff78713          	addi	a4,a5,-1
   1b478:	04812783          	lw	a5,72(sp)
   1b47c:	0ce12623          	sw	a4,204(sp)
   1b480:	00000613          	li	a2,0
   1b484:	00b79863          	bne	a5,a1,1b494 <_svfprintf_r+0x6e0>
   1b488:	00f68693          	addi	a3,a3,15
   1b48c:	0ff6f693          	andi	a3,a3,255
   1b490:	00100613          	li	a2,1
   1b494:	0cd10a23          	sb	a3,212(sp)
   1b498:	02b00693          	li	a3,43
   1b49c:	00075a63          	bgez	a4,1b4b0 <_svfprintf_r+0x6fc>
   1b4a0:	01412783          	lw	a5,20(sp)
   1b4a4:	00100713          	li	a4,1
   1b4a8:	02d00693          	li	a3,45
   1b4ac:	40f70733          	sub	a4,a4,a5
   1b4b0:	0cd10aa3          	sb	a3,213(sp)
   1b4b4:	00900693          	li	a3,9
   1b4b8:	00e6c463          	blt	a3,a4,1b4c0 <_svfprintf_r+0x70c>
   1b4bc:	2440206f          	j	1d700 <_svfprintf_r+0x294c>
   1b4c0:	0e310813          	addi	a6,sp,227
   1b4c4:	00080613          	mv	a2,a6
   1b4c8:	00a00513          	li	a0,10
   1b4cc:	06300313          	li	t1,99
   1b4d0:	00c0006f          	j	1b4dc <_svfprintf_r+0x728>
   1b4d4:	00058613          	mv	a2,a1
   1b4d8:	00068713          	mv	a4,a3
   1b4dc:	02a767b3          	rem	a5,a4,a0
   1b4e0:	fff60593          	addi	a1,a2,-1
   1b4e4:	03078793          	addi	a5,a5,48
   1b4e8:	fef60fa3          	sb	a5,-1(a2)
   1b4ec:	02a746b3          	div	a3,a4,a0
   1b4f0:	fee342e3          	blt	t1,a4,1b4d4 <_svfprintf_r+0x720>
   1b4f4:	03068713          	addi	a4,a3,48
   1b4f8:	0ff77713          	andi	a4,a4,255
   1b4fc:	ffe60693          	addi	a3,a2,-2
   1b500:	fee58fa3          	sb	a4,-1(a1)
   1b504:	0106e463          	bltu	a3,a6,1b50c <_svfprintf_r+0x758>
   1b508:	3340206f          	j	1d83c <_svfprintf_r+0x2a88>
   1b50c:	0d610593          	addi	a1,sp,214
   1b510:	0080006f          	j	1b518 <_svfprintf_r+0x764>
   1b514:	0006c703          	lbu	a4,0(a3)
   1b518:	00158593          	addi	a1,a1,1
   1b51c:	00168693          	addi	a3,a3,1
   1b520:	fee58fa3          	sb	a4,-1(a1)
   1b524:	ff0698e3          	bne	a3,a6,1b514 <_svfprintf_r+0x760>
   1b528:	0e510713          	addi	a4,sp,229
   1b52c:	0d610793          	addi	a5,sp,214
   1b530:	40c70733          	sub	a4,a4,a2
   1b534:	00e78733          	add	a4,a5,a4
   1b538:	0d410693          	addi	a3,sp,212
   1b53c:	40d707b3          	sub	a5,a4,a3
   1b540:	02f12c23          	sw	a5,56(sp)
   1b544:	01812783          	lw	a5,24(sp)
   1b548:	03812683          	lw	a3,56(sp)
   1b54c:	00100713          	li	a4,1
   1b550:	00d78b33          	add	s6,a5,a3
   1b554:	00f74463          	blt	a4,a5,1b55c <_svfprintf_r+0x7a8>
   1b558:	2600206f          	j	1d7b8 <_svfprintf_r+0x2a04>
   1b55c:	02812783          	lw	a5,40(sp)
   1b560:	00fb0b33          	add	s6,s6,a5
   1b564:	05412783          	lw	a5,84(sp)
   1b568:	fffb4993          	not	s3,s6
   1b56c:	41f9d993          	srai	s3,s3,0x1f
   1b570:	bff7f913          	andi	s2,a5,-1025
   1b574:	10096913          	ori	s2,s2,256
   1b578:	013b79b3          	and	s3,s6,s3
   1b57c:	02012023          	sw	zero,32(sp)
   1b580:	00012e23          	sw	zero,28(sp)
   1b584:	00012a23          	sw	zero,20(sp)
   1b588:	05c12783          	lw	a5,92(sp)
   1b58c:	00079463          	bnez	a5,1b594 <_svfprintf_r+0x7e0>
   1b590:	0310106f          	j	1cdc0 <_svfprintf_r+0x200c>
   1b594:	02d00713          	li	a4,45
   1b598:	0ce103a3          	sb	a4,199(sp)
   1b59c:	00000313          	li	t1,0
   1b5a0:	00198993          	addi	s3,s3,1
   1b5a4:	1800006f          	j	1b724 <_svfprintf_r+0x970>
   1b5a8:	02097793          	andi	a5,s2,32
   1b5ac:	000c0313          	mv	t1,s8
   1b5b0:	01096993          	ori	s3,s2,16
   1b5b4:	54079e63          	bnez	a5,1bb10 <_svfprintf_r+0xd5c>
   1b5b8:	01012783          	lw	a5,16(sp)
   1b5bc:	00478793          	addi	a5,a5,4
   1b5c0:	01012703          	lw	a4,16(sp)
   1b5c4:	00000d93          	li	s11,0
   1b5c8:	00f12823          	sw	a5,16(sp)
   1b5cc:	00072c03          	lw	s8,0(a4)
   1b5d0:	00100793          	li	a5,1
   1b5d4:	ab5ff06f          	j	1b088 <_svfprintf_r+0x2d4>
   1b5d8:	01012783          	lw	a5,16(sp)
   1b5dc:	0c0103a3          	sb	zero,199(sp)
   1b5e0:	000c0313          	mv	t1,s8
   1b5e4:	0007ac83          	lw	s9,0(a5)
   1b5e8:	00478c13          	addi	s8,a5,4
   1b5ec:	760c86e3          	beqz	s9,1c558 <_svfprintf_r+0x17a4>
   1b5f0:	fff00713          	li	a4,-1
   1b5f4:	00e31463          	bne	t1,a4,1b5fc <_svfprintf_r+0x848>
   1b5f8:	4540106f          	j	1ca4c <_svfprintf_r+0x1c98>
   1b5fc:	00030613          	mv	a2,t1
   1b600:	00000593          	li	a1,0
   1b604:	000c8513          	mv	a0,s9
   1b608:	00612823          	sw	t1,16(sp)
   1b60c:	865fd0ef          	jal	ra,18e70 <memchr>
   1b610:	00a12623          	sw	a0,12(sp)
   1b614:	01012303          	lw	t1,16(sp)
   1b618:	00051463          	bnez	a0,1b620 <_svfprintf_r+0x86c>
   1b61c:	1410106f          	j	1cf5c <_svfprintf_r+0x21a8>
   1b620:	00c12783          	lw	a5,12(sp)
   1b624:	41978b33          	sub	s6,a5,s9
   1b628:	0c714703          	lbu	a4,199(sp)
   1b62c:	fffb4993          	not	s3,s6
   1b630:	41f9d993          	srai	s3,s3,0x1f
   1b634:	01812823          	sw	s8,16(sp)
   1b638:	00012623          	sw	zero,12(sp)
   1b63c:	02012023          	sw	zero,32(sp)
   1b640:	00012e23          	sw	zero,28(sp)
   1b644:	00012a23          	sw	zero,20(sp)
   1b648:	013b79b3          	and	s3,s6,s3
   1b64c:	00000313          	li	t1,0
   1b650:	a80718e3          	bnez	a4,1b0e0 <_svfprintf_r+0x32c>
   1b654:	0d00006f          	j	1b724 <_svfprintf_r+0x970>
   1b658:	02097793          	andi	a5,s2,32
   1b65c:	000c0313          	mv	t1,s8
   1b660:	01096913          	ori	s2,s2,16
   1b664:	48079063          	bnez	a5,1bae4 <_svfprintf_r+0xd30>
   1b668:	01012783          	lw	a5,16(sp)
   1b66c:	00478793          	addi	a5,a5,4
   1b670:	01012703          	lw	a4,16(sp)
   1b674:	00000d93          	li	s11,0
   1b678:	00f12823          	sw	a5,16(sp)
   1b67c:	00072c03          	lw	s8,0(a4)
   1b680:	4800006f          	j	1bb00 <_svfprintf_r+0xd4c>
   1b684:	00896913          	ori	s2,s2,8
   1b688:	0004ce03          	lbu	t3,0(s1)
   1b68c:	88dff06f          	j	1af18 <_svfprintf_r+0x164>
   1b690:	02097793          	andi	a5,s2,32
   1b694:	000c0313          	mv	t1,s8
   1b698:	01096993          	ori	s3,s2,16
   1b69c:	48079e63          	bnez	a5,1bb38 <_svfprintf_r+0xd84>
   1b6a0:	01012783          	lw	a5,16(sp)
   1b6a4:	00478793          	addi	a5,a5,4
   1b6a8:	01012703          	lw	a4,16(sp)
   1b6ac:	00f12823          	sw	a5,16(sp)
   1b6b0:	00072c03          	lw	s8,0(a4)
   1b6b4:	41fc5d93          	srai	s11,s8,0x1f
   1b6b8:	000d8713          	mv	a4,s11
   1b6bc:	2a074063          	bltz	a4,1b95c <_svfprintf_r+0xba8>
   1b6c0:	fff00793          	li	a5,-1
   1b6c4:	48f30e63          	beq	t1,a5,1bb60 <_svfprintf_r+0xdac>
   1b6c8:	01bc67b3          	or	a5,s8,s11
   1b6cc:	f7f9f913          	andi	s2,s3,-129
   1b6d0:	48079663          	bnez	a5,1bb5c <_svfprintf_r+0xda8>
   1b6d4:	00030463          	beqz	t1,1b6dc <_svfprintf_r+0x928>
   1b6d8:	63c0106f          	j	1cd14 <_svfprintf_r+0x1f60>
   1b6dc:	00000313          	li	t1,0
   1b6e0:	00000b13          	li	s6,0
   1b6e4:	1b010c93          	addi	s9,sp,432
   1b6e8:	9d5ff06f          	j	1b0bc <_svfprintf_r+0x308>
   1b6ec:	01012703          	lw	a4,16(sp)
   1b6f0:	0c0103a3          	sb	zero,199(sp)
   1b6f4:	00100993          	li	s3,1
   1b6f8:	00072783          	lw	a5,0(a4)
   1b6fc:	00470713          	addi	a4,a4,4
   1b700:	00e12823          	sw	a4,16(sp)
   1b704:	14f10623          	sb	a5,332(sp)
   1b708:	00100b13          	li	s6,1
   1b70c:	14c10c93          	addi	s9,sp,332
   1b710:	00012623          	sw	zero,12(sp)
   1b714:	00000313          	li	t1,0
   1b718:	02012023          	sw	zero,32(sp)
   1b71c:	00012e23          	sw	zero,28(sp)
   1b720:	00012a23          	sw	zero,20(sp)
   1b724:	00297f93          	andi	t6,s2,2
   1b728:	000f8463          	beqz	t6,1b730 <_svfprintf_r+0x97c>
   1b72c:	00298993          	addi	s3,s3,2
   1b730:	08497d93          	andi	s11,s2,132
   1b734:	0ec12703          	lw	a4,236(sp)
   1b738:	000d9663          	bnez	s11,1b744 <_svfprintf_r+0x990>
   1b73c:	41340833          	sub	a6,s0,s3
   1b740:	130042e3          	bgtz	a6,1c064 <_svfprintf_r+0x12b0>
   1b744:	0c714683          	lbu	a3,199(sp)
   1b748:	02068a63          	beqz	a3,1b77c <_svfprintf_r+0x9c8>
   1b74c:	0e812683          	lw	a3,232(sp)
   1b750:	0c710613          	addi	a2,sp,199
   1b754:	00cd2023          	sw	a2,0(s10)
   1b758:	00170713          	addi	a4,a4,1
   1b75c:	00100613          	li	a2,1
   1b760:	00168693          	addi	a3,a3,1
   1b764:	00cd2223          	sw	a2,4(s10)
   1b768:	0ee12623          	sw	a4,236(sp)
   1b76c:	0ed12423          	sw	a3,232(sp)
   1b770:	00700613          	li	a2,7
   1b774:	008d0d13          	addi	s10,s10,8
   1b778:	0cd64263          	blt	a2,a3,1b83c <_svfprintf_r+0xa88>
   1b77c:	020f8a63          	beqz	t6,1b7b0 <_svfprintf_r+0x9fc>
   1b780:	0e812683          	lw	a3,232(sp)
   1b784:	0c810613          	addi	a2,sp,200
   1b788:	00cd2023          	sw	a2,0(s10)
   1b78c:	00270713          	addi	a4,a4,2
   1b790:	00200613          	li	a2,2
   1b794:	00168693          	addi	a3,a3,1
   1b798:	00cd2223          	sw	a2,4(s10)
   1b79c:	0ee12623          	sw	a4,236(sp)
   1b7a0:	0ed12423          	sw	a3,232(sp)
   1b7a4:	00700613          	li	a2,7
   1b7a8:	008d0d13          	addi	s10,s10,8
   1b7ac:	1cd64ee3          	blt	a2,a3,1c188 <_svfprintf_r+0x13d4>
   1b7b0:	08000693          	li	a3,128
   1b7b4:	56dd8a63          	beq	s11,a3,1bd28 <_svfprintf_r+0xf74>
   1b7b8:	41630c33          	sub	s8,t1,s6
   1b7bc:	67804c63          	bgtz	s8,1be34 <_svfprintf_r+0x1080>
   1b7c0:	10097693          	andi	a3,s2,256
   1b7c4:	40069e63          	bnez	a3,1bbe0 <_svfprintf_r+0xe2c>
   1b7c8:	0e812783          	lw	a5,232(sp)
   1b7cc:	01670733          	add	a4,a4,s6
   1b7d0:	019d2023          	sw	s9,0(s10)
   1b7d4:	00178793          	addi	a5,a5,1
   1b7d8:	016d2223          	sw	s6,4(s10)
   1b7dc:	0ee12623          	sw	a4,236(sp)
   1b7e0:	0ef12423          	sw	a5,232(sp)
   1b7e4:	00700693          	li	a3,7
   1b7e8:	008d0d13          	addi	s10,s10,8
   1b7ec:	04f6c6e3          	blt	a3,a5,1c038 <_svfprintf_r+0x1284>
   1b7f0:	00497913          	andi	s2,s2,4
   1b7f4:	00090663          	beqz	s2,1b800 <_svfprintf_r+0xa4c>
   1b7f8:	41340933          	sub	s2,s0,s3
   1b7fc:	07204863          	bgtz	s2,1b86c <_svfprintf_r+0xab8>
   1b800:	01345463          	bge	s0,s3,1b808 <_svfprintf_r+0xa54>
   1b804:	00098413          	mv	s0,s3
   1b808:	00412783          	lw	a5,4(sp)
   1b80c:	008787b3          	add	a5,a5,s0
   1b810:	00f12223          	sw	a5,4(sp)
   1b814:	fa071463          	bnez	a4,1afbc <_svfprintf_r+0x208>
   1b818:	00c12783          	lw	a5,12(sp)
   1b81c:	0e012423          	sw	zero,232(sp)
   1b820:	00078863          	beqz	a5,1b830 <_svfprintf_r+0xa7c>
   1b824:	00c12583          	lw	a1,12(sp)
   1b828:	000a0513          	mv	a0,s4
   1b82c:	eb8f90ef          	jal	ra,14ee4 <_free_r>
   1b830:	10c10d13          	addi	s10,sp,268
   1b834:	00048c93          	mv	s9,s1
   1b838:	9e9ff06f          	j	1b220 <_svfprintf_r+0x46c>
   1b83c:	00812583          	lw	a1,8(sp)
   1b840:	0e410613          	addi	a2,sp,228
   1b844:	000a0513          	mv	a0,s4
   1b848:	04612423          	sw	t1,72(sp)
   1b84c:	03f12a23          	sw	t6,52(sp)
   1b850:	2f1030ef          	jal	ra,1f340 <__ssprint_r>
   1b854:	f6051e63          	bnez	a0,1afd0 <_svfprintf_r+0x21c>
   1b858:	0ec12703          	lw	a4,236(sp)
   1b85c:	10c10d13          	addi	s10,sp,268
   1b860:	04812303          	lw	t1,72(sp)
   1b864:	03412f83          	lw	t6,52(sp)
   1b868:	f15ff06f          	j	1b77c <_svfprintf_r+0x9c8>
   1b86c:	0e812783          	lw	a5,232(sp)
   1b870:	00009c17          	auipc	s8,0x9
   1b874:	7bcc0c13          	addi	s8,s8,1980 # 2502c <blanks.4489>
   1b878:	072bd063          	bge	s7,s2,1b8d8 <_svfprintf_r+0xb24>
   1b87c:	00700b13          	li	s6,7
   1b880:	00812a83          	lw	s5,8(sp)
   1b884:	00c0006f          	j	1b890 <_svfprintf_r+0xadc>
   1b888:	ff090913          	addi	s2,s2,-16
   1b88c:	052bd663          	bge	s7,s2,1b8d8 <_svfprintf_r+0xb24>
   1b890:	01070713          	addi	a4,a4,16
   1b894:	00178793          	addi	a5,a5,1
   1b898:	018d2023          	sw	s8,0(s10)
   1b89c:	017d2223          	sw	s7,4(s10)
   1b8a0:	0ee12623          	sw	a4,236(sp)
   1b8a4:	0ef12423          	sw	a5,232(sp)
   1b8a8:	008d0d13          	addi	s10,s10,8
   1b8ac:	fcfb5ee3          	bge	s6,a5,1b888 <_svfprintf_r+0xad4>
   1b8b0:	0e410613          	addi	a2,sp,228
   1b8b4:	000a8593          	mv	a1,s5
   1b8b8:	000a0513          	mv	a0,s4
   1b8bc:	285030ef          	jal	ra,1f340 <__ssprint_r>
   1b8c0:	f0051863          	bnez	a0,1afd0 <_svfprintf_r+0x21c>
   1b8c4:	ff090913          	addi	s2,s2,-16
   1b8c8:	0ec12703          	lw	a4,236(sp)
   1b8cc:	0e812783          	lw	a5,232(sp)
   1b8d0:	10c10d13          	addi	s10,sp,268
   1b8d4:	fb2bcee3          	blt	s7,s2,1b890 <_svfprintf_r+0xadc>
   1b8d8:	01270733          	add	a4,a4,s2
   1b8dc:	00178793          	addi	a5,a5,1
   1b8e0:	018d2023          	sw	s8,0(s10)
   1b8e4:	012d2223          	sw	s2,4(s10)
   1b8e8:	0ee12623          	sw	a4,236(sp)
   1b8ec:	0ef12423          	sw	a5,232(sp)
   1b8f0:	00700693          	li	a3,7
   1b8f4:	f0f6d6e3          	bge	a3,a5,1b800 <_svfprintf_r+0xa4c>
   1b8f8:	00812583          	lw	a1,8(sp)
   1b8fc:	0e410613          	addi	a2,sp,228
   1b900:	000a0513          	mv	a0,s4
   1b904:	23d030ef          	jal	ra,1f340 <__ssprint_r>
   1b908:	ec051463          	bnez	a0,1afd0 <_svfprintf_r+0x21c>
   1b90c:	0ec12703          	lw	a4,236(sp)
   1b910:	ef1ff06f          	j	1b800 <_svfprintf_r+0xa4c>
   1b914:	02097793          	andi	a5,s2,32
   1b918:	000c0313          	mv	t1,s8
   1b91c:	20079c63          	bnez	a5,1bb34 <_svfprintf_r+0xd80>
   1b920:	01012783          	lw	a5,16(sp)
   1b924:	01097713          	andi	a4,s2,16
   1b928:	00478793          	addi	a5,a5,4
   1b92c:	00070463          	beqz	a4,1b934 <_svfprintf_r+0xb80>
   1b930:	6fd0106f          	j	1d82c <_svfprintf_r+0x2a78>
   1b934:	04097713          	andi	a4,s2,64
   1b938:	00071463          	bnez	a4,1b940 <_svfprintf_r+0xb8c>
   1b93c:	23c0106f          	j	1cb78 <_svfprintf_r+0x1dc4>
   1b940:	01012703          	lw	a4,16(sp)
   1b944:	00f12823          	sw	a5,16(sp)
   1b948:	00090993          	mv	s3,s2
   1b94c:	00071c03          	lh	s8,0(a4)
   1b950:	41fc5d93          	srai	s11,s8,0x1f
   1b954:	000d8713          	mv	a4,s11
   1b958:	d60754e3          	bgez	a4,1b6c0 <_svfprintf_r+0x90c>
   1b95c:	41800c33          	neg	s8,s8
   1b960:	018037b3          	snez	a5,s8
   1b964:	41b00db3          	neg	s11,s11
   1b968:	40fd8db3          	sub	s11,s11,a5
   1b96c:	02d00793          	li	a5,45
   1b970:	0cf103a3          	sb	a5,199(sp)
   1b974:	fff00713          	li	a4,-1
   1b978:	00100793          	li	a5,1
   1b97c:	f0e31c63          	bne	t1,a4,1b094 <_svfprintf_r+0x2e0>
   1b980:	00100713          	li	a4,1
   1b984:	1ce78e63          	beq	a5,a4,1bb60 <_svfprintf_r+0xdac>
   1b988:	00200713          	li	a4,2
   1b98c:	20e78863          	beq	a5,a4,1bb9c <_svfprintf_r+0xde8>
   1b990:	1b010693          	addi	a3,sp,432
   1b994:	0080006f          	j	1b99c <_svfprintf_r+0xbe8>
   1b998:	000c8693          	mv	a3,s9
   1b99c:	01dd9793          	slli	a5,s11,0x1d
   1b9a0:	007c7713          	andi	a4,s8,7
   1b9a4:	003c5c13          	srli	s8,s8,0x3
   1b9a8:	03070713          	addi	a4,a4,48
   1b9ac:	0187ec33          	or	s8,a5,s8
   1b9b0:	003ddd93          	srli	s11,s11,0x3
   1b9b4:	fee68fa3          	sb	a4,-1(a3)
   1b9b8:	01bc67b3          	or	a5,s8,s11
   1b9bc:	fff68c93          	addi	s9,a3,-1
   1b9c0:	fc079ce3          	bnez	a5,1b998 <_svfprintf_r+0xbe4>
   1b9c4:	0019f613          	andi	a2,s3,1
   1b9c8:	20060463          	beqz	a2,1bbd0 <_svfprintf_r+0xe1c>
   1b9cc:	03000613          	li	a2,48
   1b9d0:	20c70063          	beq	a4,a2,1bbd0 <_svfprintf_r+0xe1c>
   1b9d4:	ffe68693          	addi	a3,a3,-2
   1b9d8:	1b010793          	addi	a5,sp,432
   1b9dc:	fecc8fa3          	sb	a2,-1(s9)
   1b9e0:	40d78b33          	sub	s6,a5,a3
   1b9e4:	00098913          	mv	s2,s3
   1b9e8:	00068c93          	mv	s9,a3
   1b9ec:	ed0ff06f          	j	1b0bc <_svfprintf_r+0x308>
   1b9f0:	02b00793          	li	a5,43
   1b9f4:	0cf103a3          	sb	a5,199(sp)
   1b9f8:	0004ce03          	lbu	t3,0(s1)
   1b9fc:	d1cff06f          	j	1af18 <_svfprintf_r+0x164>
   1ba00:	01012783          	lw	a5,16(sp)
   1ba04:	0004ce03          	lbu	t3,0(s1)
   1ba08:	0007a403          	lw	s0,0(a5)
   1ba0c:	00478793          	addi	a5,a5,4
   1ba10:	00f12823          	sw	a5,16(sp)
   1ba14:	d0045263          	bgez	s0,1af18 <_svfprintf_r+0x164>
   1ba18:	40800433          	neg	s0,s0
   1ba1c:	00496913          	ori	s2,s2,4
   1ba20:	cf8ff06f          	j	1af18 <_svfprintf_r+0x164>
   1ba24:	08096913          	ori	s2,s2,128
   1ba28:	0004ce03          	lbu	t3,0(s1)
   1ba2c:	cecff06f          	j	1af18 <_svfprintf_r+0x164>
   1ba30:	0004ca83          	lbu	s5,0(s1)
   1ba34:	00148793          	addi	a5,s1,1
   1ba38:	016a9463          	bne	s5,s6,1ba40 <_svfprintf_r+0xc8c>
   1ba3c:	5cd0106f          	j	1d808 <_svfprintf_r+0x2a54>
   1ba40:	fd0a8693          	addi	a3,s5,-48
   1ba44:	00078493          	mv	s1,a5
   1ba48:	00000c13          	li	s8,0
   1ba4c:	ccd9ec63          	bltu	s3,a3,1af24 <_svfprintf_r+0x170>
   1ba50:	00148493          	addi	s1,s1,1
   1ba54:	002c1793          	slli	a5,s8,0x2
   1ba58:	fff4ca83          	lbu	s5,-1(s1)
   1ba5c:	018787b3          	add	a5,a5,s8
   1ba60:	00179793          	slli	a5,a5,0x1
   1ba64:	00d78c33          	add	s8,a5,a3
   1ba68:	fd0a8693          	addi	a3,s5,-48
   1ba6c:	fed9f2e3          	bgeu	s3,a3,1ba50 <_svfprintf_r+0xc9c>
   1ba70:	cb4ff06f          	j	1af24 <_svfprintf_r+0x170>
   1ba74:	00196913          	ori	s2,s2,1
   1ba78:	0004ce03          	lbu	t3,0(s1)
   1ba7c:	c9cff06f          	j	1af18 <_svfprintf_r+0x164>
   1ba80:	0c714783          	lbu	a5,199(sp)
   1ba84:	0004ce03          	lbu	t3,0(s1)
   1ba88:	c8079863          	bnez	a5,1af18 <_svfprintf_r+0x164>
   1ba8c:	02000793          	li	a5,32
   1ba90:	0cf103a3          	sb	a5,199(sp)
   1ba94:	c84ff06f          	j	1af18 <_svfprintf_r+0x164>
   1ba98:	02097793          	andi	a5,s2,32
   1ba9c:	000c0313          	mv	t1,s8
   1baa0:	06079663          	bnez	a5,1bb0c <_svfprintf_r+0xd58>
   1baa4:	01012683          	lw	a3,16(sp)
   1baa8:	01097713          	andi	a4,s2,16
   1baac:	00468793          	addi	a5,a3,4
   1bab0:	0006ac03          	lw	s8,0(a3)
   1bab4:	00070463          	beqz	a4,1babc <_svfprintf_r+0xd08>
   1bab8:	5a90106f          	j	1d860 <_svfprintf_r+0x2aac>
   1babc:	04097713          	andi	a4,s2,64
   1bac0:	00071463          	bnez	a4,1bac8 <_svfprintf_r+0xd14>
   1bac4:	07c0106f          	j	1cb40 <_svfprintf_r+0x1d8c>
   1bac8:	010c1c13          	slli	s8,s8,0x10
   1bacc:	00f12823          	sw	a5,16(sp)
   1bad0:	010c5c13          	srli	s8,s8,0x10
   1bad4:	00000d93          	li	s11,0
   1bad8:	00090993          	mv	s3,s2
   1badc:	00100793          	li	a5,1
   1bae0:	da8ff06f          	j	1b088 <_svfprintf_r+0x2d4>
   1bae4:	01012783          	lw	a5,16(sp)
   1bae8:	00778793          	addi	a5,a5,7
   1baec:	ff87f793          	andi	a5,a5,-8
   1baf0:	0007ac03          	lw	s8,0(a5)
   1baf4:	0047ad83          	lw	s11,4(a5)
   1baf8:	00878713          	addi	a4,a5,8
   1bafc:	00e12823          	sw	a4,16(sp)
   1bb00:	bff97993          	andi	s3,s2,-1025
   1bb04:	00000793          	li	a5,0
   1bb08:	d80ff06f          	j	1b088 <_svfprintf_r+0x2d4>
   1bb0c:	00090993          	mv	s3,s2
   1bb10:	01012783          	lw	a5,16(sp)
   1bb14:	00778793          	addi	a5,a5,7
   1bb18:	ff87f793          	andi	a5,a5,-8
   1bb1c:	00878713          	addi	a4,a5,8
   1bb20:	0007ac03          	lw	s8,0(a5)
   1bb24:	0047ad83          	lw	s11,4(a5)
   1bb28:	00e12823          	sw	a4,16(sp)
   1bb2c:	00100793          	li	a5,1
   1bb30:	d58ff06f          	j	1b088 <_svfprintf_r+0x2d4>
   1bb34:	00090993          	mv	s3,s2
   1bb38:	01012783          	lw	a5,16(sp)
   1bb3c:	00778793          	addi	a5,a5,7
   1bb40:	ff87f793          	andi	a5,a5,-8
   1bb44:	0047a703          	lw	a4,4(a5)
   1bb48:	00878693          	addi	a3,a5,8
   1bb4c:	00d12823          	sw	a3,16(sp)
   1bb50:	0007ac03          	lw	s8,0(a5)
   1bb54:	00070d93          	mv	s11,a4
   1bb58:	b65ff06f          	j	1b6bc <_svfprintf_r+0x908>
   1bb5c:	00090993          	mv	s3,s2
   1bb60:	540d90e3          	bnez	s11,1c8a0 <_svfprintf_r+0x1aec>
   1bb64:	00900793          	li	a5,9
   1bb68:	5387ece3          	bltu	a5,s8,1c8a0 <_svfprintf_r+0x1aec>
   1bb6c:	030c0c13          	addi	s8,s8,48
   1bb70:	1b8107a3          	sb	s8,431(sp)
   1bb74:	00098913          	mv	s2,s3
   1bb78:	00100b13          	li	s6,1
   1bb7c:	1af10c93          	addi	s9,sp,431
   1bb80:	d3cff06f          	j	1b0bc <_svfprintf_r+0x308>
   1bb84:	00100713          	li	a4,1
   1bb88:	00e79463          	bne	a5,a4,1bb90 <_svfprintf_r+0xddc>
   1bb8c:	1880106f          	j	1cd14 <_svfprintf_r+0x1f60>
   1bb90:	00200713          	li	a4,2
   1bb94:	00090993          	mv	s3,s2
   1bb98:	dee79ce3          	bne	a5,a4,1b990 <_svfprintf_r+0xbdc>
   1bb9c:	02c12683          	lw	a3,44(sp)
   1bba0:	1b010c93          	addi	s9,sp,432
   1bba4:	00fc7793          	andi	a5,s8,15
   1bba8:	00f687b3          	add	a5,a3,a5
   1bbac:	0007c783          	lbu	a5,0(a5)
   1bbb0:	01cd9713          	slli	a4,s11,0x1c
   1bbb4:	004c5c13          	srli	s8,s8,0x4
   1bbb8:	fffc8c93          	addi	s9,s9,-1
   1bbbc:	01876c33          	or	s8,a4,s8
   1bbc0:	004ddd93          	srli	s11,s11,0x4
   1bbc4:	00fc8023          	sb	a5,0(s9)
   1bbc8:	01bc67b3          	or	a5,s8,s11
   1bbcc:	fc079ce3          	bnez	a5,1bba4 <_svfprintf_r+0xdf0>
   1bbd0:	1b010793          	addi	a5,sp,432
   1bbd4:	41978b33          	sub	s6,a5,s9
   1bbd8:	00098913          	mv	s2,s3
   1bbdc:	ce0ff06f          	j	1b0bc <_svfprintf_r+0x308>
   1bbe0:	06500693          	li	a3,101
   1bbe4:	3356d863          	bge	a3,s5,1bf14 <_svfprintf_r+0x1160>
   1bbe8:	0f012683          	lw	a3,240(sp)
   1bbec:	0a010593          	addi	a1,sp,160
   1bbf0:	0b010513          	addi	a0,sp,176
   1bbf4:	0ad12823          	sw	a3,176(sp)
   1bbf8:	0f412683          	lw	a3,244(sp)
   1bbfc:	02e12a23          	sw	a4,52(sp)
   1bc00:	0a012023          	sw	zero,160(sp)
   1bc04:	0ad12a23          	sw	a3,180(sp)
   1bc08:	0f812683          	lw	a3,248(sp)
   1bc0c:	0a012223          	sw	zero,164(sp)
   1bc10:	0a012423          	sw	zero,168(sp)
   1bc14:	0ad12c23          	sw	a3,184(sp)
   1bc18:	0fc12683          	lw	a3,252(sp)
   1bc1c:	0a012623          	sw	zero,172(sp)
   1bc20:	0ad12e23          	sw	a3,188(sp)
   1bc24:	261050ef          	jal	ra,21684 <__eqtf2>
   1bc28:	03412703          	lw	a4,52(sp)
   1bc2c:	58051463          	bnez	a0,1c1b4 <_svfprintf_r+0x1400>
   1bc30:	0e812783          	lw	a5,232(sp)
   1bc34:	00009697          	auipc	a3,0x9
   1bc38:	ed468693          	addi	a3,a3,-300 # 24b08 <zeroes.4505+0x50>
   1bc3c:	00170713          	addi	a4,a4,1
   1bc40:	00dd2023          	sw	a3,0(s10)
   1bc44:	00178793          	addi	a5,a5,1
   1bc48:	00100693          	li	a3,1
   1bc4c:	00dd2223          	sw	a3,4(s10)
   1bc50:	0ee12623          	sw	a4,236(sp)
   1bc54:	0ef12423          	sw	a5,232(sp)
   1bc58:	00700713          	li	a4,7
   1bc5c:	008d0d13          	addi	s10,s10,8
   1bc60:	42f740e3          	blt	a4,a5,1c880 <_svfprintf_r+0x1acc>
   1bc64:	0cc12783          	lw	a5,204(sp)
   1bc68:	01812703          	lw	a4,24(sp)
   1bc6c:	00e7ca63          	blt	a5,a4,1bc80 <_svfprintf_r+0xecc>
   1bc70:	00197793          	andi	a5,s2,1
   1bc74:	00079663          	bnez	a5,1bc80 <_svfprintf_r+0xecc>
   1bc78:	0ec12703          	lw	a4,236(sp)
   1bc7c:	b75ff06f          	j	1b7f0 <_svfprintf_r+0xa3c>
   1bc80:	03012783          	lw	a5,48(sp)
   1bc84:	02812683          	lw	a3,40(sp)
   1bc88:	0ec12703          	lw	a4,236(sp)
   1bc8c:	00fd2023          	sw	a5,0(s10)
   1bc90:	0e812783          	lw	a5,232(sp)
   1bc94:	00e68733          	add	a4,a3,a4
   1bc98:	00dd2223          	sw	a3,4(s10)
   1bc9c:	00178793          	addi	a5,a5,1
   1bca0:	0ee12623          	sw	a4,236(sp)
   1bca4:	0ef12423          	sw	a5,232(sp)
   1bca8:	00700693          	li	a3,7
   1bcac:	008d0d13          	addi	s10,s10,8
   1bcb0:	02f6cae3          	blt	a3,a5,1c4e4 <_svfprintf_r+0x1730>
   1bcb4:	01812783          	lw	a5,24(sp)
   1bcb8:	fff78b13          	addi	s6,a5,-1
   1bcbc:	b3605ae3          	blez	s6,1b7f0 <_svfprintf_r+0xa3c>
   1bcc0:	0e812783          	lw	a5,232(sp)
   1bcc4:	4b6bd6e3          	bge	s7,s6,1c970 <_svfprintf_r+0x1bbc>
   1bcc8:	00700c13          	li	s8,7
   1bccc:	00812a83          	lw	s5,8(sp)
   1bcd0:	00c0006f          	j	1bcdc <_svfprintf_r+0xf28>
   1bcd4:	ff0b0b13          	addi	s6,s6,-16
   1bcd8:	496bdce3          	bge	s7,s6,1c970 <_svfprintf_r+0x1bbc>
   1bcdc:	01070713          	addi	a4,a4,16
   1bce0:	00178793          	addi	a5,a5,1
   1bce4:	00009697          	auipc	a3,0x9
   1bce8:	35868693          	addi	a3,a3,856 # 2503c <zeroes.4490>
   1bcec:	00dd2023          	sw	a3,0(s10)
   1bcf0:	017d2223          	sw	s7,4(s10)
   1bcf4:	0ee12623          	sw	a4,236(sp)
   1bcf8:	0ef12423          	sw	a5,232(sp)
   1bcfc:	008d0d13          	addi	s10,s10,8
   1bd00:	fcfc5ae3          	bge	s8,a5,1bcd4 <_svfprintf_r+0xf20>
   1bd04:	0e410613          	addi	a2,sp,228
   1bd08:	000a8593          	mv	a1,s5
   1bd0c:	000a0513          	mv	a0,s4
   1bd10:	630030ef          	jal	ra,1f340 <__ssprint_r>
   1bd14:	aa051e63          	bnez	a0,1afd0 <_svfprintf_r+0x21c>
   1bd18:	0ec12703          	lw	a4,236(sp)
   1bd1c:	0e812783          	lw	a5,232(sp)
   1bd20:	10c10d13          	addi	s10,sp,268
   1bd24:	fb1ff06f          	j	1bcd4 <_svfprintf_r+0xf20>
   1bd28:	41340c33          	sub	s8,s0,s3
   1bd2c:	a98056e3          	blez	s8,1b7b8 <_svfprintf_r+0xa04>
   1bd30:	0e812683          	lw	a3,232(sp)
   1bd34:	0b8bd463          	bge	s7,s8,1bddc <_svfprintf_r+0x1028>
   1bd38:	02912a23          	sw	s1,52(sp)
   1bd3c:	000d0793          	mv	a5,s10
   1bd40:	000c0493          	mv	s1,s8
   1bd44:	000c8d13          	mv	s10,s9
   1bd48:	00098c13          	mv	s8,s3
   1bd4c:	000b0c93          	mv	s9,s6
   1bd50:	00040993          	mv	s3,s0
   1bd54:	00700d93          	li	s11,7
   1bd58:	00812403          	lw	s0,8(sp)
   1bd5c:	00030b13          	mv	s6,t1
   1bd60:	00c0006f          	j	1bd6c <_svfprintf_r+0xfb8>
   1bd64:	ff048493          	addi	s1,s1,-16
   1bd68:	049bda63          	bge	s7,s1,1bdbc <_svfprintf_r+0x1008>
   1bd6c:	01070713          	addi	a4,a4,16
   1bd70:	00168693          	addi	a3,a3,1
   1bd74:	00009617          	auipc	a2,0x9
   1bd78:	2c860613          	addi	a2,a2,712 # 2503c <zeroes.4490>
   1bd7c:	00c7a023          	sw	a2,0(a5)
   1bd80:	0177a223          	sw	s7,4(a5)
   1bd84:	0ee12623          	sw	a4,236(sp)
   1bd88:	0ed12423          	sw	a3,232(sp)
   1bd8c:	00878793          	addi	a5,a5,8
   1bd90:	fcdddae3          	bge	s11,a3,1bd64 <_svfprintf_r+0xfb0>
   1bd94:	0e410613          	addi	a2,sp,228
   1bd98:	00040593          	mv	a1,s0
   1bd9c:	000a0513          	mv	a0,s4
   1bda0:	5a0030ef          	jal	ra,1f340 <__ssprint_r>
   1bda4:	a2051663          	bnez	a0,1afd0 <_svfprintf_r+0x21c>
   1bda8:	ff048493          	addi	s1,s1,-16
   1bdac:	0ec12703          	lw	a4,236(sp)
   1bdb0:	0e812683          	lw	a3,232(sp)
   1bdb4:	10c10793          	addi	a5,sp,268
   1bdb8:	fa9bcae3          	blt	s7,s1,1bd6c <_svfprintf_r+0xfb8>
   1bdbc:	00098413          	mv	s0,s3
   1bdc0:	000c0993          	mv	s3,s8
   1bdc4:	00048c13          	mv	s8,s1
   1bdc8:	03412483          	lw	s1,52(sp)
   1bdcc:	000b0313          	mv	t1,s6
   1bdd0:	000c8b13          	mv	s6,s9
   1bdd4:	000d0c93          	mv	s9,s10
   1bdd8:	00078d13          	mv	s10,a5
   1bddc:	01870733          	add	a4,a4,s8
   1bde0:	00168693          	addi	a3,a3,1
   1bde4:	00009797          	auipc	a5,0x9
   1bde8:	25878793          	addi	a5,a5,600 # 2503c <zeroes.4490>
   1bdec:	00fd2023          	sw	a5,0(s10)
   1bdf0:	018d2223          	sw	s8,4(s10)
   1bdf4:	0ee12623          	sw	a4,236(sp)
   1bdf8:	0ed12423          	sw	a3,232(sp)
   1bdfc:	00700613          	li	a2,7
   1be00:	008d0d13          	addi	s10,s10,8
   1be04:	9ad65ae3          	bge	a2,a3,1b7b8 <_svfprintf_r+0xa04>
   1be08:	00812583          	lw	a1,8(sp)
   1be0c:	0e410613          	addi	a2,sp,228
   1be10:	000a0513          	mv	a0,s4
   1be14:	02612a23          	sw	t1,52(sp)
   1be18:	528030ef          	jal	ra,1f340 <__ssprint_r>
   1be1c:	9a051a63          	bnez	a0,1afd0 <_svfprintf_r+0x21c>
   1be20:	03412303          	lw	t1,52(sp)
   1be24:	0ec12703          	lw	a4,236(sp)
   1be28:	10c10d13          	addi	s10,sp,268
   1be2c:	41630c33          	sub	s8,t1,s6
   1be30:	998058e3          	blez	s8,1b7c0 <_svfprintf_r+0xa0c>
   1be34:	0e812683          	lw	a3,232(sp)
   1be38:	098bd863          	bge	s7,s8,1bec8 <_svfprintf_r+0x1114>
   1be3c:	02912a23          	sw	s1,52(sp)
   1be40:	00700d93          	li	s11,7
   1be44:	000c0493          	mv	s1,s8
   1be48:	000b0c13          	mv	s8,s6
   1be4c:	00098b13          	mv	s6,s3
   1be50:	00040993          	mv	s3,s0
   1be54:	00812403          	lw	s0,8(sp)
   1be58:	00c0006f          	j	1be64 <_svfprintf_r+0x10b0>
   1be5c:	ff048493          	addi	s1,s1,-16
   1be60:	049bda63          	bge	s7,s1,1beb4 <_svfprintf_r+0x1100>
   1be64:	01070713          	addi	a4,a4,16
   1be68:	00168693          	addi	a3,a3,1
   1be6c:	00009797          	auipc	a5,0x9
   1be70:	1d078793          	addi	a5,a5,464 # 2503c <zeroes.4490>
   1be74:	00fd2023          	sw	a5,0(s10)
   1be78:	017d2223          	sw	s7,4(s10)
   1be7c:	0ee12623          	sw	a4,236(sp)
   1be80:	0ed12423          	sw	a3,232(sp)
   1be84:	008d0d13          	addi	s10,s10,8
   1be88:	fcdddae3          	bge	s11,a3,1be5c <_svfprintf_r+0x10a8>
   1be8c:	0e410613          	addi	a2,sp,228
   1be90:	00040593          	mv	a1,s0
   1be94:	000a0513          	mv	a0,s4
   1be98:	4a8030ef          	jal	ra,1f340 <__ssprint_r>
   1be9c:	92051a63          	bnez	a0,1afd0 <_svfprintf_r+0x21c>
   1bea0:	ff048493          	addi	s1,s1,-16
   1bea4:	0ec12703          	lw	a4,236(sp)
   1bea8:	0e812683          	lw	a3,232(sp)
   1beac:	10c10d13          	addi	s10,sp,268
   1beb0:	fa9bcae3          	blt	s7,s1,1be64 <_svfprintf_r+0x10b0>
   1beb4:	00098413          	mv	s0,s3
   1beb8:	000b0993          	mv	s3,s6
   1bebc:	000c0b13          	mv	s6,s8
   1bec0:	00048c13          	mv	s8,s1
   1bec4:	03412483          	lw	s1,52(sp)
   1bec8:	01870733          	add	a4,a4,s8
   1becc:	00168693          	addi	a3,a3,1
   1bed0:	00009797          	auipc	a5,0x9
   1bed4:	16c78793          	addi	a5,a5,364 # 2503c <zeroes.4490>
   1bed8:	00fd2023          	sw	a5,0(s10)
   1bedc:	018d2223          	sw	s8,4(s10)
   1bee0:	0ee12623          	sw	a4,236(sp)
   1bee4:	0ed12423          	sw	a3,232(sp)
   1bee8:	00700613          	li	a2,7
   1beec:	008d0d13          	addi	s10,s10,8
   1bef0:	8cd658e3          	bge	a2,a3,1b7c0 <_svfprintf_r+0xa0c>
   1bef4:	00812583          	lw	a1,8(sp)
   1bef8:	0e410613          	addi	a2,sp,228
   1befc:	000a0513          	mv	a0,s4
   1bf00:	440030ef          	jal	ra,1f340 <__ssprint_r>
   1bf04:	8c051663          	bnez	a0,1afd0 <_svfprintf_r+0x21c>
   1bf08:	0ec12703          	lw	a4,236(sp)
   1bf0c:	10c10d13          	addi	s10,sp,268
   1bf10:	8b1ff06f          	j	1b7c0 <_svfprintf_r+0xa0c>
   1bf14:	0e812603          	lw	a2,232(sp)
   1bf18:	01812783          	lw	a5,24(sp)
   1bf1c:	00100693          	li	a3,1
   1bf20:	019d2023          	sw	s9,0(s10)
   1bf24:	00170713          	addi	a4,a4,1
   1bf28:	00160b13          	addi	s6,a2,1
   1bf2c:	008d0c13          	addi	s8,s10,8
   1bf30:	3ef6de63          	bge	a3,a5,1c32c <_svfprintf_r+0x1578>
   1bf34:	00100693          	li	a3,1
   1bf38:	00dd2223          	sw	a3,4(s10)
   1bf3c:	0ee12623          	sw	a4,236(sp)
   1bf40:	0f612423          	sw	s6,232(sp)
   1bf44:	00700693          	li	a3,7
   1bf48:	4966c663          	blt	a3,s6,1c3d4 <_svfprintf_r+0x1620>
   1bf4c:	02812783          	lw	a5,40(sp)
   1bf50:	03012683          	lw	a3,48(sp)
   1bf54:	001b0b13          	addi	s6,s6,1
   1bf58:	00f70733          	add	a4,a4,a5
   1bf5c:	00dc2023          	sw	a3,0(s8)
   1bf60:	00fc2223          	sw	a5,4(s8)
   1bf64:	0ee12623          	sw	a4,236(sp)
   1bf68:	0f612423          	sw	s6,232(sp)
   1bf6c:	00700693          	li	a3,7
   1bf70:	008c0c13          	addi	s8,s8,8
   1bf74:	4966c463          	blt	a3,s6,1c3fc <_svfprintf_r+0x1648>
   1bf78:	0f012683          	lw	a3,240(sp)
   1bf7c:	01812783          	lw	a5,24(sp)
   1bf80:	001b0813          	addi	a6,s6,1
   1bf84:	0ad12823          	sw	a3,176(sp)
   1bf88:	0f412683          	lw	a3,244(sp)
   1bf8c:	0a010593          	addi	a1,sp,160
   1bf90:	0b010513          	addi	a0,sp,176
   1bf94:	0ad12a23          	sw	a3,180(sp)
   1bf98:	0f812683          	lw	a3,248(sp)
   1bf9c:	02e12023          	sw	a4,32(sp)
   1bfa0:	00080a93          	mv	s5,a6
   1bfa4:	0ad12c23          	sw	a3,184(sp)
   1bfa8:	0fc12683          	lw	a3,252(sp)
   1bfac:	01012e23          	sw	a6,28(sp)
   1bfb0:	0a012023          	sw	zero,160(sp)
   1bfb4:	0ad12e23          	sw	a3,188(sp)
   1bfb8:	fff78693          	addi	a3,a5,-1
   1bfbc:	00d12a23          	sw	a3,20(sp)
   1bfc0:	0a012223          	sw	zero,164(sp)
   1bfc4:	0a012423          	sw	zero,168(sp)
   1bfc8:	0a012623          	sw	zero,172(sp)
   1bfcc:	6b8050ef          	jal	ra,21684 <__eqtf2>
   1bfd0:	008c0d13          	addi	s10,s8,8
   1bfd4:	01412683          	lw	a3,20(sp)
   1bfd8:	01c12803          	lw	a6,28(sp)
   1bfdc:	02012703          	lw	a4,32(sp)
   1bfe0:	36050a63          	beqz	a0,1c354 <_svfprintf_r+0x15a0>
   1bfe4:	001c8793          	addi	a5,s9,1
   1bfe8:	00d70733          	add	a4,a4,a3
   1bfec:	00fc2023          	sw	a5,0(s8)
   1bff0:	00dc2223          	sw	a3,4(s8)
   1bff4:	0ee12623          	sw	a4,236(sp)
   1bff8:	0f512423          	sw	s5,232(sp)
   1bffc:	00700793          	li	a5,7
   1c000:	7557cc63          	blt	a5,s5,1c758 <_svfprintf_r+0x19a4>
   1c004:	010c0793          	addi	a5,s8,16
   1c008:	002b0a93          	addi	s5,s6,2
   1c00c:	000d0c13          	mv	s8,s10
   1c010:	00078d13          	mv	s10,a5
   1c014:	03812683          	lw	a3,56(sp)
   1c018:	0d410793          	addi	a5,sp,212
   1c01c:	00fc2023          	sw	a5,0(s8)
   1c020:	00e68733          	add	a4,a3,a4
   1c024:	00dc2223          	sw	a3,4(s8)
   1c028:	0ee12623          	sw	a4,236(sp)
   1c02c:	0f512423          	sw	s5,232(sp)
   1c030:	00700793          	li	a5,7
   1c034:	fb57de63          	bge	a5,s5,1b7f0 <_svfprintf_r+0xa3c>
   1c038:	00812583          	lw	a1,8(sp)
   1c03c:	0e410613          	addi	a2,sp,228
   1c040:	000a0513          	mv	a0,s4
   1c044:	2fc030ef          	jal	ra,1f340 <__ssprint_r>
   1c048:	00050463          	beqz	a0,1c050 <_svfprintf_r+0x129c>
   1c04c:	f85fe06f          	j	1afd0 <_svfprintf_r+0x21c>
   1c050:	0ec12703          	lw	a4,236(sp)
   1c054:	10c10d13          	addi	s10,sp,268
   1c058:	f98ff06f          	j	1b7f0 <_svfprintf_r+0xa3c>
   1c05c:	00090993          	mv	s3,s2
   1c060:	921ff06f          	j	1b980 <_svfprintf_r+0xbcc>
   1c064:	0e812683          	lw	a3,232(sp)
   1c068:	00009c17          	auipc	s8,0x9
   1c06c:	fc4c0c13          	addi	s8,s8,-60 # 2502c <blanks.4489>
   1c070:	0d0bd063          	bge	s7,a6,1c130 <_svfprintf_r+0x137c>
   1c074:	04912423          	sw	s1,72(sp)
   1c078:	05212623          	sw	s2,76(sp)
   1c07c:	000d0793          	mv	a5,s10
   1c080:	000c0913          	mv	s2,s8
   1c084:	000c8d13          	mv	s10,s9
   1c088:	00098c13          	mv	s8,s3
   1c08c:	000b0c93          	mv	s9,s6
   1c090:	00040993          	mv	s3,s0
   1c094:	00700293          	li	t0,7
   1c098:	03f12a23          	sw	t6,52(sp)
   1c09c:	00812483          	lw	s1,8(sp)
   1c0a0:	00030b13          	mv	s6,t1
   1c0a4:	00080413          	mv	s0,a6
   1c0a8:	00c0006f          	j	1c0b4 <_svfprintf_r+0x1300>
   1c0ac:	ff040413          	addi	s0,s0,-16
   1c0b0:	048bda63          	bge	s7,s0,1c104 <_svfprintf_r+0x1350>
   1c0b4:	01070713          	addi	a4,a4,16
   1c0b8:	00168693          	addi	a3,a3,1
   1c0bc:	0127a023          	sw	s2,0(a5)
   1c0c0:	0177a223          	sw	s7,4(a5)
   1c0c4:	0ee12623          	sw	a4,236(sp)
   1c0c8:	0ed12423          	sw	a3,232(sp)
   1c0cc:	00878793          	addi	a5,a5,8
   1c0d0:	fcd2dee3          	bge	t0,a3,1c0ac <_svfprintf_r+0x12f8>
   1c0d4:	0e410613          	addi	a2,sp,228
   1c0d8:	00048593          	mv	a1,s1
   1c0dc:	000a0513          	mv	a0,s4
   1c0e0:	260030ef          	jal	ra,1f340 <__ssprint_r>
   1c0e4:	00050463          	beqz	a0,1c0ec <_svfprintf_r+0x1338>
   1c0e8:	ee9fe06f          	j	1afd0 <_svfprintf_r+0x21c>
   1c0ec:	ff040413          	addi	s0,s0,-16
   1c0f0:	0ec12703          	lw	a4,236(sp)
   1c0f4:	0e812683          	lw	a3,232(sp)
   1c0f8:	10c10793          	addi	a5,sp,268
   1c0fc:	00700293          	li	t0,7
   1c100:	fa8bcae3          	blt	s7,s0,1c0b4 <_svfprintf_r+0x1300>
   1c104:	00040813          	mv	a6,s0
   1c108:	03412f83          	lw	t6,52(sp)
   1c10c:	00098413          	mv	s0,s3
   1c110:	04812483          	lw	s1,72(sp)
   1c114:	000c0993          	mv	s3,s8
   1c118:	00090c13          	mv	s8,s2
   1c11c:	04c12903          	lw	s2,76(sp)
   1c120:	000b0313          	mv	t1,s6
   1c124:	000c8b13          	mv	s6,s9
   1c128:	000d0c93          	mv	s9,s10
   1c12c:	00078d13          	mv	s10,a5
   1c130:	01070733          	add	a4,a4,a6
   1c134:	00168693          	addi	a3,a3,1
   1c138:	018d2023          	sw	s8,0(s10)
   1c13c:	010d2223          	sw	a6,4(s10)
   1c140:	0ee12623          	sw	a4,236(sp)
   1c144:	0ed12423          	sw	a3,232(sp)
   1c148:	00700613          	li	a2,7
   1c14c:	008d0d13          	addi	s10,s10,8
   1c150:	ded65a63          	bge	a2,a3,1b744 <_svfprintf_r+0x990>
   1c154:	00812583          	lw	a1,8(sp)
   1c158:	0e410613          	addi	a2,sp,228
   1c15c:	000a0513          	mv	a0,s4
   1c160:	04612423          	sw	t1,72(sp)
   1c164:	03f12a23          	sw	t6,52(sp)
   1c168:	1d8030ef          	jal	ra,1f340 <__ssprint_r>
   1c16c:	00050463          	beqz	a0,1c174 <_svfprintf_r+0x13c0>
   1c170:	e61fe06f          	j	1afd0 <_svfprintf_r+0x21c>
   1c174:	0ec12703          	lw	a4,236(sp)
   1c178:	10c10d13          	addi	s10,sp,268
   1c17c:	04812303          	lw	t1,72(sp)
   1c180:	03412f83          	lw	t6,52(sp)
   1c184:	dc0ff06f          	j	1b744 <_svfprintf_r+0x990>
   1c188:	00812583          	lw	a1,8(sp)
   1c18c:	0e410613          	addi	a2,sp,228
   1c190:	000a0513          	mv	a0,s4
   1c194:	02612a23          	sw	t1,52(sp)
   1c198:	1a8030ef          	jal	ra,1f340 <__ssprint_r>
   1c19c:	00050463          	beqz	a0,1c1a4 <_svfprintf_r+0x13f0>
   1c1a0:	e31fe06f          	j	1afd0 <_svfprintf_r+0x21c>
   1c1a4:	0ec12703          	lw	a4,236(sp)
   1c1a8:	10c10d13          	addi	s10,sp,268
   1c1ac:	03412303          	lw	t1,52(sp)
   1c1b0:	e00ff06f          	j	1b7b0 <_svfprintf_r+0x9fc>
   1c1b4:	0cc12603          	lw	a2,204(sp)
   1c1b8:	5ec05a63          	blez	a2,1c7ac <_svfprintf_r+0x19f8>
   1c1bc:	01812783          	lw	a5,24(sp)
   1c1c0:	01412683          	lw	a3,20(sp)
   1c1c4:	00078b13          	mv	s6,a5
   1c1c8:	30f6c863          	blt	a3,a5,1c4d8 <_svfprintf_r+0x1724>
   1c1cc:	03605663          	blez	s6,1c1f8 <_svfprintf_r+0x1444>
   1c1d0:	0e812683          	lw	a3,232(sp)
   1c1d4:	01670733          	add	a4,a4,s6
   1c1d8:	019d2023          	sw	s9,0(s10)
   1c1dc:	00168693          	addi	a3,a3,1
   1c1e0:	016d2223          	sw	s6,4(s10)
   1c1e4:	0ee12623          	sw	a4,236(sp)
   1c1e8:	0ed12423          	sw	a3,232(sp)
   1c1ec:	00700613          	li	a2,7
   1c1f0:	008d0d13          	addi	s10,s10,8
   1c1f4:	22d646e3          	blt	a2,a3,1cc20 <_svfprintf_r+0x1e6c>
   1c1f8:	fffb4693          	not	a3,s6
   1c1fc:	01412783          	lw	a5,20(sp)
   1c200:	41f6d693          	srai	a3,a3,0x1f
   1c204:	00db7b33          	and	s6,s6,a3
   1c208:	41678b33          	sub	s6,a5,s6
   1c20c:	37604663          	bgtz	s6,1c578 <_svfprintf_r+0x17c4>
   1c210:	01412783          	lw	a5,20(sp)
   1c214:	40097693          	andi	a3,s2,1024
   1c218:	00fc8ab3          	add	s5,s9,a5
   1c21c:	3c069463          	bnez	a3,1c5e4 <_svfprintf_r+0x1830>
   1c220:	0cc12b03          	lw	s6,204(sp)
   1c224:	01812783          	lw	a5,24(sp)
   1c228:	00fb4663          	blt	s6,a5,1c234 <_svfprintf_r+0x1480>
   1c22c:	00197693          	andi	a3,s2,1
   1c230:	20068ee3          	beqz	a3,1cc4c <_svfprintf_r+0x1e98>
   1c234:	03012683          	lw	a3,48(sp)
   1c238:	02812783          	lw	a5,40(sp)
   1c23c:	00700613          	li	a2,7
   1c240:	00dd2023          	sw	a3,0(s10)
   1c244:	0e812683          	lw	a3,232(sp)
   1c248:	00f70733          	add	a4,a4,a5
   1c24c:	00fd2223          	sw	a5,4(s10)
   1c250:	00168693          	addi	a3,a3,1
   1c254:	0ee12623          	sw	a4,236(sp)
   1c258:	0ed12423          	sw	a3,232(sp)
   1c25c:	008d0d13          	addi	s10,s10,8
   1c260:	4cd64ae3          	blt	a2,a3,1cf34 <_svfprintf_r+0x2180>
   1c264:	01812683          	lw	a3,24(sp)
   1c268:	00dc87b3          	add	a5,s9,a3
   1c26c:	41668b33          	sub	s6,a3,s6
   1c270:	415787b3          	sub	a5,a5,s5
   1c274:	000b0c13          	mv	s8,s6
   1c278:	0167d463          	bge	a5,s6,1c280 <_svfprintf_r+0x14cc>
   1c27c:	00078c13          	mv	s8,a5
   1c280:	03805663          	blez	s8,1c2ac <_svfprintf_r+0x14f8>
   1c284:	0e812783          	lw	a5,232(sp)
   1c288:	01870733          	add	a4,a4,s8
   1c28c:	015d2023          	sw	s5,0(s10)
   1c290:	00178793          	addi	a5,a5,1
   1c294:	018d2223          	sw	s8,4(s10)
   1c298:	0ee12623          	sw	a4,236(sp)
   1c29c:	0ef12423          	sw	a5,232(sp)
   1c2a0:	00700693          	li	a3,7
   1c2a4:	008d0d13          	addi	s10,s10,8
   1c2a8:	4ef6c0e3          	blt	a3,a5,1cf88 <_svfprintf_r+0x21d4>
   1c2ac:	fffc4793          	not	a5,s8
   1c2b0:	41f7d793          	srai	a5,a5,0x1f
   1c2b4:	00fc7c33          	and	s8,s8,a5
   1c2b8:	418b0b33          	sub	s6,s6,s8
   1c2bc:	d3605a63          	blez	s6,1b7f0 <_svfprintf_r+0xa3c>
   1c2c0:	0e812783          	lw	a5,232(sp)
   1c2c4:	6b6bd663          	bge	s7,s6,1c970 <_svfprintf_r+0x1bbc>
   1c2c8:	00700c13          	li	s8,7
   1c2cc:	00812a83          	lw	s5,8(sp)
   1c2d0:	00c0006f          	j	1c2dc <_svfprintf_r+0x1528>
   1c2d4:	ff0b0b13          	addi	s6,s6,-16
   1c2d8:	696bdc63          	bge	s7,s6,1c970 <_svfprintf_r+0x1bbc>
   1c2dc:	01070713          	addi	a4,a4,16
   1c2e0:	00178793          	addi	a5,a5,1
   1c2e4:	00009697          	auipc	a3,0x9
   1c2e8:	d5868693          	addi	a3,a3,-680 # 2503c <zeroes.4490>
   1c2ec:	00dd2023          	sw	a3,0(s10)
   1c2f0:	017d2223          	sw	s7,4(s10)
   1c2f4:	0ee12623          	sw	a4,236(sp)
   1c2f8:	0ef12423          	sw	a5,232(sp)
   1c2fc:	008d0d13          	addi	s10,s10,8
   1c300:	fcfc5ae3          	bge	s8,a5,1c2d4 <_svfprintf_r+0x1520>
   1c304:	0e410613          	addi	a2,sp,228
   1c308:	000a8593          	mv	a1,s5
   1c30c:	000a0513          	mv	a0,s4
   1c310:	030030ef          	jal	ra,1f340 <__ssprint_r>
   1c314:	00050463          	beqz	a0,1c31c <_svfprintf_r+0x1568>
   1c318:	cb9fe06f          	j	1afd0 <_svfprintf_r+0x21c>
   1c31c:	0ec12703          	lw	a4,236(sp)
   1c320:	0e812783          	lw	a5,232(sp)
   1c324:	10c10d13          	addi	s10,sp,268
   1c328:	fadff06f          	j	1c2d4 <_svfprintf_r+0x1520>
   1c32c:	00197593          	andi	a1,s2,1
   1c330:	c00592e3          	bnez	a1,1bf34 <_svfprintf_r+0x1180>
   1c334:	00dd2223          	sw	a3,4(s10)
   1c338:	0ee12623          	sw	a4,236(sp)
   1c33c:	0f612423          	sw	s6,232(sp)
   1c340:	00700793          	li	a5,7
   1c344:	4167ca63          	blt	a5,s6,1c758 <_svfprintf_r+0x19a4>
   1c348:	00260a93          	addi	s5,a2,2
   1c34c:	010d0d13          	addi	s10,s10,16
   1c350:	cc5ff06f          	j	1c014 <_svfprintf_r+0x1260>
   1c354:	ccd050e3          	blez	a3,1c014 <_svfprintf_r+0x1260>
   1c358:	00dbc463          	blt	s7,a3,1c360 <_svfprintf_r+0x15ac>
   1c35c:	4700106f          	j	1d7cc <_svfprintf_r+0x2a18>
   1c360:	00700a93          	li	s5,7
   1c364:	00068d13          	mv	s10,a3
   1c368:	00812c83          	lw	s9,8(sp)
   1c36c:	00080b13          	mv	s6,a6
   1c370:	0100006f          	j	1c380 <_svfprintf_r+0x15cc>
   1c374:	ff0d0d13          	addi	s10,s10,-16
   1c378:	79abd463          	bge	s7,s10,1cb00 <_svfprintf_r+0x1d4c>
   1c37c:	001b0b13          	addi	s6,s6,1
   1c380:	01070713          	addi	a4,a4,16
   1c384:	00009797          	auipc	a5,0x9
   1c388:	cb878793          	addi	a5,a5,-840 # 2503c <zeroes.4490>
   1c38c:	00fc2023          	sw	a5,0(s8)
   1c390:	017c2223          	sw	s7,4(s8)
   1c394:	0ee12623          	sw	a4,236(sp)
   1c398:	0f612423          	sw	s6,232(sp)
   1c39c:	008c0c13          	addi	s8,s8,8
   1c3a0:	fd6adae3          	bge	s5,s6,1c374 <_svfprintf_r+0x15c0>
   1c3a4:	0e410613          	addi	a2,sp,228
   1c3a8:	000c8593          	mv	a1,s9
   1c3ac:	000a0513          	mv	a0,s4
   1c3b0:	791020ef          	jal	ra,1f340 <__ssprint_r>
   1c3b4:	00050463          	beqz	a0,1c3bc <_svfprintf_r+0x1608>
   1c3b8:	c19fe06f          	j	1afd0 <_svfprintf_r+0x21c>
   1c3bc:	0ec12703          	lw	a4,236(sp)
   1c3c0:	0e812b03          	lw	s6,232(sp)
   1c3c4:	10c10c13          	addi	s8,sp,268
   1c3c8:	fadff06f          	j	1c374 <_svfprintf_r+0x15c0>
   1c3cc:	000c8913          	mv	s2,s9
   1c3d0:	b25fe06f          	j	1aef4 <_svfprintf_r+0x140>
   1c3d4:	00812583          	lw	a1,8(sp)
   1c3d8:	0e410613          	addi	a2,sp,228
   1c3dc:	000a0513          	mv	a0,s4
   1c3e0:	761020ef          	jal	ra,1f340 <__ssprint_r>
   1c3e4:	00050463          	beqz	a0,1c3ec <_svfprintf_r+0x1638>
   1c3e8:	be9fe06f          	j	1afd0 <_svfprintf_r+0x21c>
   1c3ec:	0ec12703          	lw	a4,236(sp)
   1c3f0:	0e812b03          	lw	s6,232(sp)
   1c3f4:	10c10c13          	addi	s8,sp,268
   1c3f8:	b55ff06f          	j	1bf4c <_svfprintf_r+0x1198>
   1c3fc:	00812583          	lw	a1,8(sp)
   1c400:	0e410613          	addi	a2,sp,228
   1c404:	000a0513          	mv	a0,s4
   1c408:	739020ef          	jal	ra,1f340 <__ssprint_r>
   1c40c:	00050463          	beqz	a0,1c414 <_svfprintf_r+0x1660>
   1c410:	bc1fe06f          	j	1afd0 <_svfprintf_r+0x21c>
   1c414:	0ec12703          	lw	a4,236(sp)
   1c418:	0e812b03          	lw	s6,232(sp)
   1c41c:	10c10c13          	addi	s8,sp,268
   1c420:	b59ff06f          	j	1bf78 <_svfprintf_r+0x11c4>
   1c424:	03000793          	li	a5,48
   1c428:	1af107a3          	sb	a5,431(sp)
   1c42c:	1af10c93          	addi	s9,sp,431
   1c430:	c8dfe06f          	j	1b0bc <_svfprintf_r+0x308>
   1c434:	20097793          	andi	a5,s2,512
   1c438:	080794e3          	bnez	a5,1ccc0 <_svfprintf_r+0x1f0c>
   1c43c:	00000d93          	li	s11,0
   1c440:	c2dfe06f          	j	1b06c <_svfprintf_r+0x2b8>
   1c444:	00412603          	lw	a2,4(sp)
   1c448:	0006a783          	lw	a5,0(a3)
   1c44c:	00e12823          	sw	a4,16(sp)
   1c450:	41f65693          	srai	a3,a2,0x1f
   1c454:	00c7a023          	sw	a2,0(a5)
   1c458:	00d7a223          	sw	a3,4(a5)
   1c45c:	00048c93          	mv	s9,s1
   1c460:	dc1fe06f          	j	1b220 <_svfprintf_r+0x46c>
   1c464:	03000793          	li	a5,48
   1c468:	00296913          	ori	s2,s2,2
   1c46c:	0cf10423          	sb	a5,200(sp)
   1c470:	0d5104a3          	sb	s5,201(sp)
   1c474:	bff97993          	andi	s3,s2,-1025
   1c478:	00200793          	li	a5,2
   1c47c:	c0dfe06f          	j	1b088 <_svfprintf_r+0x2d4>
   1c480:	03c12783          	lw	a5,60(sp)
   1c484:	0004ce03          	lbu	t3,0(s1)
   1c488:	00079463          	bnez	a5,1c490 <_svfprintf_r+0x16dc>
   1c48c:	a8dfe06f          	j	1af18 <_svfprintf_r+0x164>
   1c490:	0007c783          	lbu	a5,0(a5)
   1c494:	00079463          	bnez	a5,1c49c <_svfprintf_r+0x16e8>
   1c498:	a81fe06f          	j	1af18 <_svfprintf_r+0x164>
   1c49c:	40096913          	ori	s2,s2,1024
   1c4a0:	a79fe06f          	j	1af18 <_svfprintf_r+0x164>
   1c4a4:	01012783          	lw	a5,16(sp)
   1c4a8:	0007a703          	lw	a4,0(a5)
   1c4ac:	00478793          	addi	a5,a5,4
   1c4b0:	00f12823          	sw	a5,16(sp)
   1c4b4:	00072583          	lw	a1,0(a4)
   1c4b8:	00472603          	lw	a2,4(a4)
   1c4bc:	00872683          	lw	a3,8(a4)
   1c4c0:	00c72703          	lw	a4,12(a4)
   1c4c4:	0eb12823          	sw	a1,240(sp)
   1c4c8:	0ec12a23          	sw	a2,244(sp)
   1c4cc:	0ed12c23          	sw	a3,248(sp)
   1c4d0:	0ee12e23          	sw	a4,252(sp)
   1c4d4:	e45fe06f          	j	1b318 <_svfprintf_r+0x564>
   1c4d8:	00068b13          	mv	s6,a3
   1c4dc:	cf604ae3          	bgtz	s6,1c1d0 <_svfprintf_r+0x141c>
   1c4e0:	d19ff06f          	j	1c1f8 <_svfprintf_r+0x1444>
   1c4e4:	00812583          	lw	a1,8(sp)
   1c4e8:	0e410613          	addi	a2,sp,228
   1c4ec:	000a0513          	mv	a0,s4
   1c4f0:	651020ef          	jal	ra,1f340 <__ssprint_r>
   1c4f4:	00050463          	beqz	a0,1c4fc <_svfprintf_r+0x1748>
   1c4f8:	ad9fe06f          	j	1afd0 <_svfprintf_r+0x21c>
   1c4fc:	0ec12703          	lw	a4,236(sp)
   1c500:	10c10d13          	addi	s10,sp,268
   1c504:	fb0ff06f          	j	1bcb4 <_svfprintf_r+0xf00>
   1c508:	0014ce03          	lbu	t3,1(s1)
   1c50c:	20096913          	ori	s2,s2,512
   1c510:	00148493          	addi	s1,s1,1
   1c514:	a05fe06f          	j	1af18 <_svfprintf_r+0x164>
   1c518:	0014ce03          	lbu	t3,1(s1)
   1c51c:	02096913          	ori	s2,s2,32
   1c520:	00148493          	addi	s1,s1,1
   1c524:	9f5fe06f          	j	1af18 <_svfprintf_r+0x164>
   1c528:	02412503          	lw	a0,36(sp)
   1c52c:	04000593          	li	a1,64
   1c530:	8c0fc0ef          	jal	ra,185f0 <_malloc_r>
   1c534:	00812783          	lw	a5,8(sp)
   1c538:	00a7a023          	sw	a0,0(a5)
   1c53c:	00a7a823          	sw	a0,16(a5)
   1c540:	00051463          	bnez	a0,1c548 <_svfprintf_r+0x1794>
   1c544:	3040106f          	j	1d848 <_svfprintf_r+0x2a94>
   1c548:	00812703          	lw	a4,8(sp)
   1c54c:	04000793          	li	a5,64
   1c550:	00f72a23          	sw	a5,20(a4)
   1c554:	8edfe06f          	j	1ae40 <_svfprintf_r+0x8c>
   1c558:	00600793          	li	a5,6
   1c55c:	00030b13          	mv	s6,t1
   1c560:	6e67e263          	bltu	a5,t1,1cc44 <_svfprintf_r+0x1e90>
   1c564:	000b0993          	mv	s3,s6
   1c568:	01812823          	sw	s8,16(sp)
   1c56c:	00008c97          	auipc	s9,0x8
   1c570:	594c8c93          	addi	s9,s9,1428 # 24b00 <zeroes.4505+0x48>
   1c574:	99cff06f          	j	1b710 <_svfprintf_r+0x95c>
   1c578:	0e812683          	lw	a3,232(sp)
   1c57c:	656bd463          	bge	s7,s6,1cbc4 <_svfprintf_r+0x1e10>
   1c580:	00700a93          	li	s5,7
   1c584:	00812c03          	lw	s8,8(sp)
   1c588:	00c0006f          	j	1c594 <_svfprintf_r+0x17e0>
   1c58c:	ff0b0b13          	addi	s6,s6,-16
   1c590:	636bda63          	bge	s7,s6,1cbc4 <_svfprintf_r+0x1e10>
   1c594:	01070713          	addi	a4,a4,16
   1c598:	00168693          	addi	a3,a3,1
   1c59c:	00009797          	auipc	a5,0x9
   1c5a0:	aa078793          	addi	a5,a5,-1376 # 2503c <zeroes.4490>
   1c5a4:	00fd2023          	sw	a5,0(s10)
   1c5a8:	017d2223          	sw	s7,4(s10)
   1c5ac:	0ee12623          	sw	a4,236(sp)
   1c5b0:	0ed12423          	sw	a3,232(sp)
   1c5b4:	008d0d13          	addi	s10,s10,8
   1c5b8:	fcdadae3          	bge	s5,a3,1c58c <_svfprintf_r+0x17d8>
   1c5bc:	0e410613          	addi	a2,sp,228
   1c5c0:	000c0593          	mv	a1,s8
   1c5c4:	000a0513          	mv	a0,s4
   1c5c8:	579020ef          	jal	ra,1f340 <__ssprint_r>
   1c5cc:	00050463          	beqz	a0,1c5d4 <_svfprintf_r+0x1820>
   1c5d0:	a01fe06f          	j	1afd0 <_svfprintf_r+0x21c>
   1c5d4:	0ec12703          	lw	a4,236(sp)
   1c5d8:	0e812683          	lw	a3,232(sp)
   1c5dc:	10c10d13          	addi	s10,sp,268
   1c5e0:	fadff06f          	j	1c58c <_svfprintf_r+0x17d8>
   1c5e4:	01812783          	lw	a5,24(sp)
   1c5e8:	01c12c03          	lw	s8,28(sp)
   1c5ec:	00912a23          	sw	s1,20(sp)
   1c5f0:	03212a23          	sw	s2,52(sp)
   1c5f4:	04812423          	sw	s0,72(sp)
   1c5f8:	02012483          	lw	s1,32(sp)
   1c5fc:	01312e23          	sw	s3,28(sp)
   1c600:	03912023          	sw	s9,32(sp)
   1c604:	00fc8db3          	add	s11,s9,a5
   1c608:	00700b13          	li	s6,7
   1c60c:	04012903          	lw	s2,64(sp)
   1c610:	03c12403          	lw	s0,60(sp)
   1c614:	000d0693          	mv	a3,s10
   1c618:	00812983          	lw	s3,8(sp)
   1c61c:	04412c83          	lw	s9,68(sp)
   1c620:	080c0863          	beqz	s8,1c6b0 <_svfprintf_r+0x18fc>
   1c624:	08049863          	bnez	s1,1c6b4 <_svfprintf_r+0x1900>
   1c628:	fff40413          	addi	s0,s0,-1
   1c62c:	fffc0c13          	addi	s8,s8,-1
   1c630:	0e812783          	lw	a5,232(sp)
   1c634:	01270733          	add	a4,a4,s2
   1c638:	0196a023          	sw	s9,0(a3)
   1c63c:	00178793          	addi	a5,a5,1
   1c640:	0126a223          	sw	s2,4(a3)
   1c644:	0ee12623          	sw	a4,236(sp)
   1c648:	0ef12423          	sw	a5,232(sp)
   1c64c:	00868693          	addi	a3,a3,8
   1c650:	12fb4c63          	blt	s6,a5,1c788 <_svfprintf_r+0x19d4>
   1c654:	00044603          	lbu	a2,0(s0)
   1c658:	415d85b3          	sub	a1,s11,s5
   1c65c:	00060d13          	mv	s10,a2
   1c660:	00c5d463          	bge	a1,a2,1c668 <_svfprintf_r+0x18b4>
   1c664:	00058d13          	mv	s10,a1
   1c668:	03a05663          	blez	s10,1c694 <_svfprintf_r+0x18e0>
   1c66c:	0e812603          	lw	a2,232(sp)
   1c670:	01a70733          	add	a4,a4,s10
   1c674:	0156a023          	sw	s5,0(a3)
   1c678:	00160613          	addi	a2,a2,1
   1c67c:	01a6a223          	sw	s10,4(a3)
   1c680:	0ee12623          	sw	a4,236(sp)
   1c684:	0ec12423          	sw	a2,232(sp)
   1c688:	30cb4063          	blt	s6,a2,1c988 <_svfprintf_r+0x1bd4>
   1c68c:	00044603          	lbu	a2,0(s0)
   1c690:	00868693          	addi	a3,a3,8
   1c694:	fffd4593          	not	a1,s10
   1c698:	41f5d593          	srai	a1,a1,0x1f
   1c69c:	00bd77b3          	and	a5,s10,a1
   1c6a0:	40f60d33          	sub	s10,a2,a5
   1c6a4:	01a04c63          	bgtz	s10,1c6bc <_svfprintf_r+0x1908>
   1c6a8:	00ca8ab3          	add	s5,s5,a2
   1c6ac:	f60c1ce3          	bnez	s8,1c624 <_svfprintf_r+0x1870>
   1c6b0:	66048663          	beqz	s1,1cd1c <_svfprintf_r+0x1f68>
   1c6b4:	fff48493          	addi	s1,s1,-1
   1c6b8:	f79ff06f          	j	1c630 <_svfprintf_r+0x187c>
   1c6bc:	0e812603          	lw	a2,232(sp)
   1c6c0:	01abc863          	blt	s7,s10,1c6d0 <_svfprintf_r+0x191c>
   1c6c4:	0600006f          	j	1c724 <_svfprintf_r+0x1970>
   1c6c8:	ff0d0d13          	addi	s10,s10,-16
   1c6cc:	05abdc63          	bge	s7,s10,1c724 <_svfprintf_r+0x1970>
   1c6d0:	01070713          	addi	a4,a4,16
   1c6d4:	00160613          	addi	a2,a2,1
   1c6d8:	00009797          	auipc	a5,0x9
   1c6dc:	96478793          	addi	a5,a5,-1692 # 2503c <zeroes.4490>
   1c6e0:	00f6a023          	sw	a5,0(a3)
   1c6e4:	0176a223          	sw	s7,4(a3)
   1c6e8:	0ee12623          	sw	a4,236(sp)
   1c6ec:	0ec12423          	sw	a2,232(sp)
   1c6f0:	00868693          	addi	a3,a3,8
   1c6f4:	fccb5ae3          	bge	s6,a2,1c6c8 <_svfprintf_r+0x1914>
   1c6f8:	0e410613          	addi	a2,sp,228
   1c6fc:	00098593          	mv	a1,s3
   1c700:	000a0513          	mv	a0,s4
   1c704:	43d020ef          	jal	ra,1f340 <__ssprint_r>
   1c708:	00050463          	beqz	a0,1c710 <_svfprintf_r+0x195c>
   1c70c:	8c5fe06f          	j	1afd0 <_svfprintf_r+0x21c>
   1c710:	ff0d0d13          	addi	s10,s10,-16
   1c714:	0ec12703          	lw	a4,236(sp)
   1c718:	0e812603          	lw	a2,232(sp)
   1c71c:	10c10693          	addi	a3,sp,268
   1c720:	fbabc8e3          	blt	s7,s10,1c6d0 <_svfprintf_r+0x191c>
   1c724:	01a70733          	add	a4,a4,s10
   1c728:	00160613          	addi	a2,a2,1
   1c72c:	00009797          	auipc	a5,0x9
   1c730:	91078793          	addi	a5,a5,-1776 # 2503c <zeroes.4490>
   1c734:	00f6a023          	sw	a5,0(a3)
   1c738:	01a6a223          	sw	s10,4(a3)
   1c73c:	0ee12623          	sw	a4,236(sp)
   1c740:	0ec12423          	sw	a2,232(sp)
   1c744:	68cb4863          	blt	s6,a2,1cdd4 <_svfprintf_r+0x2020>
   1c748:	00044603          	lbu	a2,0(s0)
   1c74c:	00868693          	addi	a3,a3,8
   1c750:	00ca8ab3          	add	s5,s5,a2
   1c754:	f59ff06f          	j	1c6ac <_svfprintf_r+0x18f8>
   1c758:	00812583          	lw	a1,8(sp)
   1c75c:	0e410613          	addi	a2,sp,228
   1c760:	000a0513          	mv	a0,s4
   1c764:	3dd020ef          	jal	ra,1f340 <__ssprint_r>
   1c768:	00050463          	beqz	a0,1c770 <_svfprintf_r+0x19bc>
   1c76c:	865fe06f          	j	1afd0 <_svfprintf_r+0x21c>
   1c770:	0e812603          	lw	a2,232(sp)
   1c774:	0ec12703          	lw	a4,236(sp)
   1c778:	11410d13          	addi	s10,sp,276
   1c77c:	00160a93          	addi	s5,a2,1
   1c780:	10c10c13          	addi	s8,sp,268
   1c784:	891ff06f          	j	1c014 <_svfprintf_r+0x1260>
   1c788:	0e410613          	addi	a2,sp,228
   1c78c:	00098593          	mv	a1,s3
   1c790:	000a0513          	mv	a0,s4
   1c794:	3ad020ef          	jal	ra,1f340 <__ssprint_r>
   1c798:	00050463          	beqz	a0,1c7a0 <_svfprintf_r+0x19ec>
   1c79c:	835fe06f          	j	1afd0 <_svfprintf_r+0x21c>
   1c7a0:	0ec12703          	lw	a4,236(sp)
   1c7a4:	10c10693          	addi	a3,sp,268
   1c7a8:	eadff06f          	j	1c654 <_svfprintf_r+0x18a0>
   1c7ac:	0e812683          	lw	a3,232(sp)
   1c7b0:	00008597          	auipc	a1,0x8
   1c7b4:	35858593          	addi	a1,a1,856 # 24b08 <zeroes.4505+0x50>
   1c7b8:	00bd2023          	sw	a1,0(s10)
   1c7bc:	00170713          	addi	a4,a4,1
   1c7c0:	00100593          	li	a1,1
   1c7c4:	00168693          	addi	a3,a3,1
   1c7c8:	00bd2223          	sw	a1,4(s10)
   1c7cc:	0ee12623          	sw	a4,236(sp)
   1c7d0:	0ed12423          	sw	a3,232(sp)
   1c7d4:	00700593          	li	a1,7
   1c7d8:	008d0d13          	addi	s10,s10,8
   1c7dc:	06d5ce63          	blt	a1,a3,1c858 <_svfprintf_r+0x1aa4>
   1c7e0:	26061e63          	bnez	a2,1ca5c <_svfprintf_r+0x1ca8>
   1c7e4:	01812783          	lw	a5,24(sp)
   1c7e8:	00197693          	andi	a3,s2,1
   1c7ec:	00f6e6b3          	or	a3,a3,a5
   1c7f0:	00069463          	bnez	a3,1c7f8 <_svfprintf_r+0x1a44>
   1c7f4:	ffdfe06f          	j	1b7f0 <_svfprintf_r+0xa3c>
   1c7f8:	03012683          	lw	a3,48(sp)
   1c7fc:	02812783          	lw	a5,40(sp)
   1c800:	00700613          	li	a2,7
   1c804:	00dd2023          	sw	a3,0(s10)
   1c808:	0e812683          	lw	a3,232(sp)
   1c80c:	00e78733          	add	a4,a5,a4
   1c810:	00fd2223          	sw	a5,4(s10)
   1c814:	00168693          	addi	a3,a3,1
   1c818:	0ee12623          	sw	a4,236(sp)
   1c81c:	0ed12423          	sw	a3,232(sp)
   1c820:	008d0893          	addi	a7,s10,8
   1c824:	4ad64c63          	blt	a2,a3,1ccdc <_svfprintf_r+0x1f28>
   1c828:	01812783          	lw	a5,24(sp)
   1c82c:	00168693          	addi	a3,a3,1
   1c830:	0198a023          	sw	s9,0(a7)
   1c834:	00e78733          	add	a4,a5,a4
   1c838:	00f8a223          	sw	a5,4(a7)
   1c83c:	0ee12623          	sw	a4,236(sp)
   1c840:	0ed12423          	sw	a3,232(sp)
   1c844:	00700793          	li	a5,7
   1c848:	00888d13          	addi	s10,a7,8
   1c84c:	00d7c463          	blt	a5,a3,1c854 <_svfprintf_r+0x1aa0>
   1c850:	fa1fe06f          	j	1b7f0 <_svfprintf_r+0xa3c>
   1c854:	fe4ff06f          	j	1c038 <_svfprintf_r+0x1284>
   1c858:	00812583          	lw	a1,8(sp)
   1c85c:	0e410613          	addi	a2,sp,228
   1c860:	000a0513          	mv	a0,s4
   1c864:	2dd020ef          	jal	ra,1f340 <__ssprint_r>
   1c868:	00050463          	beqz	a0,1c870 <_svfprintf_r+0x1abc>
   1c86c:	f64fe06f          	j	1afd0 <_svfprintf_r+0x21c>
   1c870:	0cc12603          	lw	a2,204(sp)
   1c874:	0ec12703          	lw	a4,236(sp)
   1c878:	10c10d13          	addi	s10,sp,268
   1c87c:	f65ff06f          	j	1c7e0 <_svfprintf_r+0x1a2c>
   1c880:	00812583          	lw	a1,8(sp)
   1c884:	0e410613          	addi	a2,sp,228
   1c888:	000a0513          	mv	a0,s4
   1c88c:	2b5020ef          	jal	ra,1f340 <__ssprint_r>
   1c890:	00050463          	beqz	a0,1c898 <_svfprintf_r+0x1ae4>
   1c894:	f3cfe06f          	j	1afd0 <_svfprintf_r+0x21c>
   1c898:	10c10d13          	addi	s10,sp,268
   1c89c:	bc8ff06f          	j	1bc64 <_svfprintf_r+0xeb0>
   1c8a0:	1b010c93          	addi	s9,sp,432
   1c8a4:	00000793          	li	a5,0
   1c8a8:	4009f913          	andi	s2,s3,1024
   1c8ac:	00912623          	sw	s1,12(sp)
   1c8b0:	01312a23          	sw	s3,20(sp)
   1c8b4:	0ff00b13          	li	s6,255
   1c8b8:	000c8993          	mv	s3,s9
   1c8bc:	00612e23          	sw	t1,28(sp)
   1c8c0:	000a0c93          	mv	s9,s4
   1c8c4:	03c12483          	lw	s1,60(sp)
   1c8c8:	000d8a13          	mv	s4,s11
   1c8cc:	000d0d93          	mv	s11,s10
   1c8d0:	00040d13          	mv	s10,s0
   1c8d4:	00078413          	mv	s0,a5
   1c8d8:	0240006f          	j	1c8fc <_svfprintf_r+0x1b48>
   1c8dc:	00a00613          	li	a2,10
   1c8e0:	00000693          	li	a3,0
   1c8e4:	000c0513          	mv	a0,s8
   1c8e8:	000a0593          	mv	a1,s4
   1c8ec:	799030ef          	jal	ra,20884 <__udivdi3>
   1c8f0:	500a0863          	beqz	s4,1ce00 <_svfprintf_r+0x204c>
   1c8f4:	00050c13          	mv	s8,a0
   1c8f8:	00058a13          	mv	s4,a1
   1c8fc:	00a00613          	li	a2,10
   1c900:	00000693          	li	a3,0
   1c904:	000c0513          	mv	a0,s8
   1c908:	000a0593          	mv	a1,s4
   1c90c:	3ac040ef          	jal	ra,20cb8 <__umoddi3>
   1c910:	03050513          	addi	a0,a0,48
   1c914:	fea98fa3          	sb	a0,-1(s3)
   1c918:	00140413          	addi	s0,s0,1
   1c91c:	fff98993          	addi	s3,s3,-1
   1c920:	fa090ee3          	beqz	s2,1c8dc <_svfprintf_r+0x1b28>
   1c924:	0004c683          	lbu	a3,0(s1)
   1c928:	fad41ae3          	bne	s0,a3,1c8dc <_svfprintf_r+0x1b28>
   1c92c:	fb6408e3          	beq	s0,s6,1c8dc <_svfprintf_r+0x1b28>
   1c930:	4c0a1e63          	bnez	s4,1ce0c <_svfprintf_r+0x2058>
   1c934:	00900793          	li	a5,9
   1c938:	4d87ea63          	bltu	a5,s8,1ce0c <_svfprintf_r+0x2058>
   1c93c:	000c8a13          	mv	s4,s9
   1c940:	00098c93          	mv	s9,s3
   1c944:	01412983          	lw	s3,20(sp)
   1c948:	1b010793          	addi	a5,sp,432
   1c94c:	00812c23          	sw	s0,24(sp)
   1c950:	02912e23          	sw	s1,60(sp)
   1c954:	000d0413          	mv	s0,s10
   1c958:	01c12303          	lw	t1,28(sp)
   1c95c:	00c12483          	lw	s1,12(sp)
   1c960:	000d8d13          	mv	s10,s11
   1c964:	41978b33          	sub	s6,a5,s9
   1c968:	00098913          	mv	s2,s3
   1c96c:	f50fe06f          	j	1b0bc <_svfprintf_r+0x308>
   1c970:	00008697          	auipc	a3,0x8
   1c974:	6cc68693          	addi	a3,a3,1740 # 2503c <zeroes.4490>
   1c978:	01670733          	add	a4,a4,s6
   1c97c:	00178793          	addi	a5,a5,1
   1c980:	00dd2023          	sw	a3,0(s10)
   1c984:	e55fe06f          	j	1b7d8 <_svfprintf_r+0xa24>
   1c988:	0e410613          	addi	a2,sp,228
   1c98c:	00098593          	mv	a1,s3
   1c990:	000a0513          	mv	a0,s4
   1c994:	1ad020ef          	jal	ra,1f340 <__ssprint_r>
   1c998:	00050463          	beqz	a0,1c9a0 <_svfprintf_r+0x1bec>
   1c99c:	e34fe06f          	j	1afd0 <_svfprintf_r+0x21c>
   1c9a0:	00044603          	lbu	a2,0(s0)
   1c9a4:	0ec12703          	lw	a4,236(sp)
   1c9a8:	10c10693          	addi	a3,sp,268
   1c9ac:	ce9ff06f          	j	1c694 <_svfprintf_r+0x18e0>
   1c9b0:	0f012783          	lw	a5,240(sp)
   1c9b4:	0a010593          	addi	a1,sp,160
   1c9b8:	0b010513          	addi	a0,sp,176
   1c9bc:	0af12823          	sw	a5,176(sp)
   1c9c0:	0f412783          	lw	a5,244(sp)
   1c9c4:	0a012023          	sw	zero,160(sp)
   1c9c8:	0a012223          	sw	zero,164(sp)
   1c9cc:	0af12a23          	sw	a5,180(sp)
   1c9d0:	0f812783          	lw	a5,248(sp)
   1c9d4:	0a012423          	sw	zero,168(sp)
   1c9d8:	0a012623          	sw	zero,172(sp)
   1c9dc:	0af12c23          	sw	a5,184(sp)
   1c9e0:	0fc12783          	lw	a5,252(sp)
   1c9e4:	0af12e23          	sw	a5,188(sp)
   1c9e8:	6ad040ef          	jal	ra,21894 <__letf2>
   1c9ec:	46054063          	bltz	a0,1ce4c <_svfprintf_r+0x2098>
   1c9f0:	0c714703          	lbu	a4,199(sp)
   1c9f4:	04700693          	li	a3,71
   1c9f8:	00008c97          	auipc	s9,0x8
   1c9fc:	0d0c8c93          	addi	s9,s9,208 # 24ac8 <zeroes.4505+0x10>
   1ca00:	2156ca63          	blt	a3,s5,1cc14 <_svfprintf_r+0x1e60>
   1ca04:	00012623          	sw	zero,12(sp)
   1ca08:	02012023          	sw	zero,32(sp)
   1ca0c:	00012e23          	sw	zero,28(sp)
   1ca10:	00012a23          	sw	zero,20(sp)
   1ca14:	f7f97913          	andi	s2,s2,-129
   1ca18:	00300993          	li	s3,3
   1ca1c:	00300b13          	li	s6,3
   1ca20:	00000313          	li	t1,0
   1ca24:	00070463          	beqz	a4,1ca2c <_svfprintf_r+0x1c78>
   1ca28:	eb8fe06f          	j	1b0e0 <_svfprintf_r+0x32c>
   1ca2c:	cf9fe06f          	j	1b724 <_svfprintf_r+0x970>
   1ca30:	01012783          	lw	a5,16(sp)
   1ca34:	00048c93          	mv	s9,s1
   1ca38:	0007a783          	lw	a5,0(a5)
   1ca3c:	00e12823          	sw	a4,16(sp)
   1ca40:	00412703          	lw	a4,4(sp)
   1ca44:	00e7a023          	sw	a4,0(a5)
   1ca48:	fd8fe06f          	j	1b220 <_svfprintf_r+0x46c>
   1ca4c:	000c8513          	mv	a0,s9
   1ca50:	d75f40ef          	jal	ra,117c4 <strlen>
   1ca54:	00050b13          	mv	s6,a0
   1ca58:	bd1fe06f          	j	1b628 <_svfprintf_r+0x874>
   1ca5c:	03012683          	lw	a3,48(sp)
   1ca60:	02812783          	lw	a5,40(sp)
   1ca64:	00700593          	li	a1,7
   1ca68:	00dd2023          	sw	a3,0(s10)
   1ca6c:	0e812683          	lw	a3,232(sp)
   1ca70:	00e78733          	add	a4,a5,a4
   1ca74:	00fd2223          	sw	a5,4(s10)
   1ca78:	00168693          	addi	a3,a3,1
   1ca7c:	0ee12623          	sw	a4,236(sp)
   1ca80:	0ed12423          	sw	a3,232(sp)
   1ca84:	008d0893          	addi	a7,s10,8
   1ca88:	24d5ca63          	blt	a1,a3,1ccdc <_svfprintf_r+0x1f28>
   1ca8c:	d8065ee3          	bgez	a2,1c828 <_svfprintf_r+0x1a74>
   1ca90:	ff000593          	li	a1,-16
   1ca94:	40c00b33          	neg	s6,a2
   1ca98:	24b65ae3          	bge	a2,a1,1d4ec <_svfprintf_r+0x2738>
   1ca9c:	00700c13          	li	s8,7
   1caa0:	00812a83          	lw	s5,8(sp)
   1caa4:	00c0006f          	j	1cab0 <_svfprintf_r+0x1cfc>
   1caa8:	ff0b0b13          	addi	s6,s6,-16
   1caac:	256bd0e3          	bge	s7,s6,1d4ec <_svfprintf_r+0x2738>
   1cab0:	01070713          	addi	a4,a4,16
   1cab4:	00168693          	addi	a3,a3,1
   1cab8:	00008797          	auipc	a5,0x8
   1cabc:	58478793          	addi	a5,a5,1412 # 2503c <zeroes.4490>
   1cac0:	00f8a023          	sw	a5,0(a7)
   1cac4:	0178a223          	sw	s7,4(a7)
   1cac8:	0ee12623          	sw	a4,236(sp)
   1cacc:	0ed12423          	sw	a3,232(sp)
   1cad0:	00888893          	addi	a7,a7,8
   1cad4:	fcdc5ae3          	bge	s8,a3,1caa8 <_svfprintf_r+0x1cf4>
   1cad8:	0e410613          	addi	a2,sp,228
   1cadc:	000a8593          	mv	a1,s5
   1cae0:	000a0513          	mv	a0,s4
   1cae4:	05d020ef          	jal	ra,1f340 <__ssprint_r>
   1cae8:	00050463          	beqz	a0,1caf0 <_svfprintf_r+0x1d3c>
   1caec:	ce4fe06f          	j	1afd0 <_svfprintf_r+0x21c>
   1caf0:	0ec12703          	lw	a4,236(sp)
   1caf4:	0e812683          	lw	a3,232(sp)
   1caf8:	10c10893          	addi	a7,sp,268
   1cafc:	fadff06f          	j	1caa8 <_svfprintf_r+0x1cf4>
   1cb00:	000d0693          	mv	a3,s10
   1cb04:	001b0a93          	addi	s5,s6,1
   1cb08:	008c0793          	addi	a5,s8,8
   1cb0c:	00d70733          	add	a4,a4,a3
   1cb10:	00008617          	auipc	a2,0x8
   1cb14:	52c60613          	addi	a2,a2,1324 # 2503c <zeroes.4490>
   1cb18:	00dc2223          	sw	a3,4(s8)
   1cb1c:	00cc2023          	sw	a2,0(s8)
   1cb20:	0ee12623          	sw	a4,236(sp)
   1cb24:	0f512423          	sw	s5,232(sp)
   1cb28:	00700693          	li	a3,7
   1cb2c:	c356c6e3          	blt	a3,s5,1c758 <_svfprintf_r+0x19a4>
   1cb30:	001a8a93          	addi	s5,s5,1
   1cb34:	00878d13          	addi	s10,a5,8
   1cb38:	00078c13          	mv	s8,a5
   1cb3c:	cd8ff06f          	j	1c014 <_svfprintf_r+0x1260>
   1cb40:	20097713          	andi	a4,s2,512
   1cb44:	16070463          	beqz	a4,1ccac <_svfprintf_r+0x1ef8>
   1cb48:	00f12823          	sw	a5,16(sp)
   1cb4c:	0ffc7c13          	andi	s8,s8,255
   1cb50:	00000d93          	li	s11,0
   1cb54:	00090993          	mv	s3,s2
   1cb58:	00100793          	li	a5,1
   1cb5c:	d2cfe06f          	j	1b088 <_svfprintf_r+0x2d4>
   1cb60:	20097713          	andi	a4,s2,512
   1cb64:	12070e63          	beqz	a4,1cca0 <_svfprintf_r+0x1eec>
   1cb68:	0ffc7c13          	andi	s8,s8,255
   1cb6c:	00000d93          	li	s11,0
   1cb70:	00f12823          	sw	a5,16(sp)
   1cb74:	f8dfe06f          	j	1bb00 <_svfprintf_r+0xd4c>
   1cb78:	20097713          	andi	a4,s2,512
   1cb7c:	10070463          	beqz	a4,1cc84 <_svfprintf_r+0x1ed0>
   1cb80:	01012703          	lw	a4,16(sp)
   1cb84:	00090993          	mv	s3,s2
   1cb88:	00f12823          	sw	a5,16(sp)
   1cb8c:	00070c03          	lb	s8,0(a4)
   1cb90:	41fc5d93          	srai	s11,s8,0x1f
   1cb94:	000d8713          	mv	a4,s11
   1cb98:	b25fe06f          	j	1b6bc <_svfprintf_r+0x908>
   1cb9c:	0fc12783          	lw	a5,252(sp)
   1cba0:	1207c663          	bltz	a5,1cccc <_svfprintf_r+0x1f18>
   1cba4:	0c714703          	lbu	a4,199(sp)
   1cba8:	04700693          	li	a3,71
   1cbac:	00008c97          	auipc	s9,0x8
   1cbb0:	f24c8c93          	addi	s9,s9,-220 # 24ad0 <zeroes.4505+0x18>
   1cbb4:	e556d8e3          	bge	a3,s5,1ca04 <_svfprintf_r+0x1c50>
   1cbb8:	00008c97          	auipc	s9,0x8
   1cbbc:	f1cc8c93          	addi	s9,s9,-228 # 24ad4 <zeroes.4505+0x1c>
   1cbc0:	e45ff06f          	j	1ca04 <_svfprintf_r+0x1c50>
   1cbc4:	01670733          	add	a4,a4,s6
   1cbc8:	00168693          	addi	a3,a3,1
   1cbcc:	00008797          	auipc	a5,0x8
   1cbd0:	47078793          	addi	a5,a5,1136 # 2503c <zeroes.4490>
   1cbd4:	00fd2023          	sw	a5,0(s10)
   1cbd8:	016d2223          	sw	s6,4(s10)
   1cbdc:	0ee12623          	sw	a4,236(sp)
   1cbe0:	0ed12423          	sw	a3,232(sp)
   1cbe4:	00700613          	li	a2,7
   1cbe8:	008d0d13          	addi	s10,s10,8
   1cbec:	e2d65263          	bge	a2,a3,1c210 <_svfprintf_r+0x145c>
   1cbf0:	00812583          	lw	a1,8(sp)
   1cbf4:	0e410613          	addi	a2,sp,228
   1cbf8:	000a0513          	mv	a0,s4
   1cbfc:	744020ef          	jal	ra,1f340 <__ssprint_r>
   1cc00:	00050463          	beqz	a0,1cc08 <_svfprintf_r+0x1e54>
   1cc04:	bccfe06f          	j	1afd0 <_svfprintf_r+0x21c>
   1cc08:	0ec12703          	lw	a4,236(sp)
   1cc0c:	10c10d13          	addi	s10,sp,268
   1cc10:	e00ff06f          	j	1c210 <_svfprintf_r+0x145c>
   1cc14:	00008c97          	auipc	s9,0x8
   1cc18:	eb8c8c93          	addi	s9,s9,-328 # 24acc <zeroes.4505+0x14>
   1cc1c:	de9ff06f          	j	1ca04 <_svfprintf_r+0x1c50>
   1cc20:	00812583          	lw	a1,8(sp)
   1cc24:	0e410613          	addi	a2,sp,228
   1cc28:	000a0513          	mv	a0,s4
   1cc2c:	714020ef          	jal	ra,1f340 <__ssprint_r>
   1cc30:	00050463          	beqz	a0,1cc38 <_svfprintf_r+0x1e84>
   1cc34:	b9cfe06f          	j	1afd0 <_svfprintf_r+0x21c>
   1cc38:	0ec12703          	lw	a4,236(sp)
   1cc3c:	10c10d13          	addi	s10,sp,268
   1cc40:	db8ff06f          	j	1c1f8 <_svfprintf_r+0x1444>
   1cc44:	00600b13          	li	s6,6
   1cc48:	91dff06f          	j	1c564 <_svfprintf_r+0x17b0>
   1cc4c:	01812683          	lw	a3,24(sp)
   1cc50:	00dc87b3          	add	a5,s9,a3
   1cc54:	41668b33          	sub	s6,a3,s6
   1cc58:	41578c33          	sub	s8,a5,s5
   1cc5c:	e58b5863          	bge	s6,s8,1c2ac <_svfprintf_r+0x14f8>
   1cc60:	000b0c13          	mv	s8,s6
   1cc64:	e48ff06f          	j	1c2ac <_svfprintf_r+0x14f8>
   1cc68:	01012783          	lw	a5,16(sp)
   1cc6c:	00e12823          	sw	a4,16(sp)
   1cc70:	00412703          	lw	a4,4(sp)
   1cc74:	0007a783          	lw	a5,0(a5)
   1cc78:	00048c93          	mv	s9,s1
   1cc7c:	00e79023          	sh	a4,0(a5)
   1cc80:	da0fe06f          	j	1b220 <_svfprintf_r+0x46c>
   1cc84:	01012703          	lw	a4,16(sp)
   1cc88:	00090993          	mv	s3,s2
   1cc8c:	00f12823          	sw	a5,16(sp)
   1cc90:	00072c03          	lw	s8,0(a4)
   1cc94:	41fc5d93          	srai	s11,s8,0x1f
   1cc98:	000d8713          	mv	a4,s11
   1cc9c:	a21fe06f          	j	1b6bc <_svfprintf_r+0x908>
   1cca0:	00000d93          	li	s11,0
   1cca4:	00f12823          	sw	a5,16(sp)
   1cca8:	e59fe06f          	j	1bb00 <_svfprintf_r+0xd4c>
   1ccac:	00f12823          	sw	a5,16(sp)
   1ccb0:	00000d93          	li	s11,0
   1ccb4:	00090993          	mv	s3,s2
   1ccb8:	00100793          	li	a5,1
   1ccbc:	bccfe06f          	j	1b088 <_svfprintf_r+0x2d4>
   1ccc0:	0ffc7c13          	andi	s8,s8,255
   1ccc4:	00000d93          	li	s11,0
   1ccc8:	ba4fe06f          	j	1b06c <_svfprintf_r+0x2b8>
   1cccc:	02d00793          	li	a5,45
   1ccd0:	0cf103a3          	sb	a5,199(sp)
   1ccd4:	02d00713          	li	a4,45
   1ccd8:	ed1ff06f          	j	1cba8 <_svfprintf_r+0x1df4>
   1ccdc:	00812583          	lw	a1,8(sp)
   1cce0:	0e410613          	addi	a2,sp,228
   1cce4:	000a0513          	mv	a0,s4
   1cce8:	658020ef          	jal	ra,1f340 <__ssprint_r>
   1ccec:	00050463          	beqz	a0,1ccf4 <_svfprintf_r+0x1f40>
   1ccf0:	ae0fe06f          	j	1afd0 <_svfprintf_r+0x21c>
   1ccf4:	0cc12603          	lw	a2,204(sp)
   1ccf8:	0ec12703          	lw	a4,236(sp)
   1ccfc:	0e812683          	lw	a3,232(sp)
   1cd00:	10c10893          	addi	a7,sp,268
   1cd04:	b20652e3          	bgez	a2,1c828 <_svfprintf_r+0x1a74>
   1cd08:	d89ff06f          	j	1ca90 <_svfprintf_r+0x1cdc>
   1cd0c:	00600313          	li	t1,6
   1cd10:	e6cfe06f          	j	1b37c <_svfprintf_r+0x5c8>
   1cd14:	00090993          	mv	s3,s2
   1cd18:	e55fe06f          	j	1bb6c <_svfprintf_r+0xdb8>
   1cd1c:	02012c83          	lw	s9,32(sp)
   1cd20:	01812783          	lw	a5,24(sp)
   1cd24:	02812e23          	sw	s0,60(sp)
   1cd28:	00068d13          	mv	s10,a3
   1cd2c:	00fc86b3          	add	a3,s9,a5
   1cd30:	01412483          	lw	s1,20(sp)
   1cd34:	03412903          	lw	s2,52(sp)
   1cd38:	04812403          	lw	s0,72(sp)
   1cd3c:	01c12983          	lw	s3,28(sp)
   1cd40:	cf56f063          	bgeu	a3,s5,1c220 <_svfprintf_r+0x146c>
   1cd44:	00068a93          	mv	s5,a3
   1cd48:	cd8ff06f          	j	1c220 <_svfprintf_r+0x146c>
   1cd4c:	01412783          	lw	a5,20(sp)
   1cd50:	ffd00713          	li	a4,-3
   1cd54:	00e7c463          	blt	a5,a4,1cd5c <_svfprintf_r+0x1fa8>
   1cd58:	00f35a63          	bge	t1,a5,1cd6c <_svfprintf_r+0x1fb8>
   1cd5c:	ffea8a93          	addi	s5,s5,-2
   1cd60:	fdfaf793          	andi	a5,s5,-33
   1cd64:	04f12423          	sw	a5,72(sp)
   1cd68:	f00fe06f          	j	1b468 <_svfprintf_r+0x6b4>
   1cd6c:	01812703          	lw	a4,24(sp)
   1cd70:	01412783          	lw	a5,20(sp)
   1cd74:	24e7c263          	blt	a5,a4,1cfb8 <_svfprintf_r+0x2204>
   1cd78:	05412703          	lw	a4,84(sp)
   1cd7c:	00078b13          	mv	s6,a5
   1cd80:	00177713          	andi	a4,a4,1
   1cd84:	00070663          	beqz	a4,1cd90 <_svfprintf_r+0x1fdc>
   1cd88:	02812703          	lw	a4,40(sp)
   1cd8c:	00e78b33          	add	s6,a5,a4
   1cd90:	05412783          	lw	a5,84(sp)
   1cd94:	4007f713          	andi	a4,a5,1024
   1cd98:	00070663          	beqz	a4,1cda4 <_svfprintf_r+0x1ff0>
   1cd9c:	01412783          	lw	a5,20(sp)
   1cda0:	7cf04663          	bgtz	a5,1d56c <_svfprintf_r+0x27b8>
   1cda4:	fffb4993          	not	s3,s6
   1cda8:	41f9d993          	srai	s3,s3,0x1f
   1cdac:	013b79b3          	and	s3,s6,s3
   1cdb0:	06700a93          	li	s5,103
   1cdb4:	02012023          	sw	zero,32(sp)
   1cdb8:	00012e23          	sw	zero,28(sp)
   1cdbc:	fccfe06f          	j	1b588 <_svfprintf_r+0x7d4>
   1cdc0:	0c714703          	lbu	a4,199(sp)
   1cdc4:	00000313          	li	t1,0
   1cdc8:	00070463          	beqz	a4,1cdd0 <_svfprintf_r+0x201c>
   1cdcc:	b14fe06f          	j	1b0e0 <_svfprintf_r+0x32c>
   1cdd0:	955fe06f          	j	1b724 <_svfprintf_r+0x970>
   1cdd4:	0e410613          	addi	a2,sp,228
   1cdd8:	00098593          	mv	a1,s3
   1cddc:	000a0513          	mv	a0,s4
   1cde0:	560020ef          	jal	ra,1f340 <__ssprint_r>
   1cde4:	00050463          	beqz	a0,1cdec <_svfprintf_r+0x2038>
   1cde8:	9e8fe06f          	j	1afd0 <_svfprintf_r+0x21c>
   1cdec:	00044603          	lbu	a2,0(s0)
   1cdf0:	0ec12703          	lw	a4,236(sp)
   1cdf4:	10c10693          	addi	a3,sp,268
   1cdf8:	00ca8ab3          	add	s5,s5,a2
   1cdfc:	8b1ff06f          	j	1c6ac <_svfprintf_r+0x18f8>
   1ce00:	00900793          	li	a5,9
   1ce04:	af87e8e3          	bltu	a5,s8,1c8f4 <_svfprintf_r+0x1b40>
   1ce08:	b35ff06f          	j	1c93c <_svfprintf_r+0x1b88>
   1ce0c:	04012783          	lw	a5,64(sp)
   1ce10:	04412583          	lw	a1,68(sp)
   1ce14:	00000413          	li	s0,0
   1ce18:	40f989b3          	sub	s3,s3,a5
   1ce1c:	00078613          	mv	a2,a5
   1ce20:	00098513          	mv	a0,s3
   1ce24:	ec5fd0ef          	jal	ra,1ace8 <strncpy>
   1ce28:	0014c803          	lbu	a6,1(s1)
   1ce2c:	00a00613          	li	a2,10
   1ce30:	00000693          	li	a3,0
   1ce34:	01003833          	snez	a6,a6
   1ce38:	000c0513          	mv	a0,s8
   1ce3c:	000a0593          	mv	a1,s4
   1ce40:	010484b3          	add	s1,s1,a6
   1ce44:	241030ef          	jal	ra,20884 <__udivdi3>
   1ce48:	aadff06f          	j	1c8f4 <_svfprintf_r+0x1b40>
   1ce4c:	02d00793          	li	a5,45
   1ce50:	0cf103a3          	sb	a5,199(sp)
   1ce54:	02d00713          	li	a4,45
   1ce58:	b9dff06f          	j	1c9f4 <_svfprintf_r+0x1c40>
   1ce5c:	0b010c13          	addi	s8,sp,176
   1ce60:	00030693          	mv	a3,t1
   1ce64:	0cc10713          	addi	a4,sp,204
   1ce68:	0dc10813          	addi	a6,sp,220
   1ce6c:	0d010793          	addi	a5,sp,208
   1ce70:	00300613          	li	a2,3
   1ce74:	000c0593          	mv	a1,s8
   1ce78:	000a0513          	mv	a0,s4
   1ce7c:	00612e23          	sw	t1,28(sp)
   1ce80:	0be12823          	sw	t5,176(sp)
   1ce84:	01e12c23          	sw	t5,24(sp)
   1ce88:	0bd12c23          	sw	t4,184(sp)
   1ce8c:	01d12a23          	sw	t4,20(sp)
   1ce90:	0bb12a23          	sw	s11,180(sp)
   1ce94:	0b612e23          	sw	s6,188(sp)
   1ce98:	954fa0ef          	jal	ra,16fec <_ldtoa_r>
   1ce9c:	00054683          	lbu	a3,0(a0)
   1cea0:	03000713          	li	a4,48
   1cea4:	00050c93          	mv	s9,a0
   1cea8:	01412e83          	lw	t4,20(sp)
   1ceac:	01812f03          	lw	t5,24(sp)
   1ceb0:	01c12303          	lw	t1,28(sp)
   1ceb4:	0ae684e3          	beq	a3,a4,1d75c <_svfprintf_r+0x29a8>
   1ceb8:	0a010793          	addi	a5,sp,160
   1cebc:	04f12c23          	sw	a5,88(sp)
   1cec0:	0cc12703          	lw	a4,204(sp)
   1cec4:	006709b3          	add	s3,a4,t1
   1cec8:	013c89b3          	add	s3,s9,s3
   1cecc:	05812583          	lw	a1,88(sp)
   1ced0:	000c0513          	mv	a0,s8
   1ced4:	00612a23          	sw	t1,20(sp)
   1ced8:	0be12823          	sw	t5,176(sp)
   1cedc:	0bb12a23          	sw	s11,180(sp)
   1cee0:	0bd12c23          	sw	t4,184(sp)
   1cee4:	0b612e23          	sw	s6,188(sp)
   1cee8:	0a012023          	sw	zero,160(sp)
   1ceec:	0a012223          	sw	zero,164(sp)
   1cef0:	0a012423          	sw	zero,168(sp)
   1cef4:	0a012623          	sw	zero,172(sp)
   1cef8:	78c040ef          	jal	ra,21684 <__eqtf2>
   1cefc:	00098713          	mv	a4,s3
   1cf00:	01412303          	lw	t1,20(sp)
   1cf04:	00051463          	bnez	a0,1cf0c <_svfprintf_r+0x2158>
   1cf08:	d30fe06f          	j	1b438 <_svfprintf_r+0x684>
   1cf0c:	0dc12703          	lw	a4,220(sp)
   1cf10:	03000613          	li	a2,48
   1cf14:	01376463          	bltu	a4,s3,1cf1c <_svfprintf_r+0x2168>
   1cf18:	d20fe06f          	j	1b438 <_svfprintf_r+0x684>
   1cf1c:	00170793          	addi	a5,a4,1
   1cf20:	0cf12e23          	sw	a5,220(sp)
   1cf24:	00c70023          	sb	a2,0(a4)
   1cf28:	0dc12703          	lw	a4,220(sp)
   1cf2c:	ff3768e3          	bltu	a4,s3,1cf1c <_svfprintf_r+0x2168>
   1cf30:	d08fe06f          	j	1b438 <_svfprintf_r+0x684>
   1cf34:	00812583          	lw	a1,8(sp)
   1cf38:	0e410613          	addi	a2,sp,228
   1cf3c:	000a0513          	mv	a0,s4
   1cf40:	400020ef          	jal	ra,1f340 <__ssprint_r>
   1cf44:	00050463          	beqz	a0,1cf4c <_svfprintf_r+0x2198>
   1cf48:	888fe06f          	j	1afd0 <_svfprintf_r+0x21c>
   1cf4c:	0cc12b03          	lw	s6,204(sp)
   1cf50:	0ec12703          	lw	a4,236(sp)
   1cf54:	10c10d13          	addi	s10,sp,268
   1cf58:	b0cff06f          	j	1c264 <_svfprintf_r+0x14b0>
   1cf5c:	0c714703          	lbu	a4,199(sp)
   1cf60:	01812823          	sw	s8,16(sp)
   1cf64:	02012023          	sw	zero,32(sp)
   1cf68:	00012e23          	sw	zero,28(sp)
   1cf6c:	00012a23          	sw	zero,20(sp)
   1cf70:	00030993          	mv	s3,t1
   1cf74:	00030b13          	mv	s6,t1
   1cf78:	00000313          	li	t1,0
   1cf7c:	00070463          	beqz	a4,1cf84 <_svfprintf_r+0x21d0>
   1cf80:	960fe06f          	j	1b0e0 <_svfprintf_r+0x32c>
   1cf84:	fa0fe06f          	j	1b724 <_svfprintf_r+0x970>
   1cf88:	00812583          	lw	a1,8(sp)
   1cf8c:	0e410613          	addi	a2,sp,228
   1cf90:	000a0513          	mv	a0,s4
   1cf94:	3ac020ef          	jal	ra,1f340 <__ssprint_r>
   1cf98:	00050463          	beqz	a0,1cfa0 <_svfprintf_r+0x21ec>
   1cf9c:	834fe06f          	j	1afd0 <_svfprintf_r+0x21c>
   1cfa0:	0cc12b03          	lw	s6,204(sp)
   1cfa4:	01812783          	lw	a5,24(sp)
   1cfa8:	0ec12703          	lw	a4,236(sp)
   1cfac:	10c10d13          	addi	s10,sp,268
   1cfb0:	41678b33          	sub	s6,a5,s6
   1cfb4:	af8ff06f          	j	1c2ac <_svfprintf_r+0x14f8>
   1cfb8:	01812783          	lw	a5,24(sp)
   1cfbc:	02812703          	lw	a4,40(sp)
   1cfc0:	06700a93          	li	s5,103
   1cfc4:	00e78b33          	add	s6,a5,a4
   1cfc8:	01412783          	lw	a5,20(sp)
   1cfcc:	76f05c63          	blez	a5,1d744 <_svfprintf_r+0x2990>
   1cfd0:	05412783          	lw	a5,84(sp)
   1cfd4:	4007f713          	andi	a4,a5,1024
   1cfd8:	58071c63          	bnez	a4,1d570 <_svfprintf_r+0x27bc>
   1cfdc:	fffb4993          	not	s3,s6
   1cfe0:	41f9d993          	srai	s3,s3,0x1f
   1cfe4:	013b79b3          	and	s3,s6,s3
   1cfe8:	dcdff06f          	j	1cdb4 <_svfprintf_r+0x2000>
   1cfec:	05412783          	lw	a5,84(sp)
   1cff0:	0017f713          	andi	a4,a5,1
   1cff4:	01412783          	lw	a5,20(sp)
   1cff8:	00676733          	or	a4,a4,t1
   1cffc:	7cf05c63          	blez	a5,1d7d4 <_svfprintf_r+0x2a20>
   1d000:	72071863          	bnez	a4,1d730 <_svfprintf_r+0x297c>
   1d004:	01412b03          	lw	s6,20(sp)
   1d008:	06600a93          	li	s5,102
   1d00c:	fc5ff06f          	j	1cfd0 <_svfprintf_r+0x221c>
   1d010:	03000793          	li	a5,48
   1d014:	0cf10423          	sb	a5,200(sp)
   1d018:	05800793          	li	a5,88
   1d01c:	0cf104a3          	sb	a5,201(sp)
   1d020:	00296793          	ori	a5,s2,2
   1d024:	06300713          	li	a4,99
   1d028:	04f12a23          	sw	a5,84(sp)
   1d02c:	00012623          	sw	zero,12(sp)
   1d030:	14c10c93          	addi	s9,sp,332
   1d034:	3c674063          	blt	a4,t1,1d3f4 <_svfprintf_r+0x2640>
   1d038:	0fc12b03          	lw	s6,252(sp)
   1d03c:	fdfaf793          	andi	a5,s5,-33
   1d040:	04f12423          	sw	a5,72(sp)
   1d044:	04012e23          	sw	zero,92(sp)
   1d048:	10296913          	ori	s2,s2,258
   1d04c:	0f012f03          	lw	t5,240(sp)
   1d050:	0f412d83          	lw	s11,244(sp)
   1d054:	0f812e83          	lw	t4,248(sp)
   1d058:	380b4463          	bltz	s6,1d3e0 <_svfprintf_r+0x262c>
   1d05c:	06100713          	li	a4,97
   1d060:	58ea8a63          	beq	s5,a4,1d5f4 <_svfprintf_r+0x2840>
   1d064:	04100713          	li	a4,65
   1d068:	00ea8463          	beq	s5,a4,1d070 <_svfprintf_r+0x22bc>
   1d06c:	b3cfe06f          	j	1b3a8 <_svfprintf_r+0x5f4>
   1d070:	0b010c13          	addi	s8,sp,176
   1d074:	000c0513          	mv	a0,s8
   1d078:	02612a23          	sw	t1,52(sp)
   1d07c:	0be12823          	sw	t5,176(sp)
   1d080:	0bd12c23          	sw	t4,184(sp)
   1d084:	0b612e23          	sw	s6,188(sp)
   1d088:	0bb12a23          	sw	s11,180(sp)
   1d08c:	35c070ef          	jal	ra,243e8 <__trunctfdf2>
   1d090:	0cc10613          	addi	a2,sp,204
   1d094:	f34fd0ef          	jal	ra,1a7c8 <frexp>
   1d098:	00058613          	mv	a2,a1
   1d09c:	00050593          	mv	a1,a0
   1d0a0:	000c0513          	mv	a0,s8
   1d0a4:	138070ef          	jal	ra,241dc <__extenddftf2>
   1d0a8:	0b012703          	lw	a4,176(sp)
   1d0ac:	09010793          	addi	a5,sp,144
   1d0b0:	0a010993          	addi	s3,sp,160
   1d0b4:	08e12823          	sw	a4,144(sp)
   1d0b8:	0b412703          	lw	a4,180(sp)
   1d0bc:	08010613          	addi	a2,sp,128
   1d0c0:	00078593          	mv	a1,a5
   1d0c4:	08e12a23          	sw	a4,148(sp)
   1d0c8:	0b812703          	lw	a4,184(sp)
   1d0cc:	00098513          	mv	a0,s3
   1d0d0:	00078b13          	mv	s6,a5
   1d0d4:	08e12c23          	sw	a4,152(sp)
   1d0d8:	0bc12703          	lw	a4,188(sp)
   1d0dc:	04c12623          	sw	a2,76(sp)
   1d0e0:	05312c23          	sw	s3,88(sp)
   1d0e4:	08e12e23          	sw	a4,156(sp)
   1d0e8:	3ffc0737          	lui	a4,0x3ffc0
   1d0ec:	08e12623          	sw	a4,140(sp)
   1d0f0:	08012023          	sw	zero,128(sp)
   1d0f4:	08012223          	sw	zero,132(sp)
   1d0f8:	08012423          	sw	zero,136(sp)
   1d0fc:	0dd040ef          	jal	ra,219d8 <__multf3>
   1d100:	0a012703          	lw	a4,160(sp)
   1d104:	0a412683          	lw	a3,164(sp)
   1d108:	0a812803          	lw	a6,168(sp)
   1d10c:	0ac12e83          	lw	t4,172(sp)
   1d110:	00098593          	mv	a1,s3
   1d114:	000c0513          	mv	a0,s8
   1d118:	0ae12823          	sw	a4,176(sp)
   1d11c:	02e12023          	sw	a4,32(sp)
   1d120:	0ad12a23          	sw	a3,180(sp)
   1d124:	00d12e23          	sw	a3,28(sp)
   1d128:	0b012c23          	sw	a6,184(sp)
   1d12c:	01012c23          	sw	a6,24(sp)
   1d130:	0bd12e23          	sw	t4,188(sp)
   1d134:	01d12a23          	sw	t4,20(sp)
   1d138:	0a012023          	sw	zero,160(sp)
   1d13c:	0a012223          	sw	zero,164(sp)
   1d140:	0a012423          	sw	zero,168(sp)
   1d144:	0a012623          	sw	zero,172(sp)
   1d148:	53c040ef          	jal	ra,21684 <__eqtf2>
   1d14c:	01412e83          	lw	t4,20(sp)
   1d150:	01812803          	lw	a6,24(sp)
   1d154:	01c12683          	lw	a3,28(sp)
   1d158:	02012703          	lw	a4,32(sp)
   1d15c:	03412303          	lw	t1,52(sp)
   1d160:	00051663          	bnez	a0,1d16c <_svfprintf_r+0x23b8>
   1d164:	00100613          	li	a2,1
   1d168:	0cc12623          	sw	a2,204(sp)
   1d16c:	00008797          	auipc	a5,0x8
   1d170:	98078793          	addi	a5,a5,-1664 # 24aec <zeroes.4505+0x34>
   1d174:	02f12a23          	sw	a5,52(sp)
   1d178:	fff30d93          	addi	s11,t1,-1
   1d17c:	01912a23          	sw	s9,20(sp)
   1d180:	06912023          	sw	s1,96(sp)
   1d184:	07512223          	sw	s5,100(sp)
   1d188:	06812623          	sw	s0,108(sp)
   1d18c:	07a12a23          	sw	s10,116(sp)
   1d190:	07412c23          	sw	s4,120(sp)
   1d194:	07912e23          	sw	s9,124(sp)
   1d198:	07212423          	sw	s2,104(sp)
   1d19c:	000d8c93          	mv	s9,s11
   1d1a0:	06612823          	sw	t1,112(sp)
   1d1a4:	00070d13          	mv	s10,a4
   1d1a8:	00068d93          	mv	s11,a3
   1d1ac:	00080a13          	mv	s4,a6
   1d1b0:	000e8a93          	mv	s5,t4
   1d1b4:	05812403          	lw	s0,88(sp)
   1d1b8:	000b0493          	mv	s1,s6
   1d1bc:	0540006f          	j	1d210 <_svfprintf_r+0x245c>
   1d1c0:	00040593          	mv	a1,s0
   1d1c4:	000c0513          	mv	a0,s8
   1d1c8:	02c12023          	sw	a2,32(sp)
   1d1cc:	01e12e23          	sw	t5,28(sp)
   1d1d0:	01f12c23          	sw	t6,24(sp)
   1d1d4:	0bf12a23          	sw	t6,180(sp)
   1d1d8:	0be12c23          	sw	t5,184(sp)
   1d1dc:	0ac12e23          	sw	a2,188(sp)
   1d1e0:	0b212823          	sw	s2,176(sp)
   1d1e4:	0a012023          	sw	zero,160(sp)
   1d1e8:	0a012223          	sw	zero,164(sp)
   1d1ec:	0a012423          	sw	zero,168(sp)
   1d1f0:	0a012623          	sw	zero,172(sp)
   1d1f4:	490040ef          	jal	ra,21684 <__eqtf2>
   1d1f8:	fffc8c93          	addi	s9,s9,-1
   1d1fc:	01812f83          	lw	t6,24(sp)
   1d200:	01c12f03          	lw	t5,28(sp)
   1d204:	02012603          	lw	a2,32(sp)
   1d208:	0e050463          	beqz	a0,1d2f0 <_svfprintf_r+0x253c>
   1d20c:	01612a23          	sw	s6,20(sp)
   1d210:	400307b7          	lui	a5,0x40030
   1d214:	00048613          	mv	a2,s1
   1d218:	00040593          	mv	a1,s0
   1d21c:	000c0513          	mv	a0,s8
   1d220:	08f12e23          	sw	a5,156(sp)
   1d224:	0ba12023          	sw	s10,160(sp)
   1d228:	0bb12223          	sw	s11,164(sp)
   1d22c:	0b412423          	sw	s4,168(sp)
   1d230:	0b512623          	sw	s5,172(sp)
   1d234:	08012823          	sw	zero,144(sp)
   1d238:	08012a23          	sw	zero,148(sp)
   1d23c:	08012c23          	sw	zero,152(sp)
   1d240:	798040ef          	jal	ra,219d8 <__multf3>
   1d244:	000c0513          	mv	a0,s8
   1d248:	4bd060ef          	jal	ra,23f04 <__fixtfsi>
   1d24c:	00050593          	mv	a1,a0
   1d250:	00050993          	mv	s3,a0
   1d254:	000c0513          	mv	a0,s8
   1d258:	0bc12b03          	lw	s6,188(sp)
   1d25c:	0b012a83          	lw	s5,176(sp)
   1d260:	0b412a03          	lw	s4,180(sp)
   1d264:	0b812903          	lw	s2,184(sp)
   1d268:	5ed060ef          	jal	ra,24054 <__floatsitf>
   1d26c:	0b012703          	lw	a4,176(sp)
   1d270:	04c12603          	lw	a2,76(sp)
   1d274:	00048593          	mv	a1,s1
   1d278:	08e12023          	sw	a4,128(sp)
   1d27c:	0b412703          	lw	a4,180(sp)
   1d280:	00040513          	mv	a0,s0
   1d284:	09612e23          	sw	s6,156(sp)
   1d288:	08e12223          	sw	a4,132(sp)
   1d28c:	0b812703          	lw	a4,184(sp)
   1d290:	09512823          	sw	s5,144(sp)
   1d294:	09412a23          	sw	s4,148(sp)
   1d298:	08e12423          	sw	a4,136(sp)
   1d29c:	0bc12703          	lw	a4,188(sp)
   1d2a0:	09212c23          	sw	s2,152(sp)
   1d2a4:	08e12623          	sw	a4,140(sp)
   1d2a8:	73c050ef          	jal	ra,229e4 <__subtf3>
   1d2ac:	03412783          	lw	a5,52(sp)
   1d2b0:	0a012903          	lw	s2,160(sp)
   1d2b4:	0a412f83          	lw	t6,164(sp)
   1d2b8:	01378733          	add	a4,a5,s3
   1d2bc:	01412783          	lw	a5,20(sp)
   1d2c0:	00074703          	lbu	a4,0(a4) # 3ffc0000 <__global_pointer$+0x3ff97d30>
   1d2c4:	0a812f03          	lw	t5,168(sp)
   1d2c8:	0ac12603          	lw	a2,172(sp)
   1d2cc:	00178b13          	addi	s6,a5,1 # 40030001 <__global_pointer$+0x40007d31>
   1d2d0:	feeb0fa3          	sb	a4,-1(s6)
   1d2d4:	05912823          	sw	s9,80(sp)
   1d2d8:	fff00793          	li	a5,-1
   1d2dc:	00090d13          	mv	s10,s2
   1d2e0:	000f8d93          	mv	s11,t6
   1d2e4:	000f0a13          	mv	s4,t5
   1d2e8:	00060a93          	mv	s5,a2
   1d2ec:	ecfc9ae3          	bne	s9,a5,1d1c0 <_svfprintf_r+0x240c>
   1d2f0:	07012303          	lw	t1,112(sp)
   1d2f4:	05812583          	lw	a1,88(sp)
   1d2f8:	00090293          	mv	t0,s2
   1d2fc:	3ffe0db7          	lui	s11,0x3ffe0
   1d300:	000c0513          	mv	a0,s8
   1d304:	00612c23          	sw	t1,24(sp)
   1d308:	06012483          	lw	s1,96(sp)
   1d30c:	0a512823          	sw	t0,176(sp)
   1d310:	06512023          	sw	t0,96(sp)
   1d314:	0bf12a23          	sw	t6,180(sp)
   1d318:	05f12623          	sw	t6,76(sp)
   1d31c:	0be12c23          	sw	t5,184(sp)
   1d320:	03e12023          	sw	t5,32(sp)
   1d324:	0ac12e23          	sw	a2,188(sp)
   1d328:	00c12e23          	sw	a2,28(sp)
   1d32c:	0a012023          	sw	zero,160(sp)
   1d330:	0a012223          	sw	zero,164(sp)
   1d334:	0a012423          	sw	zero,168(sp)
   1d338:	0bb12623          	sw	s11,172(sp)
   1d33c:	414040ef          	jal	ra,21750 <__getf2>
   1d340:	06412a83          	lw	s5,100(sp)
   1d344:	06c12403          	lw	s0,108(sp)
   1d348:	07412d03          	lw	s10,116(sp)
   1d34c:	07812a03          	lw	s4,120(sp)
   1d350:	07c12c83          	lw	s9,124(sp)
   1d354:	06812903          	lw	s2,104(sp)
   1d358:	01812303          	lw	t1,24(sp)
   1d35c:	0aa04e63          	bgtz	a0,1d418 <_svfprintf_r+0x2664>
   1d360:	06012283          	lw	t0,96(sp)
   1d364:	04c12f83          	lw	t6,76(sp)
   1d368:	02012f03          	lw	t5,32(sp)
   1d36c:	01c12603          	lw	a2,28(sp)
   1d370:	05812583          	lw	a1,88(sp)
   1d374:	000c0513          	mv	a0,s8
   1d378:	0a512823          	sw	t0,176(sp)
   1d37c:	0bf12a23          	sw	t6,180(sp)
   1d380:	0be12c23          	sw	t5,184(sp)
   1d384:	0ac12e23          	sw	a2,188(sp)
   1d388:	0a012023          	sw	zero,160(sp)
   1d38c:	0a012223          	sw	zero,164(sp)
   1d390:	0a012423          	sw	zero,168(sp)
   1d394:	0bb12623          	sw	s11,172(sp)
   1d398:	2ec040ef          	jal	ra,21684 <__eqtf2>
   1d39c:	01812303          	lw	t1,24(sp)
   1d3a0:	00051663          	bnez	a0,1d3ac <_svfprintf_r+0x25f8>
   1d3a4:	0019f993          	andi	s3,s3,1
   1d3a8:	06099863          	bnez	s3,1d418 <_svfprintf_r+0x2664>
   1d3ac:	05012783          	lw	a5,80(sp)
   1d3b0:	03000693          	li	a3,48
   1d3b4:	00178713          	addi	a4,a5,1
   1d3b8:	00eb0733          	add	a4,s6,a4
   1d3bc:	0007c863          	bltz	a5,1d3cc <_svfprintf_r+0x2618>
   1d3c0:	001b0b13          	addi	s6,s6,1
   1d3c4:	fedb0fa3          	sb	a3,-1(s6)
   1d3c8:	ff671ce3          	bne	a4,s6,1d3c0 <_svfprintf_r+0x260c>
   1d3cc:	419b07b3          	sub	a5,s6,s9
   1d3d0:	00f12c23          	sw	a5,24(sp)
   1d3d4:	86cfe06f          	j	1b440 <_svfprintf_r+0x68c>
   1d3d8:	00012623          	sw	zero,12(sp)
   1d3dc:	00070913          	mv	s2,a4
   1d3e0:	80000737          	lui	a4,0x80000
   1d3e4:	02d00793          	li	a5,45
   1d3e8:	01674b33          	xor	s6,a4,s6
   1d3ec:	04f12e23          	sw	a5,92(sp)
   1d3f0:	c6dff06f          	j	1d05c <_svfprintf_r+0x22a8>
   1d3f4:	00130593          	addi	a1,t1,1
   1d3f8:	000a0513          	mv	a0,s4
   1d3fc:	00612623          	sw	t1,12(sp)
   1d400:	9f0fb0ef          	jal	ra,185f0 <_malloc_r>
   1d404:	00050c93          	mv	s9,a0
   1d408:	00c12303          	lw	t1,12(sp)
   1d40c:	44050e63          	beqz	a0,1d868 <_svfprintf_r+0x2ab4>
   1d410:	00a12623          	sw	a0,12(sp)
   1d414:	c25ff06f          	j	1d038 <_svfprintf_r+0x2284>
   1d418:	01412783          	lw	a5,20(sp)
   1d41c:	000b0713          	mv	a4,s6
   1d420:	0cf12e23          	sw	a5,220(sp)
   1d424:	03412783          	lw	a5,52(sp)
   1d428:	fffb4683          	lbu	a3,-1(s6)
   1d42c:	00f7c603          	lbu	a2,15(a5)
   1d430:	02d61063          	bne	a2,a3,1d450 <_svfprintf_r+0x269c>
   1d434:	03000593          	li	a1,48
   1d438:	feb70fa3          	sb	a1,-1(a4) # 7fffffff <__global_pointer$+0x7ffd7d2f>
   1d43c:	0dc12703          	lw	a4,220(sp)
   1d440:	fff70793          	addi	a5,a4,-1
   1d444:	0cf12e23          	sw	a5,220(sp)
   1d448:	fff74683          	lbu	a3,-1(a4)
   1d44c:	fed606e3          	beq	a2,a3,1d438 <_svfprintf_r+0x2684>
   1d450:	00168613          	addi	a2,a3,1
   1d454:	03900593          	li	a1,57
   1d458:	0ff67613          	andi	a2,a2,255
   1d45c:	00b68663          	beq	a3,a1,1d468 <_svfprintf_r+0x26b4>
   1d460:	fec70fa3          	sb	a2,-1(a4)
   1d464:	f69ff06f          	j	1d3cc <_svfprintf_r+0x2618>
   1d468:	03412783          	lw	a5,52(sp)
   1d46c:	00a7c603          	lbu	a2,10(a5)
   1d470:	fec70fa3          	sb	a2,-1(a4)
   1d474:	f59ff06f          	j	1d3cc <_svfprintf_r+0x2618>
   1d478:	03000793          	li	a5,48
   1d47c:	0cf10423          	sb	a5,200(sp)
   1d480:	07800793          	li	a5,120
   1d484:	b99ff06f          	j	1d01c <_svfprintf_r+0x2268>
   1d488:	00130993          	addi	s3,t1,1
   1d48c:	0b010c13          	addi	s8,sp,176
   1d490:	0dc10813          	addi	a6,sp,220
   1d494:	0d010793          	addi	a5,sp,208
   1d498:	0cc10713          	addi	a4,sp,204
   1d49c:	00098693          	mv	a3,s3
   1d4a0:	00200613          	li	a2,2
   1d4a4:	000c0593          	mv	a1,s8
   1d4a8:	000a0513          	mv	a0,s4
   1d4ac:	00612e23          	sw	t1,28(sp)
   1d4b0:	0be12823          	sw	t5,176(sp)
   1d4b4:	01e12c23          	sw	t5,24(sp)
   1d4b8:	0bd12c23          	sw	t4,184(sp)
   1d4bc:	01d12a23          	sw	t4,20(sp)
   1d4c0:	0bb12a23          	sw	s11,180(sp)
   1d4c4:	0b612e23          	sw	s6,188(sp)
   1d4c8:	b25f90ef          	jal	ra,16fec <_ldtoa_r>
   1d4cc:	01412e83          	lw	t4,20(sp)
   1d4d0:	01812f03          	lw	t5,24(sp)
   1d4d4:	01c12303          	lw	t1,28(sp)
   1d4d8:	00050c93          	mv	s9,a0
   1d4dc:	0a010793          	addi	a5,sp,160
   1d4e0:	013c89b3          	add	s3,s9,s3
   1d4e4:	04f12c23          	sw	a5,88(sp)
   1d4e8:	9e5ff06f          	j	1cecc <_svfprintf_r+0x2118>
   1d4ec:	01670733          	add	a4,a4,s6
   1d4f0:	00168693          	addi	a3,a3,1
   1d4f4:	00008797          	auipc	a5,0x8
   1d4f8:	b4878793          	addi	a5,a5,-1208 # 2503c <zeroes.4490>
   1d4fc:	00f8a023          	sw	a5,0(a7)
   1d500:	0168a223          	sw	s6,4(a7)
   1d504:	0ee12623          	sw	a4,236(sp)
   1d508:	0ed12423          	sw	a3,232(sp)
   1d50c:	00700613          	li	a2,7
   1d510:	00888893          	addi	a7,a7,8
   1d514:	b0d65a63          	bge	a2,a3,1c828 <_svfprintf_r+0x1a74>
   1d518:	00812583          	lw	a1,8(sp)
   1d51c:	0e410613          	addi	a2,sp,228
   1d520:	000a0513          	mv	a0,s4
   1d524:	61d010ef          	jal	ra,1f340 <__ssprint_r>
   1d528:	00050463          	beqz	a0,1d530 <_svfprintf_r+0x277c>
   1d52c:	aa5fd06f          	j	1afd0 <_svfprintf_r+0x21c>
   1d530:	0ec12703          	lw	a4,236(sp)
   1d534:	0e812683          	lw	a3,232(sp)
   1d538:	10c10893          	addi	a7,sp,268
   1d53c:	aecff06f          	j	1c828 <_svfprintf_r+0x1a74>
   1d540:	0a010793          	addi	a5,sp,160
   1d544:	006c89b3          	add	s3,s9,t1
   1d548:	04f12c23          	sw	a5,88(sp)
   1d54c:	981ff06f          	j	1cecc <_svfprintf_r+0x2118>
   1d550:	00030463          	beqz	t1,1d558 <_svfprintf_r+0x27a4>
   1d554:	e29fd06f          	j	1b37c <_svfprintf_r+0x5c8>
   1d558:	00100313          	li	t1,1
   1d55c:	e21fd06f          	j	1b37c <_svfprintf_r+0x5c8>
   1d560:	fff00793          	li	a5,-1
   1d564:	00f12223          	sw	a5,4(sp)
   1d568:	a91fd06f          	j	1aff8 <_svfprintf_r+0x244>
   1d56c:	06700a93          	li	s5,103
   1d570:	03c12583          	lw	a1,60(sp)
   1d574:	01412783          	lw	a5,20(sp)
   1d578:	02012023          	sw	zero,32(sp)
   1d57c:	0005c703          	lbu	a4,0(a1)
   1d580:	00012e23          	sw	zero,28(sp)
   1d584:	0ff00613          	li	a2,255
   1d588:	02c70e63          	beq	a4,a2,1d5c4 <_svfprintf_r+0x2810>
   1d58c:	02f75c63          	bge	a4,a5,1d5c4 <_svfprintf_r+0x2810>
   1d590:	0015c683          	lbu	a3,1(a1)
   1d594:	40e787b3          	sub	a5,a5,a4
   1d598:	00068e63          	beqz	a3,1d5b4 <_svfprintf_r+0x2800>
   1d59c:	01c12703          	lw	a4,28(sp)
   1d5a0:	00158593          	addi	a1,a1,1
   1d5a4:	00170713          	addi	a4,a4,1
   1d5a8:	00e12e23          	sw	a4,28(sp)
   1d5ac:	00068713          	mv	a4,a3
   1d5b0:	fd9ff06f          	j	1d588 <_svfprintf_r+0x27d4>
   1d5b4:	02012683          	lw	a3,32(sp)
   1d5b8:	00168693          	addi	a3,a3,1
   1d5bc:	02d12023          	sw	a3,32(sp)
   1d5c0:	fc9ff06f          	j	1d588 <_svfprintf_r+0x27d4>
   1d5c4:	00f12a23          	sw	a5,20(sp)
   1d5c8:	02012703          	lw	a4,32(sp)
   1d5cc:	01c12783          	lw	a5,28(sp)
   1d5d0:	02b12e23          	sw	a1,60(sp)
   1d5d4:	00e78733          	add	a4,a5,a4
   1d5d8:	04012783          	lw	a5,64(sp)
   1d5dc:	02f70733          	mul	a4,a4,a5
   1d5e0:	01670b33          	add	s6,a4,s6
   1d5e4:	fffb4993          	not	s3,s6
   1d5e8:	41f9d993          	srai	s3,s3,0x1f
   1d5ec:	013b79b3          	and	s3,s6,s3
   1d5f0:	f99fd06f          	j	1b588 <_svfprintf_r+0x7d4>
   1d5f4:	0b010c13          	addi	s8,sp,176
   1d5f8:	000c0513          	mv	a0,s8
   1d5fc:	02612a23          	sw	t1,52(sp)
   1d600:	0be12823          	sw	t5,176(sp)
   1d604:	0bd12c23          	sw	t4,184(sp)
   1d608:	0b612e23          	sw	s6,188(sp)
   1d60c:	0bb12a23          	sw	s11,180(sp)
   1d610:	5d9060ef          	jal	ra,243e8 <__trunctfdf2>
   1d614:	0cc10613          	addi	a2,sp,204
   1d618:	9b0fd0ef          	jal	ra,1a7c8 <frexp>
   1d61c:	00058613          	mv	a2,a1
   1d620:	00050593          	mv	a1,a0
   1d624:	000c0513          	mv	a0,s8
   1d628:	3b5060ef          	jal	ra,241dc <__extenddftf2>
   1d62c:	0b012703          	lw	a4,176(sp)
   1d630:	09010793          	addi	a5,sp,144
   1d634:	0a010993          	addi	s3,sp,160
   1d638:	08e12823          	sw	a4,144(sp)
   1d63c:	0b412703          	lw	a4,180(sp)
   1d640:	08010613          	addi	a2,sp,128
   1d644:	00078593          	mv	a1,a5
   1d648:	08e12a23          	sw	a4,148(sp)
   1d64c:	0b812703          	lw	a4,184(sp)
   1d650:	00098513          	mv	a0,s3
   1d654:	00078b13          	mv	s6,a5
   1d658:	08e12c23          	sw	a4,152(sp)
   1d65c:	0bc12703          	lw	a4,188(sp)
   1d660:	04c12623          	sw	a2,76(sp)
   1d664:	05312c23          	sw	s3,88(sp)
   1d668:	08e12e23          	sw	a4,156(sp)
   1d66c:	3ffc0737          	lui	a4,0x3ffc0
   1d670:	08e12623          	sw	a4,140(sp)
   1d674:	08012023          	sw	zero,128(sp)
   1d678:	08012223          	sw	zero,132(sp)
   1d67c:	08012423          	sw	zero,136(sp)
   1d680:	358040ef          	jal	ra,219d8 <__multf3>
   1d684:	0a012703          	lw	a4,160(sp)
   1d688:	0a412683          	lw	a3,164(sp)
   1d68c:	0a812803          	lw	a6,168(sp)
   1d690:	0ac12e83          	lw	t4,172(sp)
   1d694:	00098593          	mv	a1,s3
   1d698:	000c0513          	mv	a0,s8
   1d69c:	0ae12823          	sw	a4,176(sp)
   1d6a0:	02e12023          	sw	a4,32(sp)
   1d6a4:	0ad12a23          	sw	a3,180(sp)
   1d6a8:	00d12e23          	sw	a3,28(sp)
   1d6ac:	0b012c23          	sw	a6,184(sp)
   1d6b0:	01012c23          	sw	a6,24(sp)
   1d6b4:	0bd12e23          	sw	t4,188(sp)
   1d6b8:	01d12a23          	sw	t4,20(sp)
   1d6bc:	0a012023          	sw	zero,160(sp)
   1d6c0:	0a012223          	sw	zero,164(sp)
   1d6c4:	0a012423          	sw	zero,168(sp)
   1d6c8:	0a012623          	sw	zero,172(sp)
   1d6cc:	7b9030ef          	jal	ra,21684 <__eqtf2>
   1d6d0:	01412e83          	lw	t4,20(sp)
   1d6d4:	01812803          	lw	a6,24(sp)
   1d6d8:	01c12683          	lw	a3,28(sp)
   1d6dc:	02012703          	lw	a4,32(sp)
   1d6e0:	03412303          	lw	t1,52(sp)
   1d6e4:	00051663          	bnez	a0,1d6f0 <_svfprintf_r+0x293c>
   1d6e8:	00100613          	li	a2,1
   1d6ec:	0cc12623          	sw	a2,204(sp)
   1d6f0:	00007797          	auipc	a5,0x7
   1d6f4:	3e878793          	addi	a5,a5,1000 # 24ad8 <zeroes.4505+0x20>
   1d6f8:	02f12a23          	sw	a5,52(sp)
   1d6fc:	a7dff06f          	j	1d178 <_svfprintf_r+0x23c4>
   1d700:	0d610693          	addi	a3,sp,214
   1d704:	00061863          	bnez	a2,1d714 <_svfprintf_r+0x2960>
   1d708:	03000693          	li	a3,48
   1d70c:	0cd10b23          	sb	a3,214(sp)
   1d710:	0d710693          	addi	a3,sp,215
   1d714:	1b010793          	addi	a5,sp,432
   1d718:	40f68633          	sub	a2,a3,a5
   1d71c:	03070713          	addi	a4,a4,48 # 3ffc0030 <__global_pointer$+0x3ff97d60>
   1d720:	0dd60793          	addi	a5,a2,221
   1d724:	00e68023          	sb	a4,0(a3)
   1d728:	02f12c23          	sw	a5,56(sp)
   1d72c:	e19fd06f          	j	1b544 <_svfprintf_r+0x790>
   1d730:	02812703          	lw	a4,40(sp)
   1d734:	06600a93          	li	s5,102
   1d738:	00e78b33          	add	s6,a5,a4
   1d73c:	006b0b33          	add	s6,s6,t1
   1d740:	891ff06f          	j	1cfd0 <_svfprintf_r+0x221c>
   1d744:	40fb0b33          	sub	s6,s6,a5
   1d748:	001b0b13          	addi	s6,s6,1
   1d74c:	fffb4993          	not	s3,s6
   1d750:	41f9d993          	srai	s3,s3,0x1f
   1d754:	013b79b3          	and	s3,s6,s3
   1d758:	e5cff06f          	j	1cdb4 <_svfprintf_r+0x2000>
   1d75c:	0a010593          	addi	a1,sp,160
   1d760:	000c0513          	mv	a0,s8
   1d764:	00612e23          	sw	t1,28(sp)
   1d768:	0be12823          	sw	t5,176(sp)
   1d76c:	01e12c23          	sw	t5,24(sp)
   1d770:	0bd12c23          	sw	t4,184(sp)
   1d774:	01d12a23          	sw	t4,20(sp)
   1d778:	04b12c23          	sw	a1,88(sp)
   1d77c:	0bb12a23          	sw	s11,180(sp)
   1d780:	0b612e23          	sw	s6,188(sp)
   1d784:	0a012023          	sw	zero,160(sp)
   1d788:	0a012223          	sw	zero,164(sp)
   1d78c:	0a012423          	sw	zero,168(sp)
   1d790:	0a012623          	sw	zero,172(sp)
   1d794:	6f1030ef          	jal	ra,21684 <__eqtf2>
   1d798:	01412e83          	lw	t4,20(sp)
   1d79c:	01812f03          	lw	t5,24(sp)
   1d7a0:	01c12303          	lw	t1,28(sp)
   1d7a4:	f0050e63          	beqz	a0,1cec0 <_svfprintf_r+0x210c>
   1d7a8:	00100713          	li	a4,1
   1d7ac:	40670733          	sub	a4,a4,t1
   1d7b0:	0ce12623          	sw	a4,204(sp)
   1d7b4:	f10ff06f          	j	1cec4 <_svfprintf_r+0x2110>
   1d7b8:	05412783          	lw	a5,84(sp)
   1d7bc:	0017f713          	andi	a4,a5,1
   1d7c0:	00071463          	bnez	a4,1d7c8 <_svfprintf_r+0x2a14>
   1d7c4:	da1fd06f          	j	1b564 <_svfprintf_r+0x7b0>
   1d7c8:	d95fd06f          	j	1b55c <_svfprintf_r+0x7a8>
   1d7cc:	000d0793          	mv	a5,s10
   1d7d0:	b3cff06f          	j	1cb0c <_svfprintf_r+0x1d58>
   1d7d4:	00071a63          	bnez	a4,1d7e8 <_svfprintf_r+0x2a34>
   1d7d8:	00100993          	li	s3,1
   1d7dc:	06600a93          	li	s5,102
   1d7e0:	00100b13          	li	s6,1
   1d7e4:	dd0ff06f          	j	1cdb4 <_svfprintf_r+0x2000>
   1d7e8:	02812783          	lw	a5,40(sp)
   1d7ec:	06600a93          	li	s5,102
   1d7f0:	00178b13          	addi	s6,a5,1
   1d7f4:	006b0b33          	add	s6,s6,t1
   1d7f8:	fffb4993          	not	s3,s6
   1d7fc:	41f9d993          	srai	s3,s3,0x1f
   1d800:	013b79b3          	and	s3,s6,s3
   1d804:	db0ff06f          	j	1cdb4 <_svfprintf_r+0x2000>
   1d808:	01012703          	lw	a4,16(sp)
   1d80c:	00072c03          	lw	s8,0(a4)
   1d810:	00470713          	addi	a4,a4,4
   1d814:	000c5463          	bgez	s8,1d81c <_svfprintf_r+0x2a68>
   1d818:	fff00c13          	li	s8,-1
   1d81c:	0014ce03          	lbu	t3,1(s1)
   1d820:	00e12823          	sw	a4,16(sp)
   1d824:	00078493          	mv	s1,a5
   1d828:	ef0fd06f          	j	1af18 <_svfprintf_r+0x164>
   1d82c:	00090993          	mv	s3,s2
   1d830:	e79fd06f          	j	1b6a8 <_svfprintf_r+0x8f4>
   1d834:	00030993          	mv	s3,t1
   1d838:	ca5ff06f          	j	1d4dc <_svfprintf_r+0x2728>
   1d83c:	00200793          	li	a5,2
   1d840:	02f12c23          	sw	a5,56(sp)
   1d844:	d01fd06f          	j	1b544 <_svfprintf_r+0x790>
   1d848:	02412703          	lw	a4,36(sp)
   1d84c:	00c00793          	li	a5,12
   1d850:	00f72023          	sw	a5,0(a4)
   1d854:	fff00793          	li	a5,-1
   1d858:	00f12223          	sw	a5,4(sp)
   1d85c:	f9cfd06f          	j	1aff8 <_svfprintf_r+0x244>
   1d860:	00090993          	mv	s3,s2
   1d864:	d5dfd06f          	j	1b5c0 <_svfprintf_r+0x80c>
   1d868:	00812683          	lw	a3,8(sp)
   1d86c:	00c6d783          	lhu	a5,12(a3)
   1d870:	0407e713          	ori	a4,a5,64
   1d874:	00070793          	mv	a5,a4
   1d878:	00e69623          	sh	a4,12(a3)
   1d87c:	f70fd06f          	j	1afec <_svfprintf_r+0x238>

0001d880 <__sprint_r.part.0>:
   1d880:	0645a783          	lw	a5,100(a1)
   1d884:	fd010113          	addi	sp,sp,-48
   1d888:	01612823          	sw	s6,16(sp)
   1d88c:	02112623          	sw	ra,44(sp)
   1d890:	02812423          	sw	s0,40(sp)
   1d894:	02912223          	sw	s1,36(sp)
   1d898:	03212023          	sw	s2,32(sp)
   1d89c:	01312e23          	sw	s3,28(sp)
   1d8a0:	01412c23          	sw	s4,24(sp)
   1d8a4:	01512a23          	sw	s5,20(sp)
   1d8a8:	01712623          	sw	s7,12(sp)
   1d8ac:	01812423          	sw	s8,8(sp)
   1d8b0:	01279713          	slli	a4,a5,0x12
   1d8b4:	00060b13          	mv	s6,a2
   1d8b8:	0a075863          	bgez	a4,1d968 <__sprint_r.part.0+0xe8>
   1d8bc:	00862783          	lw	a5,8(a2)
   1d8c0:	00058913          	mv	s2,a1
   1d8c4:	00050a13          	mv	s4,a0
   1d8c8:	00062b83          	lw	s7,0(a2)
   1d8cc:	fff00a93          	li	s5,-1
   1d8d0:	08078863          	beqz	a5,1d960 <__sprint_r.part.0+0xe0>
   1d8d4:	004bac03          	lw	s8,4(s7)
   1d8d8:	000ba403          	lw	s0,0(s7)
   1d8dc:	002c5993          	srli	s3,s8,0x2
   1d8e0:	06098663          	beqz	s3,1d94c <__sprint_r.part.0+0xcc>
   1d8e4:	00000493          	li	s1,0
   1d8e8:	00c0006f          	j	1d8f4 <__sprint_r.part.0+0x74>
   1d8ec:	00440413          	addi	s0,s0,4
   1d8f0:	04998c63          	beq	s3,s1,1d948 <__sprint_r.part.0+0xc8>
   1d8f4:	00042583          	lw	a1,0(s0)
   1d8f8:	00090613          	mv	a2,s2
   1d8fc:	000a0513          	mv	a0,s4
   1d900:	021010ef          	jal	ra,1f120 <_fputwc_r>
   1d904:	00148493          	addi	s1,s1,1
   1d908:	ff5512e3          	bne	a0,s5,1d8ec <__sprint_r.part.0+0x6c>
   1d90c:	fff00513          	li	a0,-1
   1d910:	02c12083          	lw	ra,44(sp)
   1d914:	02812403          	lw	s0,40(sp)
   1d918:	000b2423          	sw	zero,8(s6)
   1d91c:	000b2223          	sw	zero,4(s6)
   1d920:	02412483          	lw	s1,36(sp)
   1d924:	02012903          	lw	s2,32(sp)
   1d928:	01c12983          	lw	s3,28(sp)
   1d92c:	01812a03          	lw	s4,24(sp)
   1d930:	01412a83          	lw	s5,20(sp)
   1d934:	01012b03          	lw	s6,16(sp)
   1d938:	00c12b83          	lw	s7,12(sp)
   1d93c:	00812c03          	lw	s8,8(sp)
   1d940:	03010113          	addi	sp,sp,48
   1d944:	00008067          	ret
   1d948:	008b2783          	lw	a5,8(s6)
   1d94c:	ffcc7c13          	andi	s8,s8,-4
   1d950:	418787b3          	sub	a5,a5,s8
   1d954:	00fb2423          	sw	a5,8(s6)
   1d958:	008b8b93          	addi	s7,s7,8
   1d95c:	f6079ce3          	bnez	a5,1d8d4 <__sprint_r.part.0+0x54>
   1d960:	00000513          	li	a0,0
   1d964:	fadff06f          	j	1d910 <__sprint_r.part.0+0x90>
   1d968:	895f70ef          	jal	ra,151fc <__sfvwrite_r>
   1d96c:	fa5ff06f          	j	1d910 <__sprint_r.part.0+0x90>

0001d970 <__sprint_r>:
   1d970:	00862703          	lw	a4,8(a2)
   1d974:	00070463          	beqz	a4,1d97c <__sprint_r+0xc>
   1d978:	f09ff06f          	j	1d880 <__sprint_r.part.0>
   1d97c:	00062223          	sw	zero,4(a2)
   1d980:	00000513          	li	a0,0
   1d984:	00008067          	ret

0001d988 <_vfiprintf_r>:
   1d988:	ed010113          	addi	sp,sp,-304
   1d98c:	13212023          	sw	s2,288(sp)
   1d990:	11312e23          	sw	s3,284(sp)
   1d994:	11812423          	sw	s8,264(sp)
   1d998:	12112623          	sw	ra,300(sp)
   1d99c:	12812423          	sw	s0,296(sp)
   1d9a0:	12912223          	sw	s1,292(sp)
   1d9a4:	11412c23          	sw	s4,280(sp)
   1d9a8:	11512a23          	sw	s5,276(sp)
   1d9ac:	11612823          	sw	s6,272(sp)
   1d9b0:	11712623          	sw	s7,268(sp)
   1d9b4:	11912223          	sw	s9,260(sp)
   1d9b8:	11a12023          	sw	s10,256(sp)
   1d9bc:	0fb12e23          	sw	s11,252(sp)
   1d9c0:	00d12623          	sw	a3,12(sp)
   1d9c4:	00050993          	mv	s3,a0
   1d9c8:	00058913          	mv	s2,a1
   1d9cc:	00060c13          	mv	s8,a2
   1d9d0:	00050663          	beqz	a0,1d9dc <_vfiprintf_r+0x54>
   1d9d4:	03852783          	lw	a5,56(a0)
   1d9d8:	180782e3          	beqz	a5,1e35c <_vfiprintf_r+0x9d4>
   1d9dc:	00c91703          	lh	a4,12(s2)
   1d9e0:	01071793          	slli	a5,a4,0x10
   1d9e4:	0107d793          	srli	a5,a5,0x10
   1d9e8:	01279693          	slli	a3,a5,0x12
   1d9ec:	0206c663          	bltz	a3,1da18 <_vfiprintf_r+0x90>
   1d9f0:	06492683          	lw	a3,100(s2)
   1d9f4:	000027b7          	lui	a5,0x2
   1d9f8:	00f767b3          	or	a5,a4,a5
   1d9fc:	ffffe737          	lui	a4,0xffffe
   1da00:	fff70713          	addi	a4,a4,-1 # ffffdfff <__global_pointer$+0xfffd5d2f>
   1da04:	00e6f733          	and	a4,a3,a4
   1da08:	00f91623          	sh	a5,12(s2)
   1da0c:	01079793          	slli	a5,a5,0x10
   1da10:	06e92223          	sw	a4,100(s2)
   1da14:	0107d793          	srli	a5,a5,0x10
   1da18:	0087f713          	andi	a4,a5,8
   1da1c:	16070863          	beqz	a4,1db8c <_vfiprintf_r+0x204>
   1da20:	01092703          	lw	a4,16(s2)
   1da24:	16070463          	beqz	a4,1db8c <_vfiprintf_r+0x204>
   1da28:	01a7f793          	andi	a5,a5,26
   1da2c:	00a00713          	li	a4,10
   1da30:	18e78063          	beq	a5,a4,1dbb0 <_vfiprintf_r+0x228>
   1da34:	ffff87b7          	lui	a5,0xffff8
   1da38:	04c10493          	addi	s1,sp,76
   1da3c:	8307c793          	xori	a5,a5,-2000
   1da40:	04912023          	sw	s1,64(sp)
   1da44:	04012423          	sw	zero,72(sp)
   1da48:	04012223          	sw	zero,68(sp)
   1da4c:	00012823          	sw	zero,16(sp)
   1da50:	00012c23          	sw	zero,24(sp)
   1da54:	02012023          	sw	zero,32(sp)
   1da58:	00012e23          	sw	zero,28(sp)
   1da5c:	00012423          	sw	zero,8(sp)
   1da60:	00007a97          	auipc	s5,0x7
   1da64:	5eca8a93          	addi	s5,s5,1516 # 2504c <zeroes.4490+0x10>
   1da68:	02f12223          	sw	a5,36(sp)
   1da6c:	00048413          	mv	s0,s1
   1da70:	000c0c93          	mv	s9,s8
   1da74:	000cc783          	lbu	a5,0(s9)
   1da78:	16078463          	beqz	a5,1dbe0 <_vfiprintf_r+0x258>
   1da7c:	02500713          	li	a4,37
   1da80:	5ce784e3          	beq	a5,a4,1e848 <_vfiprintf_r+0xec0>
   1da84:	000c8a13          	mv	s4,s9
   1da88:	00c0006f          	j	1da94 <_vfiprintf_r+0x10c>
   1da8c:	14e78463          	beq	a5,a4,1dbd4 <_vfiprintf_r+0x24c>
   1da90:	000d0a13          	mv	s4,s10
   1da94:	001a4783          	lbu	a5,1(s4)
   1da98:	001a0d13          	addi	s10,s4,1
   1da9c:	fe0798e3          	bnez	a5,1da8c <_vfiprintf_r+0x104>
   1daa0:	419d0c33          	sub	s8,s10,s9
   1daa4:	120c0e63          	beqz	s8,1dbe0 <_vfiprintf_r+0x258>
   1daa8:	04812703          	lw	a4,72(sp)
   1daac:	04412783          	lw	a5,68(sp)
   1dab0:	01942023          	sw	s9,0(s0)
   1dab4:	00ec0733          	add	a4,s8,a4
   1dab8:	00178793          	addi	a5,a5,1 # ffff8001 <__global_pointer$+0xfffcfd31>
   1dabc:	01842223          	sw	s8,4(s0)
   1dac0:	04e12423          	sw	a4,72(sp)
   1dac4:	04f12223          	sw	a5,68(sp)
   1dac8:	00700693          	li	a3,7
   1dacc:	00840413          	addi	s0,s0,8
   1dad0:	02f6d063          	bge	a3,a5,1daf0 <_vfiprintf_r+0x168>
   1dad4:	520706e3          	beqz	a4,1e800 <_vfiprintf_r+0xe78>
   1dad8:	04010613          	addi	a2,sp,64
   1dadc:	00090593          	mv	a1,s2
   1dae0:	00098513          	mv	a0,s3
   1dae4:	d9dff0ef          	jal	ra,1d880 <__sprint_r.part.0>
   1dae8:	10051863          	bnez	a0,1dbf8 <_vfiprintf_r+0x270>
   1daec:	00048413          	mv	s0,s1
   1daf0:	00812703          	lw	a4,8(sp)
   1daf4:	001a4783          	lbu	a5,1(s4)
   1daf8:	01870733          	add	a4,a4,s8
   1dafc:	00e12423          	sw	a4,8(sp)
   1db00:	0e078063          	beqz	a5,1dbe0 <_vfiprintf_r+0x258>
   1db04:	001d0c93          	addi	s9,s10,1
   1db08:	001d4703          	lbu	a4,1(s10)
   1db0c:	02010da3          	sb	zero,59(sp)
   1db10:	fff00c13          	li	s8,-1
   1db14:	00000a13          	li	s4,0
   1db18:	00000b93          	li	s7,0
   1db1c:	02a00d13          	li	s10,42
   1db20:	001c8c93          	addi	s9,s9,1
   1db24:	05a00693          	li	a3,90
   1db28:	fe070793          	addi	a5,a4,-32
   1db2c:	1ef6e063          	bltu	a3,a5,1dd0c <_vfiprintf_r+0x384>
   1db30:	00279793          	slli	a5,a5,0x2
   1db34:	015787b3          	add	a5,a5,s5
   1db38:	0007a783          	lw	a5,0(a5)
   1db3c:	015787b3          	add	a5,a5,s5
   1db40:	00078067          	jr	a5
   1db44:	00098513          	mv	a0,s3
   1db48:	805fa0ef          	jal	ra,1834c <_localeconv_r>
   1db4c:	00452783          	lw	a5,4(a0)
   1db50:	00078513          	mv	a0,a5
   1db54:	00f12e23          	sw	a5,28(sp)
   1db58:	c6df30ef          	jal	ra,117c4 <strlen>
   1db5c:	02a12023          	sw	a0,32(sp)
   1db60:	00050b13          	mv	s6,a0
   1db64:	00098513          	mv	a0,s3
   1db68:	fe4fa0ef          	jal	ra,1834c <_localeconv_r>
   1db6c:	00852783          	lw	a5,8(a0)
   1db70:	00f12c23          	sw	a5,24(sp)
   1db74:	560b14e3          	bnez	s6,1e8dc <_vfiprintf_r+0xf54>
   1db78:	000cc703          	lbu	a4,0(s9)
   1db7c:	fa5ff06f          	j	1db20 <_vfiprintf_r+0x198>
   1db80:	020beb93          	ori	s7,s7,32
   1db84:	000cc703          	lbu	a4,0(s9)
   1db88:	f99ff06f          	j	1db20 <_vfiprintf_r+0x198>
   1db8c:	00090593          	mv	a1,s2
   1db90:	00098513          	mv	a0,s3
   1db94:	8b5f60ef          	jal	ra,14448 <__swsetup_r>
   1db98:	00050463          	beqz	a0,1dba0 <_vfiprintf_r+0x218>
   1db9c:	0600106f          	j	1ebfc <_vfiprintf_r+0x1274>
   1dba0:	00c95783          	lhu	a5,12(s2)
   1dba4:	00a00713          	li	a4,10
   1dba8:	01a7f793          	andi	a5,a5,26
   1dbac:	e8e794e3          	bne	a5,a4,1da34 <_vfiprintf_r+0xac>
   1dbb0:	00e91783          	lh	a5,14(s2)
   1dbb4:	e807c0e3          	bltz	a5,1da34 <_vfiprintf_r+0xac>
   1dbb8:	00c12683          	lw	a3,12(sp)
   1dbbc:	000c0613          	mv	a2,s8
   1dbc0:	00090593          	mv	a1,s2
   1dbc4:	00098513          	mv	a0,s3
   1dbc8:	0a8010ef          	jal	ra,1ec70 <__sbprintf>
   1dbcc:	00a12423          	sw	a0,8(sp)
   1dbd0:	0380006f          	j	1dc08 <_vfiprintf_r+0x280>
   1dbd4:	419d0c33          	sub	s8,s10,s9
   1dbd8:	f20c06e3          	beqz	s8,1db04 <_vfiprintf_r+0x17c>
   1dbdc:	ecdff06f          	j	1daa8 <_vfiprintf_r+0x120>
   1dbe0:	04812783          	lw	a5,72(sp)
   1dbe4:	00078a63          	beqz	a5,1dbf8 <_vfiprintf_r+0x270>
   1dbe8:	04010613          	addi	a2,sp,64
   1dbec:	00090593          	mv	a1,s2
   1dbf0:	00098513          	mv	a0,s3
   1dbf4:	c8dff0ef          	jal	ra,1d880 <__sprint_r.part.0>
   1dbf8:	00c95783          	lhu	a5,12(s2)
   1dbfc:	0407f793          	andi	a5,a5,64
   1dc00:	00078463          	beqz	a5,1dc08 <_vfiprintf_r+0x280>
   1dc04:	7f90006f          	j	1ebfc <_vfiprintf_r+0x1274>
   1dc08:	12c12083          	lw	ra,300(sp)
   1dc0c:	12812403          	lw	s0,296(sp)
   1dc10:	00812503          	lw	a0,8(sp)
   1dc14:	12412483          	lw	s1,292(sp)
   1dc18:	12012903          	lw	s2,288(sp)
   1dc1c:	11c12983          	lw	s3,284(sp)
   1dc20:	11812a03          	lw	s4,280(sp)
   1dc24:	11412a83          	lw	s5,276(sp)
   1dc28:	11012b03          	lw	s6,272(sp)
   1dc2c:	10c12b83          	lw	s7,268(sp)
   1dc30:	10812c03          	lw	s8,264(sp)
   1dc34:	10412c83          	lw	s9,260(sp)
   1dc38:	10012d03          	lw	s10,256(sp)
   1dc3c:	0fc12d83          	lw	s11,252(sp)
   1dc40:	13010113          	addi	sp,sp,304
   1dc44:	00008067          	ret
   1dc48:	00007797          	auipc	a5,0x7
   1dc4c:	ea478793          	addi	a5,a5,-348 # 24aec <zeroes.4505+0x34>
   1dc50:	00f12823          	sw	a5,16(sp)
   1dc54:	020bf793          	andi	a5,s7,32
   1dc58:	52078463          	beqz	a5,1e180 <_vfiprintf_r+0x7f8>
   1dc5c:	00c12783          	lw	a5,12(sp)
   1dc60:	00778693          	addi	a3,a5,7
   1dc64:	ff86f693          	andi	a3,a3,-8
   1dc68:	0006ad83          	lw	s11,0(a3)
   1dc6c:	0046ae03          	lw	t3,4(a3)
   1dc70:	00868793          	addi	a5,a3,8
   1dc74:	00f12623          	sw	a5,12(sp)
   1dc78:	001bf693          	andi	a3,s7,1
   1dc7c:	00068663          	beqz	a3,1dc88 <_vfiprintf_r+0x300>
   1dc80:	01cde6b3          	or	a3,s11,t3
   1dc84:	42069ee3          	bnez	a3,1e8c0 <_vfiprintf_r+0xf38>
   1dc88:	bffbfd13          	andi	s10,s7,-1025
   1dc8c:	00200713          	li	a4,2
   1dc90:	02010da3          	sb	zero,59(sp)
   1dc94:	fff00693          	li	a3,-1
   1dc98:	64dc0a63          	beq	s8,a3,1e2ec <_vfiprintf_r+0x964>
   1dc9c:	01cde6b3          	or	a3,s11,t3
   1dca0:	f7fd7b93          	andi	s7,s10,-129
   1dca4:	20069ee3          	bnez	a3,1e6c0 <_vfiprintf_r+0xd38>
   1dca8:	720c1c63          	bnez	s8,1e3e0 <_vfiprintf_r+0xa58>
   1dcac:	360712e3          	bnez	a4,1e810 <_vfiprintf_r+0xe88>
   1dcb0:	001d7d93          	andi	s11,s10,1
   1dcb4:	0f010b13          	addi	s6,sp,240
   1dcb8:	3a0d96e3          	bnez	s11,1e864 <_vfiprintf_r+0xedc>
   1dcbc:	000c0d13          	mv	s10,s8
   1dcc0:	01bc5463          	bge	s8,s11,1dcc8 <_vfiprintf_r+0x340>
   1dcc4:	000d8d13          	mv	s10,s11
   1dcc8:	03b14783          	lbu	a5,59(sp)
   1dccc:	00f037b3          	snez	a5,a5
   1dcd0:	00fd0d33          	add	s10,s10,a5
   1dcd4:	0540006f          	j	1dd28 <_vfiprintf_r+0x3a0>
   1dcd8:	00000a13          	li	s4,0
   1dcdc:	fd070613          	addi	a2,a4,-48
   1dce0:	001c8c93          	addi	s9,s9,1
   1dce4:	002a1793          	slli	a5,s4,0x2
   1dce8:	fffcc703          	lbu	a4,-1(s9)
   1dcec:	01478a33          	add	s4,a5,s4
   1dcf0:	001a1a13          	slli	s4,s4,0x1
   1dcf4:	01460a33          	add	s4,a2,s4
   1dcf8:	00900793          	li	a5,9
   1dcfc:	fd070613          	addi	a2,a4,-48
   1dd00:	fec7f0e3          	bgeu	a5,a2,1dce0 <_vfiprintf_r+0x358>
   1dd04:	fe070793          	addi	a5,a4,-32
   1dd08:	e2f6f4e3          	bgeu	a3,a5,1db30 <_vfiprintf_r+0x1a8>
   1dd0c:	ec070ae3          	beqz	a4,1dbe0 <_vfiprintf_r+0x258>
   1dd10:	08e10623          	sb	a4,140(sp)
   1dd14:	02010da3          	sb	zero,59(sp)
   1dd18:	00100d13          	li	s10,1
   1dd1c:	00100d93          	li	s11,1
   1dd20:	08c10b13          	addi	s6,sp,140
   1dd24:	00000c13          	li	s8,0
   1dd28:	002bff93          	andi	t6,s7,2
   1dd2c:	000f8463          	beqz	t6,1dd34 <_vfiprintf_r+0x3ac>
   1dd30:	002d0d13          	addi	s10,s10,2
   1dd34:	04412703          	lw	a4,68(sp)
   1dd38:	084bf813          	andi	a6,s7,132
   1dd3c:	04812783          	lw	a5,72(sp)
   1dd40:	00170693          	addi	a3,a4,1
   1dd44:	00068613          	mv	a2,a3
   1dd48:	00081663          	bnez	a6,1dd54 <_vfiprintf_r+0x3cc>
   1dd4c:	41aa0e33          	sub	t3,s4,s10
   1dd50:	17c04ce3          	bgtz	t3,1e6c8 <_vfiprintf_r+0xd40>
   1dd54:	03b14583          	lbu	a1,59(sp)
   1dd58:	00840693          	addi	a3,s0,8
   1dd5c:	02058c63          	beqz	a1,1dd94 <_vfiprintf_r+0x40c>
   1dd60:	03b10713          	addi	a4,sp,59
   1dd64:	00178793          	addi	a5,a5,1
   1dd68:	00e42023          	sw	a4,0(s0)
   1dd6c:	00100713          	li	a4,1
   1dd70:	00e42223          	sw	a4,4(s0)
   1dd74:	04f12423          	sw	a5,72(sp)
   1dd78:	04c12223          	sw	a2,68(sp)
   1dd7c:	00700713          	li	a4,7
   1dd80:	10c740e3          	blt	a4,a2,1e680 <_vfiprintf_r+0xcf8>
   1dd84:	00060713          	mv	a4,a2
   1dd88:	00068413          	mv	s0,a3
   1dd8c:	00160613          	addi	a2,a2,1
   1dd90:	00868693          	addi	a3,a3,8
   1dd94:	040f8e63          	beqz	t6,1ddf0 <_vfiprintf_r+0x468>
   1dd98:	03c10713          	addi	a4,sp,60
   1dd9c:	00278793          	addi	a5,a5,2
   1dda0:	00e42023          	sw	a4,0(s0)
   1dda4:	00200713          	li	a4,2
   1dda8:	00e42223          	sw	a4,4(s0)
   1ddac:	04f12423          	sw	a5,72(sp)
   1ddb0:	04c12223          	sw	a2,68(sp)
   1ddb4:	00700713          	li	a4,7
   1ddb8:	0ac75ae3          	bge	a4,a2,1e66c <_vfiprintf_r+0xce4>
   1ddbc:	26078ce3          	beqz	a5,1e834 <_vfiprintf_r+0xeac>
   1ddc0:	04010613          	addi	a2,sp,64
   1ddc4:	00090593          	mv	a1,s2
   1ddc8:	00098513          	mv	a0,s3
   1ddcc:	01012a23          	sw	a6,20(sp)
   1ddd0:	ab1ff0ef          	jal	ra,1d880 <__sprint_r.part.0>
   1ddd4:	e20512e3          	bnez	a0,1dbf8 <_vfiprintf_r+0x270>
   1ddd8:	04412703          	lw	a4,68(sp)
   1dddc:	04812783          	lw	a5,72(sp)
   1dde0:	01412803          	lw	a6,20(sp)
   1dde4:	05410693          	addi	a3,sp,84
   1dde8:	00170613          	addi	a2,a4,1
   1ddec:	00048413          	mv	s0,s1
   1ddf0:	08000593          	li	a1,128
   1ddf4:	64b80a63          	beq	a6,a1,1e448 <_vfiprintf_r+0xac0>
   1ddf8:	41bc0c33          	sub	s8,s8,s11
   1ddfc:	75804663          	bgtz	s8,1e548 <_vfiprintf_r+0xbc0>
   1de00:	00fd87b3          	add	a5,s11,a5
   1de04:	01642023          	sw	s6,0(s0)
   1de08:	01b42223          	sw	s11,4(s0)
   1de0c:	04f12423          	sw	a5,72(sp)
   1de10:	04c12223          	sw	a2,68(sp)
   1de14:	00700713          	li	a4,7
   1de18:	02c75263          	bge	a4,a2,1de3c <_vfiprintf_r+0x4b4>
   1de1c:	18078463          	beqz	a5,1dfa4 <_vfiprintf_r+0x61c>
   1de20:	04010613          	addi	a2,sp,64
   1de24:	00090593          	mv	a1,s2
   1de28:	00098513          	mv	a0,s3
   1de2c:	a55ff0ef          	jal	ra,1d880 <__sprint_r.part.0>
   1de30:	dc0514e3          	bnez	a0,1dbf8 <_vfiprintf_r+0x270>
   1de34:	04812783          	lw	a5,72(sp)
   1de38:	00048693          	mv	a3,s1
   1de3c:	004bf893          	andi	a7,s7,4
   1de40:	00088663          	beqz	a7,1de4c <_vfiprintf_r+0x4c4>
   1de44:	41aa0433          	sub	s0,s4,s10
   1de48:	16804a63          	bgtz	s0,1dfbc <_vfiprintf_r+0x634>
   1de4c:	01aa5463          	bge	s4,s10,1de54 <_vfiprintf_r+0x4cc>
   1de50:	000d0a13          	mv	s4,s10
   1de54:	00812703          	lw	a4,8(sp)
   1de58:	01470733          	add	a4,a4,s4
   1de5c:	00e12423          	sw	a4,8(sp)
   1de60:	7a079e63          	bnez	a5,1e61c <_vfiprintf_r+0xc94>
   1de64:	04012223          	sw	zero,68(sp)
   1de68:	00048413          	mv	s0,s1
   1de6c:	c09ff06f          	j	1da74 <_vfiprintf_r+0xec>
   1de70:	020bf793          	andi	a5,s7,32
   1de74:	010bed13          	ori	s10,s7,16
   1de78:	54079263          	bnez	a5,1e3bc <_vfiprintf_r+0xa34>
   1de7c:	00c12783          	lw	a5,12(sp)
   1de80:	00478713          	addi	a4,a5,4
   1de84:	00c12783          	lw	a5,12(sp)
   1de88:	00000e13          	li	t3,0
   1de8c:	00e12623          	sw	a4,12(sp)
   1de90:	0007ad83          	lw	s11,0(a5)
   1de94:	00100713          	li	a4,1
   1de98:	df9ff06f          	j	1dc90 <_vfiprintf_r+0x308>
   1de9c:	080beb93          	ori	s7,s7,128
   1dea0:	000cc703          	lbu	a4,0(s9)
   1dea4:	c7dff06f          	j	1db20 <_vfiprintf_r+0x198>
   1dea8:	00c12783          	lw	a5,12(sp)
   1deac:	02010da3          	sb	zero,59(sp)
   1deb0:	0007ab03          	lw	s6,0(a5)
   1deb4:	00478713          	addi	a4,a5,4
   1deb8:	380b06e3          	beqz	s6,1ea44 <_vfiprintf_r+0x10bc>
   1debc:	fff00793          	li	a5,-1
   1dec0:	00e12623          	sw	a4,12(sp)
   1dec4:	24fc08e3          	beq	s8,a5,1e914 <_vfiprintf_r+0xf8c>
   1dec8:	000c0613          	mv	a2,s8
   1decc:	00000593          	li	a1,0
   1ded0:	000b0513          	mv	a0,s6
   1ded4:	f9dfa0ef          	jal	ra,18e70 <memchr>
   1ded8:	00c12703          	lw	a4,12(sp)
   1dedc:	4e0508e3          	beqz	a0,1ebcc <_vfiprintf_r+0x1244>
   1dee0:	41650db3          	sub	s11,a0,s6
   1dee4:	00000c13          	li	s8,0
   1dee8:	dd5ff06f          	j	1dcbc <_vfiprintf_r+0x334>
   1deec:	020bf793          	andi	a5,s7,32
   1def0:	010be893          	ori	a7,s7,16
   1def4:	46079a63          	bnez	a5,1e368 <_vfiprintf_r+0x9e0>
   1def8:	00c12783          	lw	a5,12(sp)
   1defc:	00478713          	addi	a4,a5,4
   1df00:	00c12783          	lw	a5,12(sp)
   1df04:	00000e13          	li	t3,0
   1df08:	00e12623          	sw	a4,12(sp)
   1df0c:	0007ad83          	lw	s11,0(a5)
   1df10:	4740006f          	j	1e384 <_vfiprintf_r+0x9fc>
   1df14:	020bf793          	andi	a5,s7,32
   1df18:	010bed13          	ori	s10,s7,16
   1df1c:	46079c63          	bnez	a5,1e394 <_vfiprintf_r+0xa0c>
   1df20:	00c12783          	lw	a5,12(sp)
   1df24:	00478713          	addi	a4,a5,4
   1df28:	00c12783          	lw	a5,12(sp)
   1df2c:	00e12623          	sw	a4,12(sp)
   1df30:	0007ad83          	lw	s11,0(a5)
   1df34:	41fdde13          	srai	t3,s11,0x1f
   1df38:	000e0713          	mv	a4,t3
   1df3c:	38074463          	bltz	a4,1e2c4 <_vfiprintf_r+0x93c>
   1df40:	fff00713          	li	a4,-1
   1df44:	00ec0a63          	beq	s8,a4,1df58 <_vfiprintf_r+0x5d0>
   1df48:	01cde733          	or	a4,s11,t3
   1df4c:	f7fd7b93          	andi	s7,s10,-129
   1df50:	0a070ee3          	beqz	a4,1e80c <_vfiprintf_r+0xe84>
   1df54:	000b8d13          	mv	s10,s7
   1df58:	1e0e18e3          	bnez	t3,1e948 <_vfiprintf_r+0xfc0>
   1df5c:	00900793          	li	a5,9
   1df60:	1fb7e4e3          	bltu	a5,s11,1e948 <_vfiprintf_r+0xfc0>
   1df64:	030d8793          	addi	a5,s11,48 # 3ffe0030 <__global_pointer$+0x3ffb7d60>
   1df68:	0ef107a3          	sb	a5,239(sp)
   1df6c:	000d0b93          	mv	s7,s10
   1df70:	00100d93          	li	s11,1
   1df74:	0ef10b13          	addi	s6,sp,239
   1df78:	d45ff06f          	j	1dcbc <_vfiprintf_r+0x334>
   1df7c:	00c12703          	lw	a4,12(sp)
   1df80:	02010da3          	sb	zero,59(sp)
   1df84:	00100d13          	li	s10,1
   1df88:	00072783          	lw	a5,0(a4)
   1df8c:	00470713          	addi	a4,a4,4
   1df90:	00e12623          	sw	a4,12(sp)
   1df94:	08f10623          	sb	a5,140(sp)
   1df98:	00100d93          	li	s11,1
   1df9c:	08c10b13          	addi	s6,sp,140
   1dfa0:	d85ff06f          	j	1dd24 <_vfiprintf_r+0x39c>
   1dfa4:	04012223          	sw	zero,68(sp)
   1dfa8:	004bf893          	andi	a7,s7,4
   1dfac:	000886e3          	beqz	a7,1e7b8 <_vfiprintf_r+0xe30>
   1dfb0:	41aa0433          	sub	s0,s4,s10
   1dfb4:	008052e3          	blez	s0,1e7b8 <_vfiprintf_r+0xe30>
   1dfb8:	00048693          	mv	a3,s1
   1dfbc:	01000713          	li	a4,16
   1dfc0:	04412603          	lw	a2,68(sp)
   1dfc4:	428754e3          	bge	a4,s0,1ebec <_vfiprintf_r+0x1264>
   1dfc8:	00007e97          	auipc	t4,0x7
   1dfcc:	1f0e8e93          	addi	t4,t4,496 # 251b8 <blanks.4480>
   1dfd0:	01000c13          	li	s8,16
   1dfd4:	00700d93          	li	s11,7
   1dfd8:	000e8b13          	mv	s6,t4
   1dfdc:	0180006f          	j	1dff4 <_vfiprintf_r+0x66c>
   1dfe0:	00260593          	addi	a1,a2,2
   1dfe4:	00868693          	addi	a3,a3,8
   1dfe8:	00070613          	mv	a2,a4
   1dfec:	ff040413          	addi	s0,s0,-16
   1dff0:	048c5863          	bge	s8,s0,1e040 <_vfiprintf_r+0x6b8>
   1dff4:	01078793          	addi	a5,a5,16
   1dff8:	00160713          	addi	a4,a2,1
   1dffc:	0166a023          	sw	s6,0(a3)
   1e000:	0186a223          	sw	s8,4(a3)
   1e004:	04f12423          	sw	a5,72(sp)
   1e008:	04e12223          	sw	a4,68(sp)
   1e00c:	fceddae3          	bge	s11,a4,1dfe0 <_vfiprintf_r+0x658>
   1e010:	42078463          	beqz	a5,1e438 <_vfiprintf_r+0xab0>
   1e014:	04010613          	addi	a2,sp,64
   1e018:	00090593          	mv	a1,s2
   1e01c:	00098513          	mv	a0,s3
   1e020:	861ff0ef          	jal	ra,1d880 <__sprint_r.part.0>
   1e024:	bc051ae3          	bnez	a0,1dbf8 <_vfiprintf_r+0x270>
   1e028:	04412603          	lw	a2,68(sp)
   1e02c:	ff040413          	addi	s0,s0,-16
   1e030:	04812783          	lw	a5,72(sp)
   1e034:	00048693          	mv	a3,s1
   1e038:	00160593          	addi	a1,a2,1
   1e03c:	fa8c4ce3          	blt	s8,s0,1dff4 <_vfiprintf_r+0x66c>
   1e040:	000b0e93          	mv	t4,s6
   1e044:	008787b3          	add	a5,a5,s0
   1e048:	01d6a023          	sw	t4,0(a3)
   1e04c:	0086a223          	sw	s0,4(a3)
   1e050:	04f12423          	sw	a5,72(sp)
   1e054:	04b12223          	sw	a1,68(sp)
   1e058:	00700713          	li	a4,7
   1e05c:	deb758e3          	bge	a4,a1,1de4c <_vfiprintf_r+0x4c4>
   1e060:	74078c63          	beqz	a5,1e7b8 <_vfiprintf_r+0xe30>
   1e064:	04010613          	addi	a2,sp,64
   1e068:	00090593          	mv	a1,s2
   1e06c:	00098513          	mv	a0,s3
   1e070:	811ff0ef          	jal	ra,1d880 <__sprint_r.part.0>
   1e074:	b80512e3          	bnez	a0,1dbf8 <_vfiprintf_r+0x270>
   1e078:	04812783          	lw	a5,72(sp)
   1e07c:	dd1ff06f          	j	1de4c <_vfiprintf_r+0x4c4>
   1e080:	03b14783          	lbu	a5,59(sp)
   1e084:	000cc703          	lbu	a4,0(s9)
   1e088:	a8079ce3          	bnez	a5,1db20 <_vfiprintf_r+0x198>
   1e08c:	02000793          	li	a5,32
   1e090:	02f10da3          	sb	a5,59(sp)
   1e094:	a8dff06f          	j	1db20 <_vfiprintf_r+0x198>
   1e098:	02b00793          	li	a5,43
   1e09c:	02f10da3          	sb	a5,59(sp)
   1e0a0:	000cc703          	lbu	a4,0(s9)
   1e0a4:	a7dff06f          	j	1db20 <_vfiprintf_r+0x198>
   1e0a8:	00c12783          	lw	a5,12(sp)
   1e0ac:	000cc703          	lbu	a4,0(s9)
   1e0b0:	0007aa03          	lw	s4,0(a5)
   1e0b4:	00478793          	addi	a5,a5,4
   1e0b8:	00f12623          	sw	a5,12(sp)
   1e0bc:	a60a52e3          	bgez	s4,1db20 <_vfiprintf_r+0x198>
   1e0c0:	41400a33          	neg	s4,s4
   1e0c4:	004beb93          	ori	s7,s7,4
   1e0c8:	a59ff06f          	j	1db20 <_vfiprintf_r+0x198>
   1e0cc:	001beb93          	ori	s7,s7,1
   1e0d0:	000cc703          	lbu	a4,0(s9)
   1e0d4:	a4dff06f          	j	1db20 <_vfiprintf_r+0x198>
   1e0d8:	000cc703          	lbu	a4,0(s9)
   1e0dc:	001c8793          	addi	a5,s9,1
   1e0e0:	33a70ee3          	beq	a4,s10,1ec1c <_vfiprintf_r+0x1294>
   1e0e4:	00078c93          	mv	s9,a5
   1e0e8:	fd070613          	addi	a2,a4,-48
   1e0ec:	00900793          	li	a5,9
   1e0f0:	00000c13          	li	s8,0
   1e0f4:	a2c7eae3          	bltu	a5,a2,1db28 <_vfiprintf_r+0x1a0>
   1e0f8:	001c8c93          	addi	s9,s9,1
   1e0fc:	002c1793          	slli	a5,s8,0x2
   1e100:	fffcc703          	lbu	a4,-1(s9)
   1e104:	01878c33          	add	s8,a5,s8
   1e108:	001c1c13          	slli	s8,s8,0x1
   1e10c:	00cc0c33          	add	s8,s8,a2
   1e110:	00900793          	li	a5,9
   1e114:	fd070613          	addi	a2,a4,-48
   1e118:	fec7f0e3          	bgeu	a5,a2,1e0f8 <_vfiprintf_r+0x770>
   1e11c:	a0dff06f          	j	1db28 <_vfiprintf_r+0x1a0>
   1e120:	000cc703          	lbu	a4,0(s9)
   1e124:	004beb93          	ori	s7,s7,4
   1e128:	9f9ff06f          	j	1db20 <_vfiprintf_r+0x198>
   1e12c:	020bf793          	andi	a5,s7,32
   1e130:	28079463          	bnez	a5,1e3b8 <_vfiprintf_r+0xa30>
   1e134:	00c12783          	lw	a5,12(sp)
   1e138:	010bf693          	andi	a3,s7,16
   1e13c:	00478713          	addi	a4,a5,4
   1e140:	0007a783          	lw	a5,0(a5)
   1e144:	2e069ee3          	bnez	a3,1ec40 <_vfiprintf_r+0x12b8>
   1e148:	040bf693          	andi	a3,s7,64
   1e14c:	10068ce3          	beqz	a3,1ea64 <_vfiprintf_r+0x10dc>
   1e150:	01079d93          	slli	s11,a5,0x10
   1e154:	00e12623          	sw	a4,12(sp)
   1e158:	010ddd93          	srli	s11,s11,0x10
   1e15c:	00000e13          	li	t3,0
   1e160:	000b8d13          	mv	s10,s7
   1e164:	00100713          	li	a4,1
   1e168:	b29ff06f          	j	1dc90 <_vfiprintf_r+0x308>
   1e16c:	00007797          	auipc	a5,0x7
   1e170:	96c78793          	addi	a5,a5,-1684 # 24ad8 <zeroes.4505+0x20>
   1e174:	00f12823          	sw	a5,16(sp)
   1e178:	020bf793          	andi	a5,s7,32
   1e17c:	ae0790e3          	bnez	a5,1dc5c <_vfiprintf_r+0x2d4>
   1e180:	00c12603          	lw	a2,12(sp)
   1e184:	010bf693          	andi	a3,s7,16
   1e188:	00062783          	lw	a5,0(a2)
   1e18c:	00460613          	addi	a2,a2,4
   1e190:	00c12623          	sw	a2,12(sp)
   1e194:	68069a63          	bnez	a3,1e828 <_vfiprintf_r+0xea0>
   1e198:	040bf693          	andi	a3,s7,64
   1e19c:	68068263          	beqz	a3,1e820 <_vfiprintf_r+0xe98>
   1e1a0:	01079d93          	slli	s11,a5,0x10
   1e1a4:	010ddd93          	srli	s11,s11,0x10
   1e1a8:	00000e13          	li	t3,0
   1e1ac:	acdff06f          	j	1dc78 <_vfiprintf_r+0x2f0>
   1e1b0:	00c12783          	lw	a5,12(sp)
   1e1b4:	02412703          	lw	a4,36(sp)
   1e1b8:	00000e13          	li	t3,0
   1e1bc:	0007ad83          	lw	s11,0(a5)
   1e1c0:	00478793          	addi	a5,a5,4
   1e1c4:	00f12623          	sw	a5,12(sp)
   1e1c8:	00007797          	auipc	a5,0x7
   1e1cc:	91078793          	addi	a5,a5,-1776 # 24ad8 <zeroes.4505+0x20>
   1e1d0:	02e11e23          	sh	a4,60(sp)
   1e1d4:	002bed13          	ori	s10,s7,2
   1e1d8:	00f12823          	sw	a5,16(sp)
   1e1dc:	00200713          	li	a4,2
   1e1e0:	ab1ff06f          	j	1dc90 <_vfiprintf_r+0x308>
   1e1e4:	020bf793          	andi	a5,s7,32
   1e1e8:	16079e63          	bnez	a5,1e364 <_vfiprintf_r+0x9dc>
   1e1ec:	00c12783          	lw	a5,12(sp)
   1e1f0:	010bf693          	andi	a3,s7,16
   1e1f4:	00478713          	addi	a4,a5,4
   1e1f8:	0007a783          	lw	a5,0(a5)
   1e1fc:	240696e3          	bnez	a3,1ec48 <_vfiprintf_r+0x12c0>
   1e200:	040bf693          	andi	a3,s7,64
   1e204:	080680e3          	beqz	a3,1ea84 <_vfiprintf_r+0x10fc>
   1e208:	01079d93          	slli	s11,a5,0x10
   1e20c:	010ddd93          	srli	s11,s11,0x10
   1e210:	00000e13          	li	t3,0
   1e214:	000b8893          	mv	a7,s7
   1e218:	00e12623          	sw	a4,12(sp)
   1e21c:	1680006f          	j	1e384 <_vfiprintf_r+0x9fc>
   1e220:	00c12683          	lw	a3,12(sp)
   1e224:	020bf793          	andi	a5,s7,32
   1e228:	00468713          	addi	a4,a3,4
   1e22c:	6c079663          	bnez	a5,1e8f8 <_vfiprintf_r+0xf70>
   1e230:	010bf793          	andi	a5,s7,16
   1e234:	7e079c63          	bnez	a5,1ea2c <_vfiprintf_r+0x10a4>
   1e238:	040bf793          	andi	a5,s7,64
   1e23c:	100798e3          	bnez	a5,1eb4c <_vfiprintf_r+0x11c4>
   1e240:	200bf893          	andi	a7,s7,512
   1e244:	7e088463          	beqz	a7,1ea2c <_vfiprintf_r+0x10a4>
   1e248:	00c12783          	lw	a5,12(sp)
   1e24c:	00e12623          	sw	a4,12(sp)
   1e250:	00812703          	lw	a4,8(sp)
   1e254:	0007a783          	lw	a5,0(a5)
   1e258:	00e78023          	sb	a4,0(a5)
   1e25c:	819ff06f          	j	1da74 <_vfiprintf_r+0xec>
   1e260:	000cc703          	lbu	a4,0(s9)
   1e264:	06c00793          	li	a5,108
   1e268:	7af70a63          	beq	a4,a5,1ea1c <_vfiprintf_r+0x1094>
   1e26c:	010beb93          	ori	s7,s7,16
   1e270:	8b1ff06f          	j	1db20 <_vfiprintf_r+0x198>
   1e274:	000cc703          	lbu	a4,0(s9)
   1e278:	06800793          	li	a5,104
   1e27c:	78f70863          	beq	a4,a5,1ea0c <_vfiprintf_r+0x1084>
   1e280:	040beb93          	ori	s7,s7,64
   1e284:	89dff06f          	j	1db20 <_vfiprintf_r+0x198>
   1e288:	020bf793          	andi	a5,s7,32
   1e28c:	10079263          	bnez	a5,1e390 <_vfiprintf_r+0xa08>
   1e290:	00c12703          	lw	a4,12(sp)
   1e294:	010bf793          	andi	a5,s7,16
   1e298:	00470713          	addi	a4,a4,4
   1e29c:	1a079ae3          	bnez	a5,1ec50 <_vfiprintf_r+0x12c8>
   1e2a0:	040bf793          	andi	a5,s7,64
   1e2a4:	7e078e63          	beqz	a5,1eaa0 <_vfiprintf_r+0x1118>
   1e2a8:	00c12783          	lw	a5,12(sp)
   1e2ac:	00e12623          	sw	a4,12(sp)
   1e2b0:	000b8d13          	mv	s10,s7
   1e2b4:	00079d83          	lh	s11,0(a5)
   1e2b8:	41fdde13          	srai	t3,s11,0x1f
   1e2bc:	000e0713          	mv	a4,t3
   1e2c0:	c80750e3          	bgez	a4,1df40 <_vfiprintf_r+0x5b8>
   1e2c4:	41b007b3          	neg	a5,s11
   1e2c8:	00f03733          	snez	a4,a5
   1e2cc:	41c00e33          	neg	t3,t3
   1e2d0:	40ee0e33          	sub	t3,t3,a4
   1e2d4:	02d00713          	li	a4,45
   1e2d8:	02e10da3          	sb	a4,59(sp)
   1e2dc:	fff00693          	li	a3,-1
   1e2e0:	00078d93          	mv	s11,a5
   1e2e4:	00100713          	li	a4,1
   1e2e8:	9adc1ae3          	bne	s8,a3,1dc9c <_vfiprintf_r+0x314>
   1e2ec:	00100693          	li	a3,1
   1e2f0:	c6d704e3          	beq	a4,a3,1df58 <_vfiprintf_r+0x5d0>
   1e2f4:	00200693          	li	a3,2
   1e2f8:	0ed70e63          	beq	a4,a3,1e3f4 <_vfiprintf_r+0xa6c>
   1e2fc:	0f010693          	addi	a3,sp,240
   1e300:	0080006f          	j	1e308 <_vfiprintf_r+0x980>
   1e304:	000b0693          	mv	a3,s6
   1e308:	01de1793          	slli	a5,t3,0x1d
   1e30c:	007df713          	andi	a4,s11,7
   1e310:	003ddd93          	srli	s11,s11,0x3
   1e314:	03070713          	addi	a4,a4,48
   1e318:	01b7edb3          	or	s11,a5,s11
   1e31c:	003e5e13          	srli	t3,t3,0x3
   1e320:	fee68fa3          	sb	a4,-1(a3)
   1e324:	01cde7b3          	or	a5,s11,t3
   1e328:	fff68b13          	addi	s6,a3,-1
   1e32c:	fc079ce3          	bnez	a5,1e304 <_vfiprintf_r+0x97c>
   1e330:	001d7793          	andi	a5,s10,1
   1e334:	0e078a63          	beqz	a5,1e428 <_vfiprintf_r+0xaa0>
   1e338:	03000793          	li	a5,48
   1e33c:	0ef70663          	beq	a4,a5,1e428 <_vfiprintf_r+0xaa0>
   1e340:	ffe68693          	addi	a3,a3,-2
   1e344:	fefb0fa3          	sb	a5,-1(s6)
   1e348:	0f010793          	addi	a5,sp,240
   1e34c:	40d78db3          	sub	s11,a5,a3
   1e350:	000d0b93          	mv	s7,s10
   1e354:	00068b13          	mv	s6,a3
   1e358:	965ff06f          	j	1dcbc <_vfiprintf_r+0x334>
   1e35c:	a15f60ef          	jal	ra,14d70 <__sinit>
   1e360:	e7cff06f          	j	1d9dc <_vfiprintf_r+0x54>
   1e364:	000b8893          	mv	a7,s7
   1e368:	00c12783          	lw	a5,12(sp)
   1e36c:	00778713          	addi	a4,a5,7
   1e370:	ff877713          	andi	a4,a4,-8
   1e374:	00072d83          	lw	s11,0(a4)
   1e378:	00472e03          	lw	t3,4(a4)
   1e37c:	00870793          	addi	a5,a4,8
   1e380:	00f12623          	sw	a5,12(sp)
   1e384:	bff8fd13          	andi	s10,a7,-1025
   1e388:	00000713          	li	a4,0
   1e38c:	905ff06f          	j	1dc90 <_vfiprintf_r+0x308>
   1e390:	000b8d13          	mv	s10,s7
   1e394:	00c12783          	lw	a5,12(sp)
   1e398:	00778793          	addi	a5,a5,7
   1e39c:	ff87f793          	andi	a5,a5,-8
   1e3a0:	0047a703          	lw	a4,4(a5)
   1e3a4:	00878693          	addi	a3,a5,8
   1e3a8:	00d12623          	sw	a3,12(sp)
   1e3ac:	0007ad83          	lw	s11,0(a5)
   1e3b0:	00070e13          	mv	t3,a4
   1e3b4:	b89ff06f          	j	1df3c <_vfiprintf_r+0x5b4>
   1e3b8:	000b8d13          	mv	s10,s7
   1e3bc:	00c12783          	lw	a5,12(sp)
   1e3c0:	00778713          	addi	a4,a5,7
   1e3c4:	ff877713          	andi	a4,a4,-8
   1e3c8:	00870793          	addi	a5,a4,8
   1e3cc:	00072d83          	lw	s11,0(a4)
   1e3d0:	00472e03          	lw	t3,4(a4)
   1e3d4:	00f12623          	sw	a5,12(sp)
   1e3d8:	00100713          	li	a4,1
   1e3dc:	8b5ff06f          	j	1dc90 <_vfiprintf_r+0x308>
   1e3e0:	00100693          	li	a3,1
   1e3e4:	7cd70a63          	beq	a4,a3,1ebb8 <_vfiprintf_r+0x1230>
   1e3e8:	00200693          	li	a3,2
   1e3ec:	000b8d13          	mv	s10,s7
   1e3f0:	f0d716e3          	bne	a4,a3,1e2fc <_vfiprintf_r+0x974>
   1e3f4:	01012683          	lw	a3,16(sp)
   1e3f8:	0f010b13          	addi	s6,sp,240
   1e3fc:	00fdf793          	andi	a5,s11,15
   1e400:	00f687b3          	add	a5,a3,a5
   1e404:	0007c783          	lbu	a5,0(a5)
   1e408:	01ce1713          	slli	a4,t3,0x1c
   1e40c:	004ddd93          	srli	s11,s11,0x4
   1e410:	fffb0b13          	addi	s6,s6,-1
   1e414:	01b76db3          	or	s11,a4,s11
   1e418:	004e5e13          	srli	t3,t3,0x4
   1e41c:	00fb0023          	sb	a5,0(s6)
   1e420:	01cde7b3          	or	a5,s11,t3
   1e424:	fc079ce3          	bnez	a5,1e3fc <_vfiprintf_r+0xa74>
   1e428:	0f010793          	addi	a5,sp,240
   1e42c:	41678db3          	sub	s11,a5,s6
   1e430:	000d0b93          	mv	s7,s10
   1e434:	889ff06f          	j	1dcbc <_vfiprintf_r+0x334>
   1e438:	00100593          	li	a1,1
   1e43c:	00000613          	li	a2,0
   1e440:	00048693          	mv	a3,s1
   1e444:	ba9ff06f          	j	1dfec <_vfiprintf_r+0x664>
   1e448:	41aa0e33          	sub	t3,s4,s10
   1e44c:	9bc056e3          	blez	t3,1ddf8 <_vfiprintf_r+0x470>
   1e450:	01000593          	li	a1,16
   1e454:	7bc5da63          	bge	a1,t3,1ec08 <_vfiprintf_r+0x1280>
   1e458:	00007e97          	auipc	t4,0x7
   1e45c:	d70e8e93          	addi	t4,t4,-656 # 251c8 <zeroes.4481>
   1e460:	01612a23          	sw	s6,20(sp)
   1e464:	03412423          	sw	s4,40(sp)
   1e468:	01000f13          	li	t5,16
   1e46c:	00700f93          	li	t6,7
   1e470:	000e0a13          	mv	s4,t3
   1e474:	000e8b13          	mv	s6,t4
   1e478:	0180006f          	j	1e490 <_vfiprintf_r+0xb08>
   1e47c:	00270593          	addi	a1,a4,2
   1e480:	00840413          	addi	s0,s0,8
   1e484:	00068713          	mv	a4,a3
   1e488:	ff0a0a13          	addi	s4,s4,-16
   1e48c:	054f5c63          	bge	t5,s4,1e4e4 <_vfiprintf_r+0xb5c>
   1e490:	01078793          	addi	a5,a5,16
   1e494:	00170693          	addi	a3,a4,1
   1e498:	01642023          	sw	s6,0(s0)
   1e49c:	01e42223          	sw	t5,4(s0)
   1e4a0:	04f12423          	sw	a5,72(sp)
   1e4a4:	04d12223          	sw	a3,68(sp)
   1e4a8:	fcdfdae3          	bge	t6,a3,1e47c <_vfiprintf_r+0xaf4>
   1e4ac:	18078463          	beqz	a5,1e634 <_vfiprintf_r+0xcac>
   1e4b0:	04010613          	addi	a2,sp,64
   1e4b4:	00090593          	mv	a1,s2
   1e4b8:	00098513          	mv	a0,s3
   1e4bc:	bc4ff0ef          	jal	ra,1d880 <__sprint_r.part.0>
   1e4c0:	f2051c63          	bnez	a0,1dbf8 <_vfiprintf_r+0x270>
   1e4c4:	04412703          	lw	a4,68(sp)
   1e4c8:	01000f13          	li	t5,16
   1e4cc:	ff0a0a13          	addi	s4,s4,-16
   1e4d0:	04812783          	lw	a5,72(sp)
   1e4d4:	00048413          	mv	s0,s1
   1e4d8:	00170593          	addi	a1,a4,1
   1e4dc:	00700f93          	li	t6,7
   1e4e0:	fb4f48e3          	blt	t5,s4,1e490 <_vfiprintf_r+0xb08>
   1e4e4:	000a0e13          	mv	t3,s4
   1e4e8:	000b0e93          	mv	t4,s6
   1e4ec:	02812a03          	lw	s4,40(sp)
   1e4f0:	01412b03          	lw	s6,20(sp)
   1e4f4:	00840513          	addi	a0,s0,8
   1e4f8:	01c787b3          	add	a5,a5,t3
   1e4fc:	01d42023          	sw	t4,0(s0)
   1e500:	01c42223          	sw	t3,4(s0)
   1e504:	04f12423          	sw	a5,72(sp)
   1e508:	04b12223          	sw	a1,68(sp)
   1e50c:	00700713          	li	a4,7
   1e510:	38b75e63          	bge	a4,a1,1e8ac <_vfiprintf_r+0xf24>
   1e514:	5c078063          	beqz	a5,1ead4 <_vfiprintf_r+0x114c>
   1e518:	04010613          	addi	a2,sp,64
   1e51c:	00090593          	mv	a1,s2
   1e520:	00098513          	mv	a0,s3
   1e524:	b5cff0ef          	jal	ra,1d880 <__sprint_r.part.0>
   1e528:	ec051863          	bnez	a0,1dbf8 <_vfiprintf_r+0x270>
   1e52c:	04412703          	lw	a4,68(sp)
   1e530:	41bc0c33          	sub	s8,s8,s11
   1e534:	04812783          	lw	a5,72(sp)
   1e538:	05410693          	addi	a3,sp,84
   1e53c:	00170613          	addi	a2,a4,1
   1e540:	00048413          	mv	s0,s1
   1e544:	8b805ee3          	blez	s8,1de00 <_vfiprintf_r+0x478>
   1e548:	01000593          	li	a1,16
   1e54c:	5785dc63          	bge	a1,s8,1eac4 <_vfiprintf_r+0x113c>
   1e550:	00007e97          	auipc	t4,0x7
   1e554:	c78e8e93          	addi	t4,t4,-904 # 251c8 <zeroes.4481>
   1e558:	01412a23          	sw	s4,20(sp)
   1e55c:	01000e13          	li	t3,16
   1e560:	00700f13          	li	t5,7
   1e564:	000e8a13          	mv	s4,t4
   1e568:	0180006f          	j	1e580 <_vfiprintf_r+0xbf8>
   1e56c:	00270613          	addi	a2,a4,2
   1e570:	00840413          	addi	s0,s0,8
   1e574:	00068713          	mv	a4,a3
   1e578:	ff0c0c13          	addi	s8,s8,-16
   1e57c:	058e5c63          	bge	t3,s8,1e5d4 <_vfiprintf_r+0xc4c>
   1e580:	01078793          	addi	a5,a5,16
   1e584:	00170693          	addi	a3,a4,1
   1e588:	01442023          	sw	s4,0(s0)
   1e58c:	01c42223          	sw	t3,4(s0)
   1e590:	04f12423          	sw	a5,72(sp)
   1e594:	04d12223          	sw	a3,68(sp)
   1e598:	fcdf5ae3          	bge	t5,a3,1e56c <_vfiprintf_r+0xbe4>
   1e59c:	06078863          	beqz	a5,1e60c <_vfiprintf_r+0xc84>
   1e5a0:	04010613          	addi	a2,sp,64
   1e5a4:	00090593          	mv	a1,s2
   1e5a8:	00098513          	mv	a0,s3
   1e5ac:	ad4ff0ef          	jal	ra,1d880 <__sprint_r.part.0>
   1e5b0:	e4051463          	bnez	a0,1dbf8 <_vfiprintf_r+0x270>
   1e5b4:	04412703          	lw	a4,68(sp)
   1e5b8:	01000e13          	li	t3,16
   1e5bc:	ff0c0c13          	addi	s8,s8,-16
   1e5c0:	04812783          	lw	a5,72(sp)
   1e5c4:	00048413          	mv	s0,s1
   1e5c8:	00170613          	addi	a2,a4,1
   1e5cc:	00700f13          	li	t5,7
   1e5d0:	fb8e48e3          	blt	t3,s8,1e580 <_vfiprintf_r+0xbf8>
   1e5d4:	000a0e93          	mv	t4,s4
   1e5d8:	01412a03          	lw	s4,20(sp)
   1e5dc:	00840593          	addi	a1,s0,8
   1e5e0:	018787b3          	add	a5,a5,s8
   1e5e4:	01d42023          	sw	t4,0(s0)
   1e5e8:	01842223          	sw	s8,4(s0)
   1e5ec:	04f12423          	sw	a5,72(sp)
   1e5f0:	04c12223          	sw	a2,68(sp)
   1e5f4:	00700713          	li	a4,7
   1e5f8:	1cc74c63          	blt	a4,a2,1e7d0 <_vfiprintf_r+0xe48>
   1e5fc:	00160613          	addi	a2,a2,1
   1e600:	00858693          	addi	a3,a1,8
   1e604:	00058413          	mv	s0,a1
   1e608:	ff8ff06f          	j	1de00 <_vfiprintf_r+0x478>
   1e60c:	00100613          	li	a2,1
   1e610:	00000713          	li	a4,0
   1e614:	00048413          	mv	s0,s1
   1e618:	f61ff06f          	j	1e578 <_vfiprintf_r+0xbf0>
   1e61c:	04010613          	addi	a2,sp,64
   1e620:	00090593          	mv	a1,s2
   1e624:	00098513          	mv	a0,s3
   1e628:	a58ff0ef          	jal	ra,1d880 <__sprint_r.part.0>
   1e62c:	82050ce3          	beqz	a0,1de64 <_vfiprintf_r+0x4dc>
   1e630:	dc8ff06f          	j	1dbf8 <_vfiprintf_r+0x270>
   1e634:	00100593          	li	a1,1
   1e638:	00000713          	li	a4,0
   1e63c:	00048413          	mv	s0,s1
   1e640:	e49ff06f          	j	1e488 <_vfiprintf_r+0xb00>
   1e644:	22079863          	bnez	a5,1e874 <_vfiprintf_r+0xeec>
   1e648:	03b14703          	lbu	a4,59(sp)
   1e64c:	4e071263          	bnez	a4,1eb30 <_vfiprintf_r+0x11a8>
   1e650:	200f8063          	beqz	t6,1e850 <_vfiprintf_r+0xec8>
   1e654:	03c10793          	addi	a5,sp,60
   1e658:	04f12623          	sw	a5,76(sp)
   1e65c:	00200793          	li	a5,2
   1e660:	04f12823          	sw	a5,80(sp)
   1e664:	00100613          	li	a2,1
   1e668:	05410693          	addi	a3,sp,84
   1e66c:	00060713          	mv	a4,a2
   1e670:	00068413          	mv	s0,a3
   1e674:	00160613          	addi	a2,a2,1
   1e678:	00868693          	addi	a3,a3,8
   1e67c:	f74ff06f          	j	1ddf0 <_vfiprintf_r+0x468>
   1e680:	fc0788e3          	beqz	a5,1e650 <_vfiprintf_r+0xcc8>
   1e684:	04010613          	addi	a2,sp,64
   1e688:	00090593          	mv	a1,s2
   1e68c:	00098513          	mv	a0,s3
   1e690:	03012423          	sw	a6,40(sp)
   1e694:	01f12a23          	sw	t6,20(sp)
   1e698:	9e8ff0ef          	jal	ra,1d880 <__sprint_r.part.0>
   1e69c:	d4051e63          	bnez	a0,1dbf8 <_vfiprintf_r+0x270>
   1e6a0:	04412703          	lw	a4,68(sp)
   1e6a4:	04812783          	lw	a5,72(sp)
   1e6a8:	05410693          	addi	a3,sp,84
   1e6ac:	00170613          	addi	a2,a4,1
   1e6b0:	00048413          	mv	s0,s1
   1e6b4:	02812803          	lw	a6,40(sp)
   1e6b8:	01412f83          	lw	t6,20(sp)
   1e6bc:	ed8ff06f          	j	1dd94 <_vfiprintf_r+0x40c>
   1e6c0:	000b8d13          	mv	s10,s7
   1e6c4:	c29ff06f          	j	1e2ec <_vfiprintf_r+0x964>
   1e6c8:	01000613          	li	a2,16
   1e6cc:	51c65863          	bge	a2,t3,1ebdc <_vfiprintf_r+0x1254>
   1e6d0:	00007e97          	auipc	t4,0x7
   1e6d4:	ae8e8e93          	addi	t4,t4,-1304 # 251b8 <blanks.4480>
   1e6d8:	00040613          	mv	a2,s0
   1e6dc:	03412623          	sw	s4,44(sp)
   1e6e0:	01000293          	li	t0,16
   1e6e4:	00700393          	li	t2,7
   1e6e8:	01f12a23          	sw	t6,20(sp)
   1e6ec:	03012423          	sw	a6,40(sp)
   1e6f0:	000e0413          	mv	s0,t3
   1e6f4:	000e8a13          	mv	s4,t4
   1e6f8:	01c0006f          	j	1e714 <_vfiprintf_r+0xd8c>
   1e6fc:	00270593          	addi	a1,a4,2
   1e700:	00860613          	addi	a2,a2,8
   1e704:	00068713          	mv	a4,a3
   1e708:	ff040413          	addi	s0,s0,-16
   1e70c:	0482dc63          	bge	t0,s0,1e764 <_vfiprintf_r+0xddc>
   1e710:	00170693          	addi	a3,a4,1
   1e714:	01078793          	addi	a5,a5,16
   1e718:	01462023          	sw	s4,0(a2)
   1e71c:	00562223          	sw	t0,4(a2)
   1e720:	04f12423          	sw	a5,72(sp)
   1e724:	04d12223          	sw	a3,68(sp)
   1e728:	fcd3dae3          	bge	t2,a3,1e6fc <_vfiprintf_r+0xd74>
   1e72c:	06078e63          	beqz	a5,1e7a8 <_vfiprintf_r+0xe20>
   1e730:	04010613          	addi	a2,sp,64
   1e734:	00090593          	mv	a1,s2
   1e738:	00098513          	mv	a0,s3
   1e73c:	944ff0ef          	jal	ra,1d880 <__sprint_r.part.0>
   1e740:	ca051c63          	bnez	a0,1dbf8 <_vfiprintf_r+0x270>
   1e744:	04412703          	lw	a4,68(sp)
   1e748:	01000293          	li	t0,16
   1e74c:	ff040413          	addi	s0,s0,-16
   1e750:	04812783          	lw	a5,72(sp)
   1e754:	00048613          	mv	a2,s1
   1e758:	00170593          	addi	a1,a4,1
   1e75c:	00700393          	li	t2,7
   1e760:	fa82c8e3          	blt	t0,s0,1e710 <_vfiprintf_r+0xd88>
   1e764:	000a0e93          	mv	t4,s4
   1e768:	01412f83          	lw	t6,20(sp)
   1e76c:	02812803          	lw	a6,40(sp)
   1e770:	02c12a03          	lw	s4,44(sp)
   1e774:	00040e13          	mv	t3,s0
   1e778:	00060413          	mv	s0,a2
   1e77c:	01c787b3          	add	a5,a5,t3
   1e780:	01d42023          	sw	t4,0(s0)
   1e784:	01c42223          	sw	t3,4(s0)
   1e788:	04f12423          	sw	a5,72(sp)
   1e78c:	04b12223          	sw	a1,68(sp)
   1e790:	00700713          	li	a4,7
   1e794:	eab748e3          	blt	a4,a1,1e644 <_vfiprintf_r+0xcbc>
   1e798:	00840413          	addi	s0,s0,8
   1e79c:	00158613          	addi	a2,a1,1
   1e7a0:	00058713          	mv	a4,a1
   1e7a4:	db0ff06f          	j	1dd54 <_vfiprintf_r+0x3cc>
   1e7a8:	00000713          	li	a4,0
   1e7ac:	00100593          	li	a1,1
   1e7b0:	00048613          	mv	a2,s1
   1e7b4:	f55ff06f          	j	1e708 <_vfiprintf_r+0xd80>
   1e7b8:	01aa5463          	bge	s4,s10,1e7c0 <_vfiprintf_r+0xe38>
   1e7bc:	000d0a13          	mv	s4,s10
   1e7c0:	00812783          	lw	a5,8(sp)
   1e7c4:	014787b3          	add	a5,a5,s4
   1e7c8:	00f12423          	sw	a5,8(sp)
   1e7cc:	e98ff06f          	j	1de64 <_vfiprintf_r+0x4dc>
   1e7d0:	14078c63          	beqz	a5,1e928 <_vfiprintf_r+0xfa0>
   1e7d4:	04010613          	addi	a2,sp,64
   1e7d8:	00090593          	mv	a1,s2
   1e7dc:	00098513          	mv	a0,s3
   1e7e0:	8a0ff0ef          	jal	ra,1d880 <__sprint_r.part.0>
   1e7e4:	c0051a63          	bnez	a0,1dbf8 <_vfiprintf_r+0x270>
   1e7e8:	04412603          	lw	a2,68(sp)
   1e7ec:	04812783          	lw	a5,72(sp)
   1e7f0:	05410693          	addi	a3,sp,84
   1e7f4:	00160613          	addi	a2,a2,1
   1e7f8:	00048413          	mv	s0,s1
   1e7fc:	e04ff06f          	j	1de00 <_vfiprintf_r+0x478>
   1e800:	04012223          	sw	zero,68(sp)
   1e804:	00048413          	mv	s0,s1
   1e808:	ae8ff06f          	j	1daf0 <_vfiprintf_r+0x168>
   1e80c:	3a0c1663          	bnez	s8,1ebb8 <_vfiprintf_r+0x1230>
   1e810:	00000c13          	li	s8,0
   1e814:	00000d93          	li	s11,0
   1e818:	0f010b13          	addi	s6,sp,240
   1e81c:	ca0ff06f          	j	1dcbc <_vfiprintf_r+0x334>
   1e820:	200bf693          	andi	a3,s7,512
   1e824:	38069463          	bnez	a3,1ebac <_vfiprintf_r+0x1224>
   1e828:	00078d93          	mv	s11,a5
   1e82c:	00000e13          	li	t3,0
   1e830:	c48ff06f          	j	1dc78 <_vfiprintf_r+0x2f0>
   1e834:	05410693          	addi	a3,sp,84
   1e838:	00100613          	li	a2,1
   1e83c:	00000713          	li	a4,0
   1e840:	00048413          	mv	s0,s1
   1e844:	dacff06f          	j	1ddf0 <_vfiprintf_r+0x468>
   1e848:	000c8d13          	mv	s10,s9
   1e84c:	ab8ff06f          	j	1db04 <_vfiprintf_r+0x17c>
   1e850:	00000713          	li	a4,0
   1e854:	05410693          	addi	a3,sp,84
   1e858:	00100613          	li	a2,1
   1e85c:	00048413          	mv	s0,s1
   1e860:	d90ff06f          	j	1ddf0 <_vfiprintf_r+0x468>
   1e864:	03000793          	li	a5,48
   1e868:	0ef107a3          	sb	a5,239(sp)
   1e86c:	0ef10b13          	addi	s6,sp,239
   1e870:	c4cff06f          	j	1dcbc <_vfiprintf_r+0x334>
   1e874:	04010613          	addi	a2,sp,64
   1e878:	00090593          	mv	a1,s2
   1e87c:	00098513          	mv	a0,s3
   1e880:	03012423          	sw	a6,40(sp)
   1e884:	01f12a23          	sw	t6,20(sp)
   1e888:	ff9fe0ef          	jal	ra,1d880 <__sprint_r.part.0>
   1e88c:	b6051663          	bnez	a0,1dbf8 <_vfiprintf_r+0x270>
   1e890:	04412703          	lw	a4,68(sp)
   1e894:	04812783          	lw	a5,72(sp)
   1e898:	00048413          	mv	s0,s1
   1e89c:	00170613          	addi	a2,a4,1
   1e8a0:	02812803          	lw	a6,40(sp)
   1e8a4:	01412f83          	lw	t6,20(sp)
   1e8a8:	cacff06f          	j	1dd54 <_vfiprintf_r+0x3cc>
   1e8ac:	00158613          	addi	a2,a1,1
   1e8b0:	00850693          	addi	a3,a0,8
   1e8b4:	00058713          	mv	a4,a1
   1e8b8:	00050413          	mv	s0,a0
   1e8bc:	d3cff06f          	j	1ddf8 <_vfiprintf_r+0x470>
   1e8c0:	03000693          	li	a3,48
   1e8c4:	002beb93          	ori	s7,s7,2
   1e8c8:	02e10ea3          	sb	a4,61(sp)
   1e8cc:	02d10e23          	sb	a3,60(sp)
   1e8d0:	bffbfd13          	andi	s10,s7,-1025
   1e8d4:	00200713          	li	a4,2
   1e8d8:	bb8ff06f          	j	1dc90 <_vfiprintf_r+0x308>
   1e8dc:	01812783          	lw	a5,24(sp)
   1e8e0:	000cc703          	lbu	a4,0(s9)
   1e8e4:	a2078e63          	beqz	a5,1db20 <_vfiprintf_r+0x198>
   1e8e8:	0007c783          	lbu	a5,0(a5)
   1e8ec:	a2078a63          	beqz	a5,1db20 <_vfiprintf_r+0x198>
   1e8f0:	400beb93          	ori	s7,s7,1024
   1e8f4:	a2cff06f          	j	1db20 <_vfiprintf_r+0x198>
   1e8f8:	00812603          	lw	a2,8(sp)
   1e8fc:	0006a783          	lw	a5,0(a3)
   1e900:	00e12623          	sw	a4,12(sp)
   1e904:	41f65693          	srai	a3,a2,0x1f
   1e908:	00c7a023          	sw	a2,0(a5)
   1e90c:	00d7a223          	sw	a3,4(a5)
   1e910:	964ff06f          	j	1da74 <_vfiprintf_r+0xec>
   1e914:	000b0513          	mv	a0,s6
   1e918:	eadf20ef          	jal	ra,117c4 <strlen>
   1e91c:	00050d93          	mv	s11,a0
   1e920:	00000c13          	li	s8,0
   1e924:	b98ff06f          	j	1dcbc <_vfiprintf_r+0x334>
   1e928:	00100713          	li	a4,1
   1e92c:	000d8793          	mv	a5,s11
   1e930:	05612623          	sw	s6,76(sp)
   1e934:	05b12823          	sw	s11,80(sp)
   1e938:	05b12423          	sw	s11,72(sp)
   1e93c:	04e12223          	sw	a4,68(sp)
   1e940:	05410693          	addi	a3,sp,84
   1e944:	cf8ff06f          	j	1de3c <_vfiprintf_r+0x4b4>
   1e948:	0f010b13          	addi	s6,sp,240
   1e94c:	400d7793          	andi	a5,s10,1024
   1e950:	00812a23          	sw	s0,20(sp)
   1e954:	03412423          	sw	s4,40(sp)
   1e958:	03312623          	sw	s3,44(sp)
   1e95c:	00000b93          	li	s7,0
   1e960:	000b0993          	mv	s3,s6
   1e964:	00078413          	mv	s0,a5
   1e968:	000c8b13          	mv	s6,s9
   1e96c:	000e0a13          	mv	s4,t3
   1e970:	00090c93          	mv	s9,s2
   1e974:	01812903          	lw	s2,24(sp)
   1e978:	0240006f          	j	1e99c <_vfiprintf_r+0x1014>
   1e97c:	00a00613          	li	a2,10
   1e980:	00000693          	li	a3,0
   1e984:	000d8513          	mv	a0,s11
   1e988:	000a0593          	mv	a1,s4
   1e98c:	6f9010ef          	jal	ra,20884 <__udivdi3>
   1e990:	220a0863          	beqz	s4,1ebc0 <_vfiprintf_r+0x1238>
   1e994:	00050d93          	mv	s11,a0
   1e998:	00058a13          	mv	s4,a1
   1e99c:	00a00613          	li	a2,10
   1e9a0:	00000693          	li	a3,0
   1e9a4:	000d8513          	mv	a0,s11
   1e9a8:	000a0593          	mv	a1,s4
   1e9ac:	30c020ef          	jal	ra,20cb8 <__umoddi3>
   1e9b0:	03050513          	addi	a0,a0,48
   1e9b4:	fea98fa3          	sb	a0,-1(s3)
   1e9b8:	001b8b93          	addi	s7,s7,1
   1e9bc:	fff98993          	addi	s3,s3,-1
   1e9c0:	fa040ee3          	beqz	s0,1e97c <_vfiprintf_r+0xff4>
   1e9c4:	00094703          	lbu	a4,0(s2)
   1e9c8:	fb771ae3          	bne	a4,s7,1e97c <_vfiprintf_r+0xff4>
   1e9cc:	0ff00793          	li	a5,255
   1e9d0:	fafb86e3          	beq	s7,a5,1e97c <_vfiprintf_r+0xff4>
   1e9d4:	100a1a63          	bnez	s4,1eae8 <_vfiprintf_r+0x1160>
   1e9d8:	00900793          	li	a5,9
   1e9dc:	11b7e663          	bltu	a5,s11,1eae8 <_vfiprintf_r+0x1160>
   1e9e0:	01212c23          	sw	s2,24(sp)
   1e9e4:	0f010793          	addi	a5,sp,240
   1e9e8:	000c8913          	mv	s2,s9
   1e9ec:	000b0c93          	mv	s9,s6
   1e9f0:	00098b13          	mv	s6,s3
   1e9f4:	01412403          	lw	s0,20(sp)
   1e9f8:	02812a03          	lw	s4,40(sp)
   1e9fc:	02c12983          	lw	s3,44(sp)
   1ea00:	41678db3          	sub	s11,a5,s6
   1ea04:	000d0b93          	mv	s7,s10
   1ea08:	ab4ff06f          	j	1dcbc <_vfiprintf_r+0x334>
   1ea0c:	001cc703          	lbu	a4,1(s9)
   1ea10:	200beb93          	ori	s7,s7,512
   1ea14:	001c8c93          	addi	s9,s9,1
   1ea18:	908ff06f          	j	1db20 <_vfiprintf_r+0x198>
   1ea1c:	001cc703          	lbu	a4,1(s9)
   1ea20:	020beb93          	ori	s7,s7,32
   1ea24:	001c8c93          	addi	s9,s9,1
   1ea28:	8f8ff06f          	j	1db20 <_vfiprintf_r+0x198>
   1ea2c:	00c12783          	lw	a5,12(sp)
   1ea30:	0007a783          	lw	a5,0(a5)
   1ea34:	00e12623          	sw	a4,12(sp)
   1ea38:	00812703          	lw	a4,8(sp)
   1ea3c:	00e7a023          	sw	a4,0(a5)
   1ea40:	834ff06f          	j	1da74 <_vfiprintf_r+0xec>
   1ea44:	00600793          	li	a5,6
   1ea48:	000c0d93          	mv	s11,s8
   1ea4c:	0d87ee63          	bltu	a5,s8,1eb28 <_vfiprintf_r+0x11a0>
   1ea50:	000d8d13          	mv	s10,s11
   1ea54:	00e12623          	sw	a4,12(sp)
   1ea58:	00006b17          	auipc	s6,0x6
   1ea5c:	0a8b0b13          	addi	s6,s6,168 # 24b00 <zeroes.4505+0x48>
   1ea60:	ac4ff06f          	j	1dd24 <_vfiprintf_r+0x39c>
   1ea64:	200bf693          	andi	a3,s7,512
   1ea68:	12068663          	beqz	a3,1eb94 <_vfiprintf_r+0x120c>
   1ea6c:	00e12623          	sw	a4,12(sp)
   1ea70:	0ff7fd93          	andi	s11,a5,255
   1ea74:	00000e13          	li	t3,0
   1ea78:	000b8d13          	mv	s10,s7
   1ea7c:	00100713          	li	a4,1
   1ea80:	a10ff06f          	j	1dc90 <_vfiprintf_r+0x308>
   1ea84:	200bf693          	andi	a3,s7,512
   1ea88:	0e068c63          	beqz	a3,1eb80 <_vfiprintf_r+0x11f8>
   1ea8c:	0ff7fd93          	andi	s11,a5,255
   1ea90:	00000e13          	li	t3,0
   1ea94:	000b8893          	mv	a7,s7
   1ea98:	00e12623          	sw	a4,12(sp)
   1ea9c:	8e9ff06f          	j	1e384 <_vfiprintf_r+0x9fc>
   1eaa0:	200bf793          	andi	a5,s7,512
   1eaa4:	0c078063          	beqz	a5,1eb64 <_vfiprintf_r+0x11dc>
   1eaa8:	00c12783          	lw	a5,12(sp)
   1eaac:	000b8d13          	mv	s10,s7
   1eab0:	00e12623          	sw	a4,12(sp)
   1eab4:	00078d83          	lb	s11,0(a5)
   1eab8:	41fdde13          	srai	t3,s11,0x1f
   1eabc:	000e0713          	mv	a4,t3
   1eac0:	c7cff06f          	j	1df3c <_vfiprintf_r+0x5b4>
   1eac4:	00068593          	mv	a1,a3
   1eac8:	00006e97          	auipc	t4,0x6
   1eacc:	700e8e93          	addi	t4,t4,1792 # 251c8 <zeroes.4481>
   1ead0:	b11ff06f          	j	1e5e0 <_vfiprintf_r+0xc58>
   1ead4:	05410693          	addi	a3,sp,84
   1ead8:	00100613          	li	a2,1
   1eadc:	00000713          	li	a4,0
   1eae0:	00048413          	mv	s0,s1
   1eae4:	b14ff06f          	j	1ddf8 <_vfiprintf_r+0x470>
   1eae8:	02012783          	lw	a5,32(sp)
   1eaec:	01c12583          	lw	a1,28(sp)
   1eaf0:	00000b93          	li	s7,0
   1eaf4:	40f989b3          	sub	s3,s3,a5
   1eaf8:	00078613          	mv	a2,a5
   1eafc:	00098513          	mv	a0,s3
   1eb00:	9e8fc0ef          	jal	ra,1ace8 <strncpy>
   1eb04:	00194703          	lbu	a4,1(s2)
   1eb08:	00a00613          	li	a2,10
   1eb0c:	00000693          	li	a3,0
   1eb10:	00e03733          	snez	a4,a4
   1eb14:	000d8513          	mv	a0,s11
   1eb18:	000a0593          	mv	a1,s4
   1eb1c:	00e90933          	add	s2,s2,a4
   1eb20:	565010ef          	jal	ra,20884 <__udivdi3>
   1eb24:	e71ff06f          	j	1e994 <_vfiprintf_r+0x100c>
   1eb28:	00600d93          	li	s11,6
   1eb2c:	f25ff06f          	j	1ea50 <_vfiprintf_r+0x10c8>
   1eb30:	03b10793          	addi	a5,sp,59
   1eb34:	04f12623          	sw	a5,76(sp)
   1eb38:	00100793          	li	a5,1
   1eb3c:	04f12823          	sw	a5,80(sp)
   1eb40:	00100613          	li	a2,1
   1eb44:	05410693          	addi	a3,sp,84
   1eb48:	a3cff06f          	j	1dd84 <_vfiprintf_r+0x3fc>
   1eb4c:	00c12783          	lw	a5,12(sp)
   1eb50:	00e12623          	sw	a4,12(sp)
   1eb54:	00812703          	lw	a4,8(sp)
   1eb58:	0007a783          	lw	a5,0(a5)
   1eb5c:	00e79023          	sh	a4,0(a5)
   1eb60:	f15fe06f          	j	1da74 <_vfiprintf_r+0xec>
   1eb64:	00c12783          	lw	a5,12(sp)
   1eb68:	000b8d13          	mv	s10,s7
   1eb6c:	00e12623          	sw	a4,12(sp)
   1eb70:	0007ad83          	lw	s11,0(a5)
   1eb74:	41fdde13          	srai	t3,s11,0x1f
   1eb78:	000e0713          	mv	a4,t3
   1eb7c:	bc0ff06f          	j	1df3c <_vfiprintf_r+0x5b4>
   1eb80:	00078d93          	mv	s11,a5
   1eb84:	00000e13          	li	t3,0
   1eb88:	000b8893          	mv	a7,s7
   1eb8c:	00e12623          	sw	a4,12(sp)
   1eb90:	ff4ff06f          	j	1e384 <_vfiprintf_r+0x9fc>
   1eb94:	00e12623          	sw	a4,12(sp)
   1eb98:	00078d93          	mv	s11,a5
   1eb9c:	00000e13          	li	t3,0
   1eba0:	000b8d13          	mv	s10,s7
   1eba4:	00100713          	li	a4,1
   1eba8:	8e8ff06f          	j	1dc90 <_vfiprintf_r+0x308>
   1ebac:	0ff7fd93          	andi	s11,a5,255
   1ebb0:	00000e13          	li	t3,0
   1ebb4:	8c4ff06f          	j	1dc78 <_vfiprintf_r+0x2f0>
   1ebb8:	000b8d13          	mv	s10,s7
   1ebbc:	ba8ff06f          	j	1df64 <_vfiprintf_r+0x5dc>
   1ebc0:	00900793          	li	a5,9
   1ebc4:	ddb7e8e3          	bltu	a5,s11,1e994 <_vfiprintf_r+0x100c>
   1ebc8:	e19ff06f          	j	1e9e0 <_vfiprintf_r+0x1058>
   1ebcc:	000c0d93          	mv	s11,s8
   1ebd0:	00e12623          	sw	a4,12(sp)
   1ebd4:	00000c13          	li	s8,0
   1ebd8:	8e4ff06f          	j	1dcbc <_vfiprintf_r+0x334>
   1ebdc:	00068593          	mv	a1,a3
   1ebe0:	00006e97          	auipc	t4,0x6
   1ebe4:	5d8e8e93          	addi	t4,t4,1496 # 251b8 <blanks.4480>
   1ebe8:	b95ff06f          	j	1e77c <_vfiprintf_r+0xdf4>
   1ebec:	00160593          	addi	a1,a2,1
   1ebf0:	00006e97          	auipc	t4,0x6
   1ebf4:	5c8e8e93          	addi	t4,t4,1480 # 251b8 <blanks.4480>
   1ebf8:	c4cff06f          	j	1e044 <_vfiprintf_r+0x6bc>
   1ebfc:	fff00793          	li	a5,-1
   1ec00:	00f12423          	sw	a5,8(sp)
   1ec04:	804ff06f          	j	1dc08 <_vfiprintf_r+0x280>
   1ec08:	00068513          	mv	a0,a3
   1ec0c:	00060593          	mv	a1,a2
   1ec10:	00006e97          	auipc	t4,0x6
   1ec14:	5b8e8e93          	addi	t4,t4,1464 # 251c8 <zeroes.4481>
   1ec18:	8e1ff06f          	j	1e4f8 <_vfiprintf_r+0xb70>
   1ec1c:	00c12703          	lw	a4,12(sp)
   1ec20:	00072c03          	lw	s8,0(a4)
   1ec24:	00470693          	addi	a3,a4,4
   1ec28:	000c5463          	bgez	s8,1ec30 <_vfiprintf_r+0x12a8>
   1ec2c:	fff00c13          	li	s8,-1
   1ec30:	001cc703          	lbu	a4,1(s9)
   1ec34:	00d12623          	sw	a3,12(sp)
   1ec38:	00078c93          	mv	s9,a5
   1ec3c:	ee5fe06f          	j	1db20 <_vfiprintf_r+0x198>
   1ec40:	000b8d13          	mv	s10,s7
   1ec44:	a40ff06f          	j	1de84 <_vfiprintf_r+0x4fc>
   1ec48:	000b8893          	mv	a7,s7
   1ec4c:	ab4ff06f          	j	1df00 <_vfiprintf_r+0x578>
   1ec50:	000b8d13          	mv	s10,s7
   1ec54:	ad4ff06f          	j	1df28 <_vfiprintf_r+0x5a0>

0001ec58 <vfiprintf>:
   1ec58:	81c18793          	addi	a5,gp,-2020 # 27aec <_impure_ptr>
   1ec5c:	00060693          	mv	a3,a2
   1ec60:	00058613          	mv	a2,a1
   1ec64:	00050593          	mv	a1,a0
   1ec68:	0007a503          	lw	a0,0(a5)
   1ec6c:	d1dfe06f          	j	1d988 <_vfiprintf_r>

0001ec70 <__sbprintf>:
   1ec70:	00c5d783          	lhu	a5,12(a1)
   1ec74:	0645ae03          	lw	t3,100(a1)
   1ec78:	00e5d303          	lhu	t1,14(a1)
   1ec7c:	01c5a883          	lw	a7,28(a1)
   1ec80:	0245a803          	lw	a6,36(a1)
   1ec84:	b8010113          	addi	sp,sp,-1152
   1ec88:	ffd7f793          	andi	a5,a5,-3
   1ec8c:	40000713          	li	a4,1024
   1ec90:	46812c23          	sw	s0,1144(sp)
   1ec94:	00f11a23          	sh	a5,20(sp)
   1ec98:	00058413          	mv	s0,a1
   1ec9c:	07010793          	addi	a5,sp,112
   1eca0:	00810593          	addi	a1,sp,8
   1eca4:	46912a23          	sw	s1,1140(sp)
   1eca8:	47212823          	sw	s2,1136(sp)
   1ecac:	46112e23          	sw	ra,1148(sp)
   1ecb0:	00050913          	mv	s2,a0
   1ecb4:	07c12623          	sw	t3,108(sp)
   1ecb8:	00611b23          	sh	t1,22(sp)
   1ecbc:	03112223          	sw	a7,36(sp)
   1ecc0:	03012623          	sw	a6,44(sp)
   1ecc4:	00f12423          	sw	a5,8(sp)
   1ecc8:	00f12c23          	sw	a5,24(sp)
   1eccc:	00e12823          	sw	a4,16(sp)
   1ecd0:	00e12e23          	sw	a4,28(sp)
   1ecd4:	02012023          	sw	zero,32(sp)
   1ecd8:	cb1fe0ef          	jal	ra,1d988 <_vfiprintf_r>
   1ecdc:	00050493          	mv	s1,a0
   1ece0:	02055c63          	bgez	a0,1ed18 <__sbprintf+0xa8>
   1ece4:	01415783          	lhu	a5,20(sp)
   1ece8:	0407f793          	andi	a5,a5,64
   1ecec:	00078863          	beqz	a5,1ecfc <__sbprintf+0x8c>
   1ecf0:	00c45783          	lhu	a5,12(s0)
   1ecf4:	0407e793          	ori	a5,a5,64
   1ecf8:	00f41623          	sh	a5,12(s0)
   1ecfc:	47c12083          	lw	ra,1148(sp)
   1ed00:	47812403          	lw	s0,1144(sp)
   1ed04:	00048513          	mv	a0,s1
   1ed08:	47012903          	lw	s2,1136(sp)
   1ed0c:	47412483          	lw	s1,1140(sp)
   1ed10:	48010113          	addi	sp,sp,1152
   1ed14:	00008067          	ret
   1ed18:	00810593          	addi	a1,sp,8
   1ed1c:	00090513          	mv	a0,s2
   1ed20:	ca5f50ef          	jal	ra,149c4 <_fflush_r>
   1ed24:	fc0500e3          	beqz	a0,1ece4 <__sbprintf+0x74>
   1ed28:	fff00493          	li	s1,-1
   1ed2c:	fb9ff06f          	j	1ece4 <__sbprintf+0x74>

0001ed30 <_wctomb_r>:
   1ed30:	00009797          	auipc	a5,0x9
   1ed34:	82878793          	addi	a5,a5,-2008 # 27558 <__global_locale>
   1ed38:	0e07a303          	lw	t1,224(a5)
   1ed3c:	00030067          	jr	t1

0001ed40 <__ascii_wctomb>:
   1ed40:	02058463          	beqz	a1,1ed68 <__ascii_wctomb+0x28>
   1ed44:	0ff00793          	li	a5,255
   1ed48:	00c7e863          	bltu	a5,a2,1ed58 <__ascii_wctomb+0x18>
   1ed4c:	00c58023          	sb	a2,0(a1)
   1ed50:	00100513          	li	a0,1
   1ed54:	00008067          	ret
   1ed58:	08a00793          	li	a5,138
   1ed5c:	00f52023          	sw	a5,0(a0)
   1ed60:	fff00513          	li	a0,-1
   1ed64:	00008067          	ret
   1ed68:	00000513          	li	a0,0
   1ed6c:	00008067          	ret

0001ed70 <_write_r>:
   1ed70:	00058793          	mv	a5,a1
   1ed74:	ff010113          	addi	sp,sp,-16
   1ed78:	00812423          	sw	s0,8(sp)
   1ed7c:	00060593          	mv	a1,a2
   1ed80:	00050413          	mv	s0,a0
   1ed84:	00068613          	mv	a2,a3
   1ed88:	00078513          	mv	a0,a5
   1ed8c:	00112623          	sw	ra,12(sp)
   1ed90:	8a01a623          	sw	zero,-1876(gp) # 27b7c <errno>
   1ed94:	c59f10ef          	jal	ra,109ec <_write>
   1ed98:	fff00793          	li	a5,-1
   1ed9c:	00f50a63          	beq	a0,a5,1edb0 <_write_r+0x40>
   1eda0:	00c12083          	lw	ra,12(sp)
   1eda4:	00812403          	lw	s0,8(sp)
   1eda8:	01010113          	addi	sp,sp,16
   1edac:	00008067          	ret
   1edb0:	8ac18793          	addi	a5,gp,-1876 # 27b7c <errno>
   1edb4:	0007a783          	lw	a5,0(a5)
   1edb8:	fe0784e3          	beqz	a5,1eda0 <_write_r+0x30>
   1edbc:	00f42023          	sw	a5,0(s0)
   1edc0:	00c12083          	lw	ra,12(sp)
   1edc4:	00812403          	lw	s0,8(sp)
   1edc8:	01010113          	addi	sp,sp,16
   1edcc:	00008067          	ret

0001edd0 <_calloc_r>:
   1edd0:	02c585b3          	mul	a1,a1,a2
   1edd4:	ff010113          	addi	sp,sp,-16
   1edd8:	00812423          	sw	s0,8(sp)
   1eddc:	00112623          	sw	ra,12(sp)
   1ede0:	811f90ef          	jal	ra,185f0 <_malloc_r>
   1ede4:	00050413          	mv	s0,a0
   1ede8:	02050863          	beqz	a0,1ee18 <_calloc_r+0x48>
   1edec:	ffc52603          	lw	a2,-4(a0)
   1edf0:	02400713          	li	a4,36
   1edf4:	ffc67613          	andi	a2,a2,-4
   1edf8:	ffc60613          	addi	a2,a2,-4
   1edfc:	06c76063          	bltu	a4,a2,1ee5c <_calloc_r+0x8c>
   1ee00:	01300693          	li	a3,19
   1ee04:	00050793          	mv	a5,a0
   1ee08:	02c6e263          	bltu	a3,a2,1ee2c <_calloc_r+0x5c>
   1ee0c:	0007a023          	sw	zero,0(a5)
   1ee10:	0007a223          	sw	zero,4(a5)
   1ee14:	0007a423          	sw	zero,8(a5)
   1ee18:	00040513          	mv	a0,s0
   1ee1c:	00c12083          	lw	ra,12(sp)
   1ee20:	00812403          	lw	s0,8(sp)
   1ee24:	01010113          	addi	sp,sp,16
   1ee28:	00008067          	ret
   1ee2c:	00052023          	sw	zero,0(a0)
   1ee30:	00052223          	sw	zero,4(a0)
   1ee34:	01b00793          	li	a5,27
   1ee38:	04c7f063          	bgeu	a5,a2,1ee78 <_calloc_r+0xa8>
   1ee3c:	00052423          	sw	zero,8(a0)
   1ee40:	00052623          	sw	zero,12(a0)
   1ee44:	01050793          	addi	a5,a0,16
   1ee48:	fce612e3          	bne	a2,a4,1ee0c <_calloc_r+0x3c>
   1ee4c:	00052823          	sw	zero,16(a0)
   1ee50:	01850793          	addi	a5,a0,24
   1ee54:	00052a23          	sw	zero,20(a0)
   1ee58:	fb5ff06f          	j	1ee0c <_calloc_r+0x3c>
   1ee5c:	00000593          	li	a1,0
   1ee60:	f10f20ef          	jal	ra,11570 <memset>
   1ee64:	00040513          	mv	a0,s0
   1ee68:	00c12083          	lw	ra,12(sp)
   1ee6c:	00812403          	lw	s0,8(sp)
   1ee70:	01010113          	addi	sp,sp,16
   1ee74:	00008067          	ret
   1ee78:	00850793          	addi	a5,a0,8
   1ee7c:	f91ff06f          	j	1ee0c <_calloc_r+0x3c>

0001ee80 <_close_r>:
   1ee80:	ff010113          	addi	sp,sp,-16
   1ee84:	00812423          	sw	s0,8(sp)
   1ee88:	00050413          	mv	s0,a0
   1ee8c:	00058513          	mv	a0,a1
   1ee90:	8a01a623          	sw	zero,-1876(gp) # 27b7c <errno>
   1ee94:	00112623          	sw	ra,12(sp)
   1ee98:	bb9f10ef          	jal	ra,10a50 <_close>
   1ee9c:	fff00793          	li	a5,-1
   1eea0:	00f50a63          	beq	a0,a5,1eeb4 <_close_r+0x34>
   1eea4:	00c12083          	lw	ra,12(sp)
   1eea8:	00812403          	lw	s0,8(sp)
   1eeac:	01010113          	addi	sp,sp,16
   1eeb0:	00008067          	ret
   1eeb4:	8ac18793          	addi	a5,gp,-1876 # 27b7c <errno>
   1eeb8:	0007a783          	lw	a5,0(a5)
   1eebc:	fe0784e3          	beqz	a5,1eea4 <_close_r+0x24>
   1eec0:	00f42023          	sw	a5,0(s0)
   1eec4:	00c12083          	lw	ra,12(sp)
   1eec8:	00812403          	lw	s0,8(sp)
   1eecc:	01010113          	addi	sp,sp,16
   1eed0:	00008067          	ret

0001eed4 <_fclose_r>:
   1eed4:	ff010113          	addi	sp,sp,-16
   1eed8:	00112623          	sw	ra,12(sp)
   1eedc:	00812423          	sw	s0,8(sp)
   1eee0:	00912223          	sw	s1,4(sp)
   1eee4:	01212023          	sw	s2,0(sp)
   1eee8:	02058063          	beqz	a1,1ef08 <_fclose_r+0x34>
   1eeec:	00050493          	mv	s1,a0
   1eef0:	00058413          	mv	s0,a1
   1eef4:	00050663          	beqz	a0,1ef00 <_fclose_r+0x2c>
   1eef8:	03852783          	lw	a5,56(a0)
   1eefc:	0a078c63          	beqz	a5,1efb4 <_fclose_r+0xe0>
   1ef00:	00c41783          	lh	a5,12(s0)
   1ef04:	02079263          	bnez	a5,1ef28 <_fclose_r+0x54>
   1ef08:	00c12083          	lw	ra,12(sp)
   1ef0c:	00812403          	lw	s0,8(sp)
   1ef10:	00000913          	li	s2,0
   1ef14:	00090513          	mv	a0,s2
   1ef18:	00412483          	lw	s1,4(sp)
   1ef1c:	00012903          	lw	s2,0(sp)
   1ef20:	01010113          	addi	sp,sp,16
   1ef24:	00008067          	ret
   1ef28:	00040593          	mv	a1,s0
   1ef2c:	00048513          	mv	a0,s1
   1ef30:	839f50ef          	jal	ra,14768 <__sflush_r>
   1ef34:	02c42783          	lw	a5,44(s0)
   1ef38:	00050913          	mv	s2,a0
   1ef3c:	00078a63          	beqz	a5,1ef50 <_fclose_r+0x7c>
   1ef40:	01c42583          	lw	a1,28(s0)
   1ef44:	00048513          	mv	a0,s1
   1ef48:	000780e7          	jalr	a5
   1ef4c:	06054c63          	bltz	a0,1efc4 <_fclose_r+0xf0>
   1ef50:	00c45783          	lhu	a5,12(s0)
   1ef54:	0807f793          	andi	a5,a5,128
   1ef58:	06079e63          	bnez	a5,1efd4 <_fclose_r+0x100>
   1ef5c:	03042583          	lw	a1,48(s0)
   1ef60:	00058c63          	beqz	a1,1ef78 <_fclose_r+0xa4>
   1ef64:	04040793          	addi	a5,s0,64
   1ef68:	00f58663          	beq	a1,a5,1ef74 <_fclose_r+0xa0>
   1ef6c:	00048513          	mv	a0,s1
   1ef70:	f75f50ef          	jal	ra,14ee4 <_free_r>
   1ef74:	02042823          	sw	zero,48(s0)
   1ef78:	04442583          	lw	a1,68(s0)
   1ef7c:	00058863          	beqz	a1,1ef8c <_fclose_r+0xb8>
   1ef80:	00048513          	mv	a0,s1
   1ef84:	f61f50ef          	jal	ra,14ee4 <_free_r>
   1ef88:	04042223          	sw	zero,68(s0)
   1ef8c:	df5f50ef          	jal	ra,14d80 <__sfp_lock_acquire>
   1ef90:	00041623          	sh	zero,12(s0)
   1ef94:	df1f50ef          	jal	ra,14d84 <__sfp_lock_release>
   1ef98:	00c12083          	lw	ra,12(sp)
   1ef9c:	00812403          	lw	s0,8(sp)
   1efa0:	00090513          	mv	a0,s2
   1efa4:	00412483          	lw	s1,4(sp)
   1efa8:	00012903          	lw	s2,0(sp)
   1efac:	01010113          	addi	sp,sp,16
   1efb0:	00008067          	ret
   1efb4:	dbdf50ef          	jal	ra,14d70 <__sinit>
   1efb8:	00c41783          	lh	a5,12(s0)
   1efbc:	f40786e3          	beqz	a5,1ef08 <_fclose_r+0x34>
   1efc0:	f69ff06f          	j	1ef28 <_fclose_r+0x54>
   1efc4:	00c45783          	lhu	a5,12(s0)
   1efc8:	fff00913          	li	s2,-1
   1efcc:	0807f793          	andi	a5,a5,128
   1efd0:	f80786e3          	beqz	a5,1ef5c <_fclose_r+0x88>
   1efd4:	01042583          	lw	a1,16(s0)
   1efd8:	00048513          	mv	a0,s1
   1efdc:	f09f50ef          	jal	ra,14ee4 <_free_r>
   1efe0:	f7dff06f          	j	1ef5c <_fclose_r+0x88>

0001efe4 <fclose>:
   1efe4:	81c18793          	addi	a5,gp,-2020 # 27aec <_impure_ptr>
   1efe8:	00050593          	mv	a1,a0
   1efec:	0007a503          	lw	a0,0(a5)
   1eff0:	ee5ff06f          	j	1eed4 <_fclose_r>

0001eff4 <__fputwc>:
   1eff4:	fd010113          	addi	sp,sp,-48
   1eff8:	02812423          	sw	s0,40(sp)
   1effc:	01312e23          	sw	s3,28(sp)
   1f000:	01512a23          	sw	s5,20(sp)
   1f004:	02112623          	sw	ra,44(sp)
   1f008:	02912223          	sw	s1,36(sp)
   1f00c:	03212023          	sw	s2,32(sp)
   1f010:	01412c23          	sw	s4,24(sp)
   1f014:	01612823          	sw	s6,16(sp)
   1f018:	00050993          	mv	s3,a0
   1f01c:	00058a93          	mv	s5,a1
   1f020:	00060413          	mv	s0,a2
   1f024:	bbcf90ef          	jal	ra,183e0 <__locale_mb_cur_max>
   1f028:	00100793          	li	a5,1
   1f02c:	02f51063          	bne	a0,a5,1f04c <__fputwc+0x58>
   1f030:	fffa8793          	addi	a5,s5,-1
   1f034:	0fe00713          	li	a4,254
   1f038:	00f76a63          	bltu	a4,a5,1f04c <__fputwc+0x58>
   1f03c:	0ffaf713          	andi	a4,s5,255
   1f040:	00e10623          	sb	a4,12(sp)
   1f044:	00100913          	li	s2,1
   1f048:	02c0006f          	j	1f074 <__fputwc+0x80>
   1f04c:	05c40693          	addi	a3,s0,92
   1f050:	000a8613          	mv	a2,s5
   1f054:	00c10593          	addi	a1,sp,12
   1f058:	00098513          	mv	a0,s3
   1f05c:	718010ef          	jal	ra,20774 <_wcrtomb_r>
   1f060:	fff00793          	li	a5,-1
   1f064:	00050913          	mv	s2,a0
   1f068:	0af50463          	beq	a0,a5,1f110 <__fputwc+0x11c>
   1f06c:	08050e63          	beqz	a0,1f108 <__fputwc+0x114>
   1f070:	00c14703          	lbu	a4,12(sp)
   1f074:	00000493          	li	s1,0
   1f078:	fff00a13          	li	s4,-1
   1f07c:	00a00b13          	li	s6,10
   1f080:	0280006f          	j	1f0a8 <__fputwc+0xb4>
   1f084:	00042783          	lw	a5,0(s0)
   1f088:	00178693          	addi	a3,a5,1
   1f08c:	00d42023          	sw	a3,0(s0)
   1f090:	00e78023          	sb	a4,0(a5)
   1f094:	00148493          	addi	s1,s1,1
   1f098:	00c10793          	addi	a5,sp,12
   1f09c:	009787b3          	add	a5,a5,s1
   1f0a0:	0724f463          	bgeu	s1,s2,1f108 <__fputwc+0x114>
   1f0a4:	0007c703          	lbu	a4,0(a5)
   1f0a8:	00842783          	lw	a5,8(s0)
   1f0ac:	fff78793          	addi	a5,a5,-1
   1f0b0:	00f42423          	sw	a5,8(s0)
   1f0b4:	fc07d8e3          	bgez	a5,1f084 <__fputwc+0x90>
   1f0b8:	01842683          	lw	a3,24(s0)
   1f0bc:	00070593          	mv	a1,a4
   1f0c0:	00040613          	mv	a2,s0
   1f0c4:	00098513          	mv	a0,s3
   1f0c8:	00d7c463          	blt	a5,a3,1f0d0 <__fputwc+0xdc>
   1f0cc:	fb671ce3          	bne	a4,s6,1f084 <__fputwc+0x90>
   1f0d0:	50c010ef          	jal	ra,205dc <__swbuf_r>
   1f0d4:	fd4510e3          	bne	a0,s4,1f094 <__fputwc+0xa0>
   1f0d8:	fff00913          	li	s2,-1
   1f0dc:	02c12083          	lw	ra,44(sp)
   1f0e0:	02812403          	lw	s0,40(sp)
   1f0e4:	00090513          	mv	a0,s2
   1f0e8:	02412483          	lw	s1,36(sp)
   1f0ec:	02012903          	lw	s2,32(sp)
   1f0f0:	01c12983          	lw	s3,28(sp)
   1f0f4:	01812a03          	lw	s4,24(sp)
   1f0f8:	01412a83          	lw	s5,20(sp)
   1f0fc:	01012b03          	lw	s6,16(sp)
   1f100:	03010113          	addi	sp,sp,48
   1f104:	00008067          	ret
   1f108:	000a8913          	mv	s2,s5
   1f10c:	fd1ff06f          	j	1f0dc <__fputwc+0xe8>
   1f110:	00c45783          	lhu	a5,12(s0)
   1f114:	0407e793          	ori	a5,a5,64
   1f118:	00f41623          	sh	a5,12(s0)
   1f11c:	fc1ff06f          	j	1f0dc <__fputwc+0xe8>

0001f120 <_fputwc_r>:
   1f120:	00c61783          	lh	a5,12(a2)
   1f124:	01279713          	slli	a4,a5,0x12
   1f128:	02074063          	bltz	a4,1f148 <_fputwc_r+0x28>
   1f12c:	06462703          	lw	a4,100(a2)
   1f130:	000026b7          	lui	a3,0x2
   1f134:	00d7e7b3          	or	a5,a5,a3
   1f138:	000026b7          	lui	a3,0x2
   1f13c:	00d76733          	or	a4,a4,a3
   1f140:	00f61623          	sh	a5,12(a2)
   1f144:	06e62223          	sw	a4,100(a2)
   1f148:	eadff06f          	j	1eff4 <__fputwc>

0001f14c <fputwc>:
   1f14c:	fe010113          	addi	sp,sp,-32
   1f150:	81c18793          	addi	a5,gp,-2020 # 27aec <_impure_ptr>
   1f154:	00812c23          	sw	s0,24(sp)
   1f158:	0007a403          	lw	s0,0(a5)
   1f15c:	00912a23          	sw	s1,20(sp)
   1f160:	00112e23          	sw	ra,28(sp)
   1f164:	00050493          	mv	s1,a0
   1f168:	00058613          	mv	a2,a1
   1f16c:	00040663          	beqz	s0,1f178 <fputwc+0x2c>
   1f170:	03842783          	lw	a5,56(s0)
   1f174:	04078463          	beqz	a5,1f1bc <fputwc+0x70>
   1f178:	00c61783          	lh	a5,12(a2)
   1f17c:	01279713          	slli	a4,a5,0x12
   1f180:	02074063          	bltz	a4,1f1a0 <fputwc+0x54>
   1f184:	06462703          	lw	a4,100(a2)
   1f188:	000026b7          	lui	a3,0x2
   1f18c:	00d7e7b3          	or	a5,a5,a3
   1f190:	000026b7          	lui	a3,0x2
   1f194:	00d76733          	or	a4,a4,a3
   1f198:	00f61623          	sh	a5,12(a2)
   1f19c:	06e62223          	sw	a4,100(a2)
   1f1a0:	00040513          	mv	a0,s0
   1f1a4:	01812403          	lw	s0,24(sp)
   1f1a8:	01c12083          	lw	ra,28(sp)
   1f1ac:	00048593          	mv	a1,s1
   1f1b0:	01412483          	lw	s1,20(sp)
   1f1b4:	02010113          	addi	sp,sp,32
   1f1b8:	e3dff06f          	j	1eff4 <__fputwc>
   1f1bc:	00040513          	mv	a0,s0
   1f1c0:	00b12623          	sw	a1,12(sp)
   1f1c4:	badf50ef          	jal	ra,14d70 <__sinit>
   1f1c8:	00c12603          	lw	a2,12(sp)
   1f1cc:	fadff06f          	j	1f178 <fputwc+0x2c>

0001f1d0 <_fstat_r>:
   1f1d0:	00058793          	mv	a5,a1
   1f1d4:	ff010113          	addi	sp,sp,-16
   1f1d8:	00812423          	sw	s0,8(sp)
   1f1dc:	00060593          	mv	a1,a2
   1f1e0:	00050413          	mv	s0,a0
   1f1e4:	00078513          	mv	a0,a5
   1f1e8:	00112623          	sw	ra,12(sp)
   1f1ec:	8a01a623          	sw	zero,-1876(gp) # 27b7c <errno>
   1f1f0:	885f10ef          	jal	ra,10a74 <_fstat>
   1f1f4:	fff00793          	li	a5,-1
   1f1f8:	00f50a63          	beq	a0,a5,1f20c <_fstat_r+0x3c>
   1f1fc:	00c12083          	lw	ra,12(sp)
   1f200:	00812403          	lw	s0,8(sp)
   1f204:	01010113          	addi	sp,sp,16
   1f208:	00008067          	ret
   1f20c:	8ac18793          	addi	a5,gp,-1876 # 27b7c <errno>
   1f210:	0007a783          	lw	a5,0(a5)
   1f214:	fe0784e3          	beqz	a5,1f1fc <_fstat_r+0x2c>
   1f218:	00f42023          	sw	a5,0(s0)
   1f21c:	00c12083          	lw	ra,12(sp)
   1f220:	00812403          	lw	s0,8(sp)
   1f224:	01010113          	addi	sp,sp,16
   1f228:	00008067          	ret

0001f22c <_isatty_r>:
   1f22c:	ff010113          	addi	sp,sp,-16
   1f230:	00812423          	sw	s0,8(sp)
   1f234:	00050413          	mv	s0,a0
   1f238:	00058513          	mv	a0,a1
   1f23c:	8a01a623          	sw	zero,-1876(gp) # 27b7c <errno>
   1f240:	00112623          	sw	ra,12(sp)
   1f244:	f34f10ef          	jal	ra,10978 <_access>
   1f248:	fff00793          	li	a5,-1
   1f24c:	00f50a63          	beq	a0,a5,1f260 <_isatty_r+0x34>
   1f250:	00c12083          	lw	ra,12(sp)
   1f254:	00812403          	lw	s0,8(sp)
   1f258:	01010113          	addi	sp,sp,16
   1f25c:	00008067          	ret
   1f260:	8ac18793          	addi	a5,gp,-1876 # 27b7c <errno>
   1f264:	0007a783          	lw	a5,0(a5)
   1f268:	fe0784e3          	beqz	a5,1f250 <_isatty_r+0x24>
   1f26c:	00f42023          	sw	a5,0(s0)
   1f270:	00c12083          	lw	ra,12(sp)
   1f274:	00812403          	lw	s0,8(sp)
   1f278:	01010113          	addi	sp,sp,16
   1f27c:	00008067          	ret

0001f280 <_lseek_r>:
   1f280:	00058793          	mv	a5,a1
   1f284:	ff010113          	addi	sp,sp,-16
   1f288:	00812423          	sw	s0,8(sp)
   1f28c:	00060593          	mv	a1,a2
   1f290:	00050413          	mv	s0,a0
   1f294:	00068613          	mv	a2,a3
   1f298:	00078513          	mv	a0,a5
   1f29c:	00112623          	sw	ra,12(sp)
   1f2a0:	8a01a623          	sw	zero,-1876(gp) # 27b7c <errno>
   1f2a4:	ed4f10ef          	jal	ra,10978 <_access>
   1f2a8:	fff00793          	li	a5,-1
   1f2ac:	00f50a63          	beq	a0,a5,1f2c0 <_lseek_r+0x40>
   1f2b0:	00c12083          	lw	ra,12(sp)
   1f2b4:	00812403          	lw	s0,8(sp)
   1f2b8:	01010113          	addi	sp,sp,16
   1f2bc:	00008067          	ret
   1f2c0:	8ac18793          	addi	a5,gp,-1876 # 27b7c <errno>
   1f2c4:	0007a783          	lw	a5,0(a5)
   1f2c8:	fe0784e3          	beqz	a5,1f2b0 <_lseek_r+0x30>
   1f2cc:	00f42023          	sw	a5,0(s0)
   1f2d0:	00c12083          	lw	ra,12(sp)
   1f2d4:	00812403          	lw	s0,8(sp)
   1f2d8:	01010113          	addi	sp,sp,16
   1f2dc:	00008067          	ret

0001f2e0 <_read_r>:
   1f2e0:	00058793          	mv	a5,a1
   1f2e4:	ff010113          	addi	sp,sp,-16
   1f2e8:	00812423          	sw	s0,8(sp)
   1f2ec:	00060593          	mv	a1,a2
   1f2f0:	00050413          	mv	s0,a0
   1f2f4:	00068613          	mv	a2,a3
   1f2f8:	00078513          	mv	a0,a5
   1f2fc:	00112623          	sw	ra,12(sp)
   1f300:	8a01a623          	sw	zero,-1876(gp) # 27b7c <errno>
   1f304:	ebcf10ef          	jal	ra,109c0 <_read>
   1f308:	fff00793          	li	a5,-1
   1f30c:	00f50a63          	beq	a0,a5,1f320 <_read_r+0x40>
   1f310:	00c12083          	lw	ra,12(sp)
   1f314:	00812403          	lw	s0,8(sp)
   1f318:	01010113          	addi	sp,sp,16
   1f31c:	00008067          	ret
   1f320:	8ac18793          	addi	a5,gp,-1876 # 27b7c <errno>
   1f324:	0007a783          	lw	a5,0(a5)
   1f328:	fe0784e3          	beqz	a5,1f310 <_read_r+0x30>
   1f32c:	00f42023          	sw	a5,0(s0)
   1f330:	00c12083          	lw	ra,12(sp)
   1f334:	00812403          	lw	s0,8(sp)
   1f338:	01010113          	addi	sp,sp,16
   1f33c:	00008067          	ret

0001f340 <__ssprint_r>:
   1f340:	00862783          	lw	a5,8(a2)
   1f344:	fd010113          	addi	sp,sp,-48
   1f348:	01512a23          	sw	s5,20(sp)
   1f34c:	02112623          	sw	ra,44(sp)
   1f350:	02812423          	sw	s0,40(sp)
   1f354:	02912223          	sw	s1,36(sp)
   1f358:	03212023          	sw	s2,32(sp)
   1f35c:	01312e23          	sw	s3,28(sp)
   1f360:	01412c23          	sw	s4,24(sp)
   1f364:	01612823          	sw	s6,16(sp)
   1f368:	01712623          	sw	s7,12(sp)
   1f36c:	01812423          	sw	s8,8(sp)
   1f370:	00060a93          	mv	s5,a2
   1f374:	14078863          	beqz	a5,1f4c4 <__ssprint_r+0x184>
   1f378:	00050b13          	mv	s6,a0
   1f37c:	00058413          	mv	s0,a1
   1f380:	00062983          	lw	s3,0(a2)
   1f384:	0005a503          	lw	a0,0(a1)
   1f388:	0085a483          	lw	s1,8(a1)
   1f38c:	0d40006f          	j	1f460 <__ssprint_r+0x120>
   1f390:	00c45783          	lhu	a5,12(s0)
   1f394:	4807f713          	andi	a4,a5,1152
   1f398:	08070a63          	beqz	a4,1f42c <__ssprint_r+0xec>
   1f39c:	01442683          	lw	a3,20(s0)
   1f3a0:	01042583          	lw	a1,16(s0)
   1f3a4:	00190713          	addi	a4,s2,1
   1f3a8:	00169493          	slli	s1,a3,0x1
   1f3ac:	00d486b3          	add	a3,s1,a3
   1f3b0:	01f6d493          	srli	s1,a3,0x1f
   1f3b4:	40b50a33          	sub	s4,a0,a1
   1f3b8:	00d484b3          	add	s1,s1,a3
   1f3bc:	4014d493          	srai	s1,s1,0x1
   1f3c0:	01470733          	add	a4,a4,s4
   1f3c4:	00048613          	mv	a2,s1
   1f3c8:	00e4f663          	bgeu	s1,a4,1f3d4 <__ssprint_r+0x94>
   1f3cc:	00070493          	mv	s1,a4
   1f3d0:	00070613          	mv	a2,a4
   1f3d4:	4007f793          	andi	a5,a5,1024
   1f3d8:	0a078663          	beqz	a5,1f484 <__ssprint_r+0x144>
   1f3dc:	00060593          	mv	a1,a2
   1f3e0:	000b0513          	mv	a0,s6
   1f3e4:	a0cf90ef          	jal	ra,185f0 <_malloc_r>
   1f3e8:	00050c13          	mv	s8,a0
   1f3ec:	0a050a63          	beqz	a0,1f4a0 <__ssprint_r+0x160>
   1f3f0:	01042583          	lw	a1,16(s0)
   1f3f4:	000a0613          	mv	a2,s4
   1f3f8:	b55f90ef          	jal	ra,18f4c <memcpy>
   1f3fc:	00c45783          	lhu	a5,12(s0)
   1f400:	b7f7f793          	andi	a5,a5,-1153
   1f404:	0807e793          	ori	a5,a5,128
   1f408:	00f41623          	sh	a5,12(s0)
   1f40c:	014c0533          	add	a0,s8,s4
   1f410:	41448a33          	sub	s4,s1,s4
   1f414:	00942a23          	sw	s1,20(s0)
   1f418:	01442423          	sw	s4,8(s0)
   1f41c:	01842823          	sw	s8,16(s0)
   1f420:	00a42023          	sw	a0,0(s0)
   1f424:	00090493          	mv	s1,s2
   1f428:	00090a13          	mv	s4,s2
   1f42c:	000a0613          	mv	a2,s4
   1f430:	000b8593          	mv	a1,s7
   1f434:	c35f90ef          	jal	ra,19068 <memmove>
   1f438:	00842703          	lw	a4,8(s0)
   1f43c:	00042503          	lw	a0,0(s0)
   1f440:	008aa783          	lw	a5,8(s5)
   1f444:	409704b3          	sub	s1,a4,s1
   1f448:	01450533          	add	a0,a0,s4
   1f44c:	00942423          	sw	s1,8(s0)
   1f450:	00a42023          	sw	a0,0(s0)
   1f454:	41278933          	sub	s2,a5,s2
   1f458:	012aa423          	sw	s2,8(s5)
   1f45c:	06090463          	beqz	s2,1f4c4 <__ssprint_r+0x184>
   1f460:	0049a903          	lw	s2,4(s3)
   1f464:	0009ab83          	lw	s7,0(s3)
   1f468:	00048a13          	mv	s4,s1
   1f46c:	00898993          	addi	s3,s3,8
   1f470:	fe0908e3          	beqz	s2,1f460 <__ssprint_r+0x120>
   1f474:	f0997ee3          	bgeu	s2,s1,1f390 <__ssprint_r+0x50>
   1f478:	00090493          	mv	s1,s2
   1f47c:	00090a13          	mv	s4,s2
   1f480:	fadff06f          	j	1f42c <__ssprint_r+0xec>
   1f484:	000b0513          	mv	a0,s6
   1f488:	d11fa0ef          	jal	ra,1a198 <_realloc_r>
   1f48c:	00050c13          	mv	s8,a0
   1f490:	f6051ee3          	bnez	a0,1f40c <__ssprint_r+0xcc>
   1f494:	01042583          	lw	a1,16(s0)
   1f498:	000b0513          	mv	a0,s6
   1f49c:	a49f50ef          	jal	ra,14ee4 <_free_r>
   1f4a0:	00c00793          	li	a5,12
   1f4a4:	00fb2023          	sw	a5,0(s6)
   1f4a8:	00c45783          	lhu	a5,12(s0)
   1f4ac:	fff00513          	li	a0,-1
   1f4b0:	0407e793          	ori	a5,a5,64
   1f4b4:	00f41623          	sh	a5,12(s0)
   1f4b8:	000aa423          	sw	zero,8(s5)
   1f4bc:	000aa223          	sw	zero,4(s5)
   1f4c0:	00c0006f          	j	1f4cc <__ssprint_r+0x18c>
   1f4c4:	000aa223          	sw	zero,4(s5)
   1f4c8:	00000513          	li	a0,0
   1f4cc:	02c12083          	lw	ra,44(sp)
   1f4d0:	02812403          	lw	s0,40(sp)
   1f4d4:	02412483          	lw	s1,36(sp)
   1f4d8:	02012903          	lw	s2,32(sp)
   1f4dc:	01c12983          	lw	s3,28(sp)
   1f4e0:	01812a03          	lw	s4,24(sp)
   1f4e4:	01412a83          	lw	s5,20(sp)
   1f4e8:	01012b03          	lw	s6,16(sp)
   1f4ec:	00c12b83          	lw	s7,12(sp)
   1f4f0:	00812c03          	lw	s8,8(sp)
   1f4f4:	03010113          	addi	sp,sp,48
   1f4f8:	00008067          	ret

0001f4fc <_svfiprintf_r>:
   1f4fc:	00c5d783          	lhu	a5,12(a1)
   1f500:	ed010113          	addi	sp,sp,-304
   1f504:	11312e23          	sw	s3,284(sp)
   1f508:	11412c23          	sw	s4,280(sp)
   1f50c:	11812423          	sw	s8,264(sp)
   1f510:	12112623          	sw	ra,300(sp)
   1f514:	12812423          	sw	s0,296(sp)
   1f518:	12912223          	sw	s1,292(sp)
   1f51c:	13212023          	sw	s2,288(sp)
   1f520:	11512a23          	sw	s5,276(sp)
   1f524:	11612823          	sw	s6,272(sp)
   1f528:	11712623          	sw	s7,268(sp)
   1f52c:	11912223          	sw	s9,260(sp)
   1f530:	11a12023          	sw	s10,256(sp)
   1f534:	0fb12e23          	sw	s11,252(sp)
   1f538:	0807f793          	andi	a5,a5,128
   1f53c:	00d12623          	sw	a3,12(sp)
   1f540:	00058993          	mv	s3,a1
   1f544:	00050a13          	mv	s4,a0
   1f548:	00060c13          	mv	s8,a2
   1f54c:	00078663          	beqz	a5,1f558 <_svfiprintf_r+0x5c>
   1f550:	0105a783          	lw	a5,16(a1)
   1f554:	560786e3          	beqz	a5,202c0 <_svfiprintf_r+0xdc4>
   1f558:	ffff87b7          	lui	a5,0xffff8
   1f55c:	04c10493          	addi	s1,sp,76
   1f560:	8307c793          	xori	a5,a5,-2000
   1f564:	04912023          	sw	s1,64(sp)
   1f568:	04012423          	sw	zero,72(sp)
   1f56c:	04012223          	sw	zero,68(sp)
   1f570:	00012823          	sw	zero,16(sp)
   1f574:	00012c23          	sw	zero,24(sp)
   1f578:	02012023          	sw	zero,32(sp)
   1f57c:	00012e23          	sw	zero,28(sp)
   1f580:	00012423          	sw	zero,8(sp)
   1f584:	00006a97          	auipc	s5,0x6
   1f588:	d58a8a93          	addi	s5,s5,-680 # 252dc <_ctype_+0x104>
   1f58c:	02f12223          	sw	a5,36(sp)
   1f590:	00048413          	mv	s0,s1
   1f594:	000c0d13          	mv	s10,s8
   1f598:	000d4783          	lbu	a5,0(s10)
   1f59c:	12078063          	beqz	a5,1f6bc <_svfiprintf_r+0x1c0>
   1f5a0:	02500693          	li	a3,37
   1f5a4:	4ad786e3          	beq	a5,a3,20250 <_svfiprintf_r+0xd54>
   1f5a8:	000d0913          	mv	s2,s10
   1f5ac:	00c0006f          	j	1f5b8 <_svfiprintf_r+0xbc>
   1f5b0:	0ed78263          	beq	a5,a3,1f694 <_svfiprintf_r+0x198>
   1f5b4:	000b0913          	mv	s2,s6
   1f5b8:	00194783          	lbu	a5,1(s2)
   1f5bc:	00190b13          	addi	s6,s2,1
   1f5c0:	fe0798e3          	bnez	a5,1f5b0 <_svfiprintf_r+0xb4>
   1f5c4:	41ab0c33          	sub	s8,s6,s10
   1f5c8:	0e0c0a63          	beqz	s8,1f6bc <_svfiprintf_r+0x1c0>
   1f5cc:	04812703          	lw	a4,72(sp)
   1f5d0:	04412783          	lw	a5,68(sp)
   1f5d4:	01a42023          	sw	s10,0(s0)
   1f5d8:	01870733          	add	a4,a4,s8
   1f5dc:	00178793          	addi	a5,a5,1 # ffff8001 <__global_pointer$+0xfffcfd31>
   1f5e0:	01842223          	sw	s8,4(s0)
   1f5e4:	04e12423          	sw	a4,72(sp)
   1f5e8:	04f12223          	sw	a5,68(sp)
   1f5ec:	00700713          	li	a4,7
   1f5f0:	00840413          	addi	s0,s0,8
   1f5f4:	0af74663          	blt	a4,a5,1f6a0 <_svfiprintf_r+0x1a4>
   1f5f8:	00812703          	lw	a4,8(sp)
   1f5fc:	00194783          	lbu	a5,1(s2)
   1f600:	01870733          	add	a4,a4,s8
   1f604:	00e12423          	sw	a4,8(sp)
   1f608:	0a078a63          	beqz	a5,1f6bc <_svfiprintf_r+0x1c0>
   1f60c:	001b0d13          	addi	s10,s6,1
   1f610:	001b4683          	lbu	a3,1(s6)
   1f614:	02010da3          	sb	zero,59(sp)
   1f618:	fff00c13          	li	s8,-1
   1f61c:	00000913          	li	s2,0
   1f620:	00000c93          	li	s9,0
   1f624:	02a00b13          	li	s6,42
   1f628:	001d0d13          	addi	s10,s10,1
   1f62c:	05a00713          	li	a4,90
   1f630:	fe068793          	addi	a5,a3,-32 # 1fe0 <threadsense.2617+0x1fe0>
   1f634:	1af76e63          	bltu	a4,a5,1f7f0 <_svfiprintf_r+0x2f4>
   1f638:	00279793          	slli	a5,a5,0x2
   1f63c:	015787b3          	add	a5,a5,s5
   1f640:	0007a783          	lw	a5,0(a5)
   1f644:	015787b3          	add	a5,a5,s5
   1f648:	00078067          	jr	a5
   1f64c:	000a0513          	mv	a0,s4
   1f650:	cfdf80ef          	jal	ra,1834c <_localeconv_r>
   1f654:	00452783          	lw	a5,4(a0)
   1f658:	00078513          	mv	a0,a5
   1f65c:	00f12e23          	sw	a5,28(sp)
   1f660:	964f20ef          	jal	ra,117c4 <strlen>
   1f664:	02a12023          	sw	a0,32(sp)
   1f668:	00050b93          	mv	s7,a0
   1f66c:	000a0513          	mv	a0,s4
   1f670:	cddf80ef          	jal	ra,1834c <_localeconv_r>
   1f674:	00852783          	lw	a5,8(a0)
   1f678:	00f12c23          	sw	a5,24(sp)
   1f67c:	3c0b9ee3          	bnez	s7,20258 <_svfiprintf_r+0xd5c>
   1f680:	000d4683          	lbu	a3,0(s10)
   1f684:	fa5ff06f          	j	1f628 <_svfiprintf_r+0x12c>
   1f688:	020cec93          	ori	s9,s9,32
   1f68c:	000d4683          	lbu	a3,0(s10)
   1f690:	f99ff06f          	j	1f628 <_svfiprintf_r+0x12c>
   1f694:	41ab0c33          	sub	s8,s6,s10
   1f698:	f60c0ae3          	beqz	s8,1f60c <_svfiprintf_r+0x110>
   1f69c:	f31ff06f          	j	1f5cc <_svfiprintf_r+0xd0>
   1f6a0:	04010613          	addi	a2,sp,64
   1f6a4:	00098593          	mv	a1,s3
   1f6a8:	000a0513          	mv	a0,s4
   1f6ac:	c95ff0ef          	jal	ra,1f340 <__ssprint_r>
   1f6b0:	02051263          	bnez	a0,1f6d4 <_svfiprintf_r+0x1d8>
   1f6b4:	00048413          	mv	s0,s1
   1f6b8:	f41ff06f          	j	1f5f8 <_svfiprintf_r+0xfc>
   1f6bc:	04812783          	lw	a5,72(sp)
   1f6c0:	00078a63          	beqz	a5,1f6d4 <_svfiprintf_r+0x1d8>
   1f6c4:	04010613          	addi	a2,sp,64
   1f6c8:	00098593          	mv	a1,s3
   1f6cc:	000a0513          	mv	a0,s4
   1f6d0:	c71ff0ef          	jal	ra,1f340 <__ssprint_r>
   1f6d4:	00c9d783          	lhu	a5,12(s3)
   1f6d8:	0407f793          	andi	a5,a5,64
   1f6dc:	6a0792e3          	bnez	a5,20580 <_svfiprintf_r+0x1084>
   1f6e0:	12c12083          	lw	ra,300(sp)
   1f6e4:	12812403          	lw	s0,296(sp)
   1f6e8:	00812503          	lw	a0,8(sp)
   1f6ec:	12412483          	lw	s1,292(sp)
   1f6f0:	12012903          	lw	s2,288(sp)
   1f6f4:	11c12983          	lw	s3,284(sp)
   1f6f8:	11812a03          	lw	s4,280(sp)
   1f6fc:	11412a83          	lw	s5,276(sp)
   1f700:	11012b03          	lw	s6,272(sp)
   1f704:	10c12b83          	lw	s7,268(sp)
   1f708:	10812c03          	lw	s8,264(sp)
   1f70c:	10412c83          	lw	s9,260(sp)
   1f710:	10012d03          	lw	s10,256(sp)
   1f714:	0fc12d83          	lw	s11,252(sp)
   1f718:	13010113          	addi	sp,sp,304
   1f71c:	00008067          	ret
   1f720:	00005797          	auipc	a5,0x5
   1f724:	3cc78793          	addi	a5,a5,972 # 24aec <zeroes.4505+0x34>
   1f728:	00f12823          	sw	a5,16(sp)
   1f72c:	020cf793          	andi	a5,s9,32
   1f730:	4c078663          	beqz	a5,1fbfc <_svfiprintf_r+0x700>
   1f734:	00c12783          	lw	a5,12(sp)
   1f738:	00778613          	addi	a2,a5,7
   1f73c:	ff867613          	andi	a2,a2,-8
   1f740:	00062d83          	lw	s11,0(a2)
   1f744:	00462303          	lw	t1,4(a2)
   1f748:	00860793          	addi	a5,a2,8
   1f74c:	00f12623          	sw	a5,12(sp)
   1f750:	001cf613          	andi	a2,s9,1
   1f754:	00060663          	beqz	a2,1f760 <_svfiprintf_r+0x264>
   1f758:	006de633          	or	a2,s11,t1
   1f75c:	30061ce3          	bnez	a2,20274 <_svfiprintf_r+0xd78>
   1f760:	bffcfb13          	andi	s6,s9,-1025
   1f764:	00200693          	li	a3,2
   1f768:	02010da3          	sb	zero,59(sp)
   1f76c:	fff00613          	li	a2,-1
   1f770:	5ecc0c63          	beq	s8,a2,1fd68 <_svfiprintf_r+0x86c>
   1f774:	006de633          	or	a2,s11,t1
   1f778:	f7fb7c93          	andi	s9,s6,-129
   1f77c:	100616e3          	bnez	a2,20088 <_svfiprintf_r+0xb8c>
   1f780:	6c0c1a63          	bnez	s8,1fe54 <_svfiprintf_r+0x958>
   1f784:	26069ee3          	bnez	a3,20200 <_svfiprintf_r+0xd04>
   1f788:	001b7d93          	andi	s11,s6,1
   1f78c:	0f010b93          	addi	s7,sp,240
   1f790:	000d8863          	beqz	s11,1f7a0 <_svfiprintf_r+0x2a4>
   1f794:	03000793          	li	a5,48
   1f798:	0ef107a3          	sb	a5,239(sp)
   1f79c:	0ef10b93          	addi	s7,sp,239
   1f7a0:	000c0b13          	mv	s6,s8
   1f7a4:	01bc5463          	bge	s8,s11,1f7ac <_svfiprintf_r+0x2b0>
   1f7a8:	000d8b13          	mv	s6,s11
   1f7ac:	03b14783          	lbu	a5,59(sp)
   1f7b0:	00f037b3          	snez	a5,a5
   1f7b4:	00fb0b33          	add	s6,s6,a5
   1f7b8:	0540006f          	j	1f80c <_svfiprintf_r+0x310>
   1f7bc:	00000913          	li	s2,0
   1f7c0:	fd068613          	addi	a2,a3,-48
   1f7c4:	001d0d13          	addi	s10,s10,1
   1f7c8:	00291793          	slli	a5,s2,0x2
   1f7cc:	fffd4683          	lbu	a3,-1(s10)
   1f7d0:	01278933          	add	s2,a5,s2
   1f7d4:	00191913          	slli	s2,s2,0x1
   1f7d8:	01260933          	add	s2,a2,s2
   1f7dc:	00900793          	li	a5,9
   1f7e0:	fd068613          	addi	a2,a3,-48
   1f7e4:	fec7f0e3          	bgeu	a5,a2,1f7c4 <_svfiprintf_r+0x2c8>
   1f7e8:	fe068793          	addi	a5,a3,-32
   1f7ec:	e4f776e3          	bgeu	a4,a5,1f638 <_svfiprintf_r+0x13c>
   1f7f0:	ec0686e3          	beqz	a3,1f6bc <_svfiprintf_r+0x1c0>
   1f7f4:	08d10623          	sb	a3,140(sp)
   1f7f8:	02010da3          	sb	zero,59(sp)
   1f7fc:	00100b13          	li	s6,1
   1f800:	00100d93          	li	s11,1
   1f804:	08c10b93          	addi	s7,sp,140
   1f808:	00000c13          	li	s8,0
   1f80c:	002cff13          	andi	t5,s9,2
   1f810:	000f0463          	beqz	t5,1f818 <_svfiprintf_r+0x31c>
   1f814:	002b0b13          	addi	s6,s6,2
   1f818:	084cfe93          	andi	t4,s9,132
   1f81c:	04812783          	lw	a5,72(sp)
   1f820:	04412603          	lw	a2,68(sp)
   1f824:	000e9663          	bnez	t4,1f830 <_svfiprintf_r+0x334>
   1f828:	416906b3          	sub	a3,s2,s6
   1f82c:	06d042e3          	bgtz	a3,20090 <_svfiprintf_r+0xb94>
   1f830:	03b14503          	lbu	a0,59(sp)
   1f834:	00160593          	addi	a1,a2,1
   1f838:	00840693          	addi	a3,s0,8
   1f83c:	04050063          	beqz	a0,1f87c <_svfiprintf_r+0x380>
   1f840:	03b10513          	addi	a0,sp,59
   1f844:	00178793          	addi	a5,a5,1
   1f848:	00a42023          	sw	a0,0(s0)
   1f84c:	00100513          	li	a0,1
   1f850:	00a42223          	sw	a0,4(s0)
   1f854:	04f12423          	sw	a5,72(sp)
   1f858:	04b12223          	sw	a1,68(sp)
   1f85c:	00700513          	li	a0,7
   1f860:	12b546e3          	blt	a0,a1,2018c <_svfiprintf_r+0xc90>
   1f864:	00260313          	addi	t1,a2,2
   1f868:	01040513          	addi	a0,s0,16
   1f86c:	00058613          	mv	a2,a1
   1f870:	00068413          	mv	s0,a3
   1f874:	00030593          	mv	a1,t1
   1f878:	00050693          	mv	a3,a0
   1f87c:	020f0c63          	beqz	t5,1f8b4 <_svfiprintf_r+0x3b8>
   1f880:	03c10613          	addi	a2,sp,60
   1f884:	00278793          	addi	a5,a5,2
   1f888:	00c42023          	sw	a2,0(s0)
   1f88c:	00200613          	li	a2,2
   1f890:	00c42223          	sw	a2,4(s0)
   1f894:	04f12423          	sw	a5,72(sp)
   1f898:	04b12223          	sw	a1,68(sp)
   1f89c:	00700613          	li	a2,7
   1f8a0:	12b644e3          	blt	a2,a1,201c8 <_svfiprintf_r+0xccc>
   1f8a4:	00058613          	mv	a2,a1
   1f8a8:	00068413          	mv	s0,a3
   1f8ac:	00158593          	addi	a1,a1,1
   1f8b0:	00868693          	addi	a3,a3,8
   1f8b4:	08000513          	li	a0,128
   1f8b8:	5eae8a63          	beq	t4,a0,1feac <_svfiprintf_r+0x9b0>
   1f8bc:	41bc0c33          	sub	s8,s8,s11
   1f8c0:	6d804063          	bgtz	s8,1ff80 <_svfiprintf_r+0xa84>
   1f8c4:	00fd87b3          	add	a5,s11,a5
   1f8c8:	01742023          	sw	s7,0(s0)
   1f8cc:	01b42223          	sw	s11,4(s0)
   1f8d0:	04f12423          	sw	a5,72(sp)
   1f8d4:	04b12223          	sw	a1,68(sp)
   1f8d8:	00700613          	li	a2,7
   1f8dc:	76b64a63          	blt	a2,a1,20050 <_svfiprintf_r+0xb54>
   1f8e0:	004cf813          	andi	a6,s9,4
   1f8e4:	00080663          	beqz	a6,1f8f0 <_svfiprintf_r+0x3f4>
   1f8e8:	41690433          	sub	s0,s2,s6
   1f8ec:	1e804263          	bgtz	s0,1fad0 <_svfiprintf_r+0x5d4>
   1f8f0:	01695463          	bge	s2,s6,1f8f8 <_svfiprintf_r+0x3fc>
   1f8f4:	000b0913          	mv	s2,s6
   1f8f8:	00812703          	lw	a4,8(sp)
   1f8fc:	01270733          	add	a4,a4,s2
   1f900:	00e12423          	sw	a4,8(sp)
   1f904:	76079663          	bnez	a5,20070 <_svfiprintf_r+0xb74>
   1f908:	04012223          	sw	zero,68(sp)
   1f90c:	00048413          	mv	s0,s1
   1f910:	c89ff06f          	j	1f598 <_svfiprintf_r+0x9c>
   1f914:	00c12783          	lw	a5,12(sp)
   1f918:	02010da3          	sb	zero,59(sp)
   1f91c:	0007ab83          	lw	s7,0(a5)
   1f920:	00478713          	addi	a4,a5,4
   1f924:	2e0b82e3          	beqz	s7,20408 <_svfiprintf_r+0xf0c>
   1f928:	fff00793          	li	a5,-1
   1f92c:	00e12623          	sw	a4,12(sp)
   1f930:	16fc0ee3          	beq	s8,a5,202ac <_svfiprintf_r+0xdb0>
   1f934:	000c0613          	mv	a2,s8
   1f938:	00000593          	li	a1,0
   1f93c:	000b8513          	mv	a0,s7
   1f940:	d30f90ef          	jal	ra,18e70 <memchr>
   1f944:	00c12703          	lw	a4,12(sp)
   1f948:	40050ae3          	beqz	a0,2055c <_svfiprintf_r+0x1060>
   1f94c:	41750db3          	sub	s11,a0,s7
   1f950:	00000c13          	li	s8,0
   1f954:	e4dff06f          	j	1f7a0 <_svfiprintf_r+0x2a4>
   1f958:	020cf793          	andi	a5,s9,32
   1f95c:	010ce813          	ori	a6,s9,16
   1f960:	46079e63          	bnez	a5,1fddc <_svfiprintf_r+0x8e0>
   1f964:	00c12783          	lw	a5,12(sp)
   1f968:	00478693          	addi	a3,a5,4
   1f96c:	00c12783          	lw	a5,12(sp)
   1f970:	00000313          	li	t1,0
   1f974:	00d12623          	sw	a3,12(sp)
   1f978:	0007ad83          	lw	s11,0(a5)
   1f97c:	47c0006f          	j	1fdf8 <_svfiprintf_r+0x8fc>
   1f980:	020cf793          	andi	a5,s9,32
   1f984:	010ceb13          	ori	s6,s9,16
   1f988:	48079063          	bnez	a5,1fe08 <_svfiprintf_r+0x90c>
   1f98c:	00c12783          	lw	a5,12(sp)
   1f990:	00478693          	addi	a3,a5,4
   1f994:	00c12783          	lw	a5,12(sp)
   1f998:	00000313          	li	t1,0
   1f99c:	00d12623          	sw	a3,12(sp)
   1f9a0:	0007ad83          	lw	s11,0(a5)
   1f9a4:	00100693          	li	a3,1
   1f9a8:	dc1ff06f          	j	1f768 <_svfiprintf_r+0x26c>
   1f9ac:	080cec93          	ori	s9,s9,128
   1f9b0:	000d4683          	lbu	a3,0(s10)
   1f9b4:	c75ff06f          	j	1f628 <_svfiprintf_r+0x12c>
   1f9b8:	000d4683          	lbu	a3,0(s10)
   1f9bc:	001d0793          	addi	a5,s10,1
   1f9c0:	3d6686e3          	beq	a3,s6,2058c <_svfiprintf_r+0x1090>
   1f9c4:	00078d13          	mv	s10,a5
   1f9c8:	fd068613          	addi	a2,a3,-48
   1f9cc:	00900793          	li	a5,9
   1f9d0:	00000c13          	li	s8,0
   1f9d4:	c4c7eee3          	bltu	a5,a2,1f630 <_svfiprintf_r+0x134>
   1f9d8:	001d0d13          	addi	s10,s10,1
   1f9dc:	002c1793          	slli	a5,s8,0x2
   1f9e0:	fffd4683          	lbu	a3,-1(s10)
   1f9e4:	01878c33          	add	s8,a5,s8
   1f9e8:	001c1c13          	slli	s8,s8,0x1
   1f9ec:	00cc0c33          	add	s8,s8,a2
   1f9f0:	00900793          	li	a5,9
   1f9f4:	fd068613          	addi	a2,a3,-48
   1f9f8:	fec7f0e3          	bgeu	a5,a2,1f9d8 <_svfiprintf_r+0x4dc>
   1f9fc:	c35ff06f          	j	1f630 <_svfiprintf_r+0x134>
   1fa00:	000d4683          	lbu	a3,0(s10)
   1fa04:	004cec93          	ori	s9,s9,4
   1fa08:	c21ff06f          	j	1f628 <_svfiprintf_r+0x12c>
   1fa0c:	02b00793          	li	a5,43
   1fa10:	02f10da3          	sb	a5,59(sp)
   1fa14:	000d4683          	lbu	a3,0(s10)
   1fa18:	c11ff06f          	j	1f628 <_svfiprintf_r+0x12c>
   1fa1c:	00c12783          	lw	a5,12(sp)
   1fa20:	000d4683          	lbu	a3,0(s10)
   1fa24:	0007a903          	lw	s2,0(a5)
   1fa28:	00478793          	addi	a5,a5,4
   1fa2c:	00f12623          	sw	a5,12(sp)
   1fa30:	be095ce3          	bgez	s2,1f628 <_svfiprintf_r+0x12c>
   1fa34:	41200933          	neg	s2,s2
   1fa38:	004cec93          	ori	s9,s9,4
   1fa3c:	bedff06f          	j	1f628 <_svfiprintf_r+0x12c>
   1fa40:	020cf793          	andi	a5,s9,32
   1fa44:	010ceb13          	ori	s6,s9,16
   1fa48:	3e079463          	bnez	a5,1fe30 <_svfiprintf_r+0x934>
   1fa4c:	00c12783          	lw	a5,12(sp)
   1fa50:	00478693          	addi	a3,a5,4
   1fa54:	00c12783          	lw	a5,12(sp)
   1fa58:	00d12623          	sw	a3,12(sp)
   1fa5c:	0007ad83          	lw	s11,0(a5)
   1fa60:	41fdd313          	srai	t1,s11,0x1f
   1fa64:	00030693          	mv	a3,t1
   1fa68:	2c06cc63          	bltz	a3,1fd40 <_svfiprintf_r+0x844>
   1fa6c:	fff00693          	li	a3,-1
   1fa70:	00dc0a63          	beq	s8,a3,1fa84 <_svfiprintf_r+0x588>
   1fa74:	006de6b3          	or	a3,s11,t1
   1fa78:	f7fb7c93          	andi	s9,s6,-129
   1fa7c:	78068063          	beqz	a3,201fc <_svfiprintf_r+0xd00>
   1fa80:	000c8b13          	mv	s6,s9
   1fa84:	04031ee3          	bnez	t1,202e0 <_svfiprintf_r+0xde4>
   1fa88:	00900793          	li	a5,9
   1fa8c:	05b7eae3          	bltu	a5,s11,202e0 <_svfiprintf_r+0xde4>
   1fa90:	030d8793          	addi	a5,s11,48
   1fa94:	0ef107a3          	sb	a5,239(sp)
   1fa98:	000b0c93          	mv	s9,s6
   1fa9c:	00100d93          	li	s11,1
   1faa0:	0ef10b93          	addi	s7,sp,239
   1faa4:	cfdff06f          	j	1f7a0 <_svfiprintf_r+0x2a4>
   1faa8:	00c12703          	lw	a4,12(sp)
   1faac:	02010da3          	sb	zero,59(sp)
   1fab0:	00100b13          	li	s6,1
   1fab4:	00072783          	lw	a5,0(a4)
   1fab8:	00470713          	addi	a4,a4,4
   1fabc:	00e12623          	sw	a4,12(sp)
   1fac0:	08f10623          	sb	a5,140(sp)
   1fac4:	00100d93          	li	s11,1
   1fac8:	08c10b93          	addi	s7,sp,140
   1facc:	d3dff06f          	j	1f808 <_svfiprintf_r+0x30c>
   1fad0:	00006317          	auipc	t1,0x6
   1fad4:	97830313          	addi	t1,t1,-1672 # 25448 <blanks.4466>
   1fad8:	01000593          	li	a1,16
   1fadc:	04412603          	lw	a2,68(sp)
   1fae0:	01000c13          	li	s8,16
   1fae4:	00700d93          	li	s11,7
   1fae8:	00030b93          	mv	s7,t1
   1faec:	0085c863          	blt	a1,s0,1fafc <_svfiprintf_r+0x600>
   1faf0:	0580006f          	j	1fb48 <_svfiprintf_r+0x64c>
   1faf4:	ff040413          	addi	s0,s0,-16
   1faf8:	048c5663          	bge	s8,s0,1fb44 <_svfiprintf_r+0x648>
   1fafc:	01078793          	addi	a5,a5,16
   1fb00:	00160613          	addi	a2,a2,1
   1fb04:	0176a023          	sw	s7,0(a3)
   1fb08:	0186a223          	sw	s8,4(a3)
   1fb0c:	04f12423          	sw	a5,72(sp)
   1fb10:	04c12223          	sw	a2,68(sp)
   1fb14:	00868693          	addi	a3,a3,8
   1fb18:	fccddee3          	bge	s11,a2,1faf4 <_svfiprintf_r+0x5f8>
   1fb1c:	04010613          	addi	a2,sp,64
   1fb20:	00098593          	mv	a1,s3
   1fb24:	000a0513          	mv	a0,s4
   1fb28:	819ff0ef          	jal	ra,1f340 <__ssprint_r>
   1fb2c:	ba0514e3          	bnez	a0,1f6d4 <_svfiprintf_r+0x1d8>
   1fb30:	ff040413          	addi	s0,s0,-16
   1fb34:	04812783          	lw	a5,72(sp)
   1fb38:	04412603          	lw	a2,68(sp)
   1fb3c:	00048693          	mv	a3,s1
   1fb40:	fa8c4ee3          	blt	s8,s0,1fafc <_svfiprintf_r+0x600>
   1fb44:	000b8313          	mv	t1,s7
   1fb48:	008787b3          	add	a5,a5,s0
   1fb4c:	00160613          	addi	a2,a2,1
   1fb50:	0066a023          	sw	t1,0(a3)
   1fb54:	0086a223          	sw	s0,4(a3)
   1fb58:	04f12423          	sw	a5,72(sp)
   1fb5c:	04c12223          	sw	a2,68(sp)
   1fb60:	00700693          	li	a3,7
   1fb64:	d8c6d6e3          	bge	a3,a2,1f8f0 <_svfiprintf_r+0x3f4>
   1fb68:	04010613          	addi	a2,sp,64
   1fb6c:	00098593          	mv	a1,s3
   1fb70:	000a0513          	mv	a0,s4
   1fb74:	fccff0ef          	jal	ra,1f340 <__ssprint_r>
   1fb78:	b4051ee3          	bnez	a0,1f6d4 <_svfiprintf_r+0x1d8>
   1fb7c:	04812783          	lw	a5,72(sp)
   1fb80:	d71ff06f          	j	1f8f0 <_svfiprintf_r+0x3f4>
   1fb84:	001cec93          	ori	s9,s9,1
   1fb88:	000d4683          	lbu	a3,0(s10)
   1fb8c:	a9dff06f          	j	1f628 <_svfiprintf_r+0x12c>
   1fb90:	03b14783          	lbu	a5,59(sp)
   1fb94:	000d4683          	lbu	a3,0(s10)
   1fb98:	a80798e3          	bnez	a5,1f628 <_svfiprintf_r+0x12c>
   1fb9c:	02000793          	li	a5,32
   1fba0:	02f10da3          	sb	a5,59(sp)
   1fba4:	a85ff06f          	j	1f628 <_svfiprintf_r+0x12c>
   1fba8:	020cf793          	andi	a5,s9,32
   1fbac:	24079c63          	bnez	a5,1fe04 <_svfiprintf_r+0x908>
   1fbb0:	00c12783          	lw	a5,12(sp)
   1fbb4:	010cf613          	andi	a2,s9,16
   1fbb8:	00478693          	addi	a3,a5,4
   1fbbc:	0007a783          	lw	a5,0(a5)
   1fbc0:	20061ae3          	bnez	a2,205d4 <_svfiprintf_r+0x10d8>
   1fbc4:	040cf613          	andi	a2,s9,64
   1fbc8:	060602e3          	beqz	a2,2042c <_svfiprintf_r+0xf30>
   1fbcc:	01079d93          	slli	s11,a5,0x10
   1fbd0:	00d12623          	sw	a3,12(sp)
   1fbd4:	010ddd93          	srli	s11,s11,0x10
   1fbd8:	00000313          	li	t1,0
   1fbdc:	000c8b13          	mv	s6,s9
   1fbe0:	00100693          	li	a3,1
   1fbe4:	b85ff06f          	j	1f768 <_svfiprintf_r+0x26c>
   1fbe8:	00005797          	auipc	a5,0x5
   1fbec:	ef078793          	addi	a5,a5,-272 # 24ad8 <zeroes.4505+0x20>
   1fbf0:	00f12823          	sw	a5,16(sp)
   1fbf4:	020cf793          	andi	a5,s9,32
   1fbf8:	b2079ee3          	bnez	a5,1f734 <_svfiprintf_r+0x238>
   1fbfc:	00c12703          	lw	a4,12(sp)
   1fc00:	010cf613          	andi	a2,s9,16
   1fc04:	00072783          	lw	a5,0(a4)
   1fc08:	00470713          	addi	a4,a4,4
   1fc0c:	00e12623          	sw	a4,12(sp)
   1fc10:	60061463          	bnez	a2,20218 <_svfiprintf_r+0xd1c>
   1fc14:	040cf613          	andi	a2,s9,64
   1fc18:	5e060c63          	beqz	a2,20210 <_svfiprintf_r+0xd14>
   1fc1c:	01079d93          	slli	s11,a5,0x10
   1fc20:	010ddd93          	srli	s11,s11,0x10
   1fc24:	00000313          	li	t1,0
   1fc28:	b29ff06f          	j	1f750 <_svfiprintf_r+0x254>
   1fc2c:	00c12783          	lw	a5,12(sp)
   1fc30:	02412703          	lw	a4,36(sp)
   1fc34:	00000313          	li	t1,0
   1fc38:	0007ad83          	lw	s11,0(a5)
   1fc3c:	00478793          	addi	a5,a5,4
   1fc40:	00f12623          	sw	a5,12(sp)
   1fc44:	00005797          	auipc	a5,0x5
   1fc48:	e9478793          	addi	a5,a5,-364 # 24ad8 <zeroes.4505+0x20>
   1fc4c:	002ceb13          	ori	s6,s9,2
   1fc50:	02e11e23          	sh	a4,60(sp)
   1fc54:	00f12823          	sw	a5,16(sp)
   1fc58:	00200693          	li	a3,2
   1fc5c:	b0dff06f          	j	1f768 <_svfiprintf_r+0x26c>
   1fc60:	020cf793          	andi	a5,s9,32
   1fc64:	16079a63          	bnez	a5,1fdd8 <_svfiprintf_r+0x8dc>
   1fc68:	00c12783          	lw	a5,12(sp)
   1fc6c:	010cf613          	andi	a2,s9,16
   1fc70:	00478693          	addi	a3,a5,4
   1fc74:	0007a783          	lw	a5,0(a5)
   1fc78:	14061ae3          	bnez	a2,205cc <_svfiprintf_r+0x10d0>
   1fc7c:	040cf613          	andi	a2,s9,64
   1fc80:	7e060863          	beqz	a2,20470 <_svfiprintf_r+0xf74>
   1fc84:	01079d93          	slli	s11,a5,0x10
   1fc88:	010ddd93          	srli	s11,s11,0x10
   1fc8c:	00000313          	li	t1,0
   1fc90:	000c8813          	mv	a6,s9
   1fc94:	00d12623          	sw	a3,12(sp)
   1fc98:	1600006f          	j	1fdf8 <_svfiprintf_r+0x8fc>
   1fc9c:	00c12703          	lw	a4,12(sp)
   1fca0:	020cf793          	andi	a5,s9,32
   1fca4:	00470693          	addi	a3,a4,4
   1fca8:	5e079463          	bnez	a5,20290 <_svfiprintf_r+0xd94>
   1fcac:	010cf793          	andi	a5,s9,16
   1fcb0:	74079063          	bnez	a5,203f0 <_svfiprintf_r+0xef4>
   1fcb4:	040cf793          	andi	a5,s9,64
   1fcb8:	080792e3          	bnez	a5,2053c <_svfiprintf_r+0x1040>
   1fcbc:	200cf813          	andi	a6,s9,512
   1fcc0:	72080863          	beqz	a6,203f0 <_svfiprintf_r+0xef4>
   1fcc4:	00c12783          	lw	a5,12(sp)
   1fcc8:	00812703          	lw	a4,8(sp)
   1fccc:	00d12623          	sw	a3,12(sp)
   1fcd0:	0007a783          	lw	a5,0(a5)
   1fcd4:	00e78023          	sb	a4,0(a5)
   1fcd8:	8c1ff06f          	j	1f598 <_svfiprintf_r+0x9c>
   1fcdc:	000d4683          	lbu	a3,0(s10)
   1fce0:	06c00793          	li	a5,108
   1fce4:	6cf68863          	beq	a3,a5,203b4 <_svfiprintf_r+0xeb8>
   1fce8:	010cec93          	ori	s9,s9,16
   1fcec:	93dff06f          	j	1f628 <_svfiprintf_r+0x12c>
   1fcf0:	000d4683          	lbu	a3,0(s10)
   1fcf4:	06800793          	li	a5,104
   1fcf8:	6af68663          	beq	a3,a5,203a4 <_svfiprintf_r+0xea8>
   1fcfc:	040cec93          	ori	s9,s9,64
   1fd00:	929ff06f          	j	1f628 <_svfiprintf_r+0x12c>
   1fd04:	020cf793          	andi	a5,s9,32
   1fd08:	12079263          	bnez	a5,1fe2c <_svfiprintf_r+0x930>
   1fd0c:	00c12703          	lw	a4,12(sp)
   1fd10:	010cf793          	andi	a5,s9,16
   1fd14:	00470693          	addi	a3,a4,4
   1fd18:	0a0796e3          	bnez	a5,205c4 <_svfiprintf_r+0x10c8>
   1fd1c:	040cf793          	andi	a5,s9,64
   1fd20:	72078663          	beqz	a5,2044c <_svfiprintf_r+0xf50>
   1fd24:	00c12783          	lw	a5,12(sp)
   1fd28:	00d12623          	sw	a3,12(sp)
   1fd2c:	000c8b13          	mv	s6,s9
   1fd30:	00079d83          	lh	s11,0(a5)
   1fd34:	41fdd313          	srai	t1,s11,0x1f
   1fd38:	00030693          	mv	a3,t1
   1fd3c:	d206d8e3          	bgez	a3,1fa6c <_svfiprintf_r+0x570>
   1fd40:	41b007b3          	neg	a5,s11
   1fd44:	00f036b3          	snez	a3,a5
   1fd48:	40600333          	neg	t1,t1
   1fd4c:	40d30333          	sub	t1,t1,a3
   1fd50:	02d00693          	li	a3,45
   1fd54:	02d10da3          	sb	a3,59(sp)
   1fd58:	fff00613          	li	a2,-1
   1fd5c:	00078d93          	mv	s11,a5
   1fd60:	00100693          	li	a3,1
   1fd64:	a0cc18e3          	bne	s8,a2,1f774 <_svfiprintf_r+0x278>
   1fd68:	00100613          	li	a2,1
   1fd6c:	d0c68ce3          	beq	a3,a2,1fa84 <_svfiprintf_r+0x588>
   1fd70:	00200613          	li	a2,2
   1fd74:	0ec68a63          	beq	a3,a2,1fe68 <_svfiprintf_r+0x96c>
   1fd78:	0f010613          	addi	a2,sp,240
   1fd7c:	0080006f          	j	1fd84 <_svfiprintf_r+0x888>
   1fd80:	000b8613          	mv	a2,s7
   1fd84:	01d31793          	slli	a5,t1,0x1d
   1fd88:	007df693          	andi	a3,s11,7
   1fd8c:	003ddd93          	srli	s11,s11,0x3
   1fd90:	03068693          	addi	a3,a3,48
   1fd94:	01b7edb3          	or	s11,a5,s11
   1fd98:	00335313          	srli	t1,t1,0x3
   1fd9c:	fed60fa3          	sb	a3,-1(a2)
   1fda0:	006de7b3          	or	a5,s11,t1
   1fda4:	fff60b93          	addi	s7,a2,-1
   1fda8:	fc079ce3          	bnez	a5,1fd80 <_svfiprintf_r+0x884>
   1fdac:	001b7793          	andi	a5,s6,1
   1fdb0:	0e078663          	beqz	a5,1fe9c <_svfiprintf_r+0x9a0>
   1fdb4:	03000793          	li	a5,48
   1fdb8:	0ef68263          	beq	a3,a5,1fe9c <_svfiprintf_r+0x9a0>
   1fdbc:	ffe60613          	addi	a2,a2,-2
   1fdc0:	fefb8fa3          	sb	a5,-1(s7)
   1fdc4:	0f010793          	addi	a5,sp,240
   1fdc8:	40c78db3          	sub	s11,a5,a2
   1fdcc:	000b0c93          	mv	s9,s6
   1fdd0:	00060b93          	mv	s7,a2
   1fdd4:	9cdff06f          	j	1f7a0 <_svfiprintf_r+0x2a4>
   1fdd8:	000c8813          	mv	a6,s9
   1fddc:	00c12783          	lw	a5,12(sp)
   1fde0:	00778693          	addi	a3,a5,7
   1fde4:	ff86f693          	andi	a3,a3,-8
   1fde8:	0006ad83          	lw	s11,0(a3)
   1fdec:	0046a303          	lw	t1,4(a3)
   1fdf0:	00868793          	addi	a5,a3,8
   1fdf4:	00f12623          	sw	a5,12(sp)
   1fdf8:	bff87b13          	andi	s6,a6,-1025
   1fdfc:	00000693          	li	a3,0
   1fe00:	969ff06f          	j	1f768 <_svfiprintf_r+0x26c>
   1fe04:	000c8b13          	mv	s6,s9
   1fe08:	00c12783          	lw	a5,12(sp)
   1fe0c:	00778693          	addi	a3,a5,7
   1fe10:	ff86f693          	andi	a3,a3,-8
   1fe14:	00868793          	addi	a5,a3,8
   1fe18:	0006ad83          	lw	s11,0(a3)
   1fe1c:	0046a303          	lw	t1,4(a3)
   1fe20:	00f12623          	sw	a5,12(sp)
   1fe24:	00100693          	li	a3,1
   1fe28:	941ff06f          	j	1f768 <_svfiprintf_r+0x26c>
   1fe2c:	000c8b13          	mv	s6,s9
   1fe30:	00c12783          	lw	a5,12(sp)
   1fe34:	00778793          	addi	a5,a5,7
   1fe38:	ff87f793          	andi	a5,a5,-8
   1fe3c:	0047a683          	lw	a3,4(a5)
   1fe40:	00878713          	addi	a4,a5,8
   1fe44:	00e12623          	sw	a4,12(sp)
   1fe48:	0007ad83          	lw	s11,0(a5)
   1fe4c:	00068313          	mv	t1,a3
   1fe50:	c19ff06f          	j	1fa68 <_svfiprintf_r+0x56c>
   1fe54:	00100613          	li	a2,1
   1fe58:	6ec68e63          	beq	a3,a2,20554 <_svfiprintf_r+0x1058>
   1fe5c:	00200613          	li	a2,2
   1fe60:	000c8b13          	mv	s6,s9
   1fe64:	f0c69ae3          	bne	a3,a2,1fd78 <_svfiprintf_r+0x87c>
   1fe68:	01012683          	lw	a3,16(sp)
   1fe6c:	0f010b93          	addi	s7,sp,240
   1fe70:	00fdf793          	andi	a5,s11,15
   1fe74:	00f687b3          	add	a5,a3,a5
   1fe78:	0007c783          	lbu	a5,0(a5)
   1fe7c:	01c31713          	slli	a4,t1,0x1c
   1fe80:	004ddd93          	srli	s11,s11,0x4
   1fe84:	fffb8b93          	addi	s7,s7,-1
   1fe88:	01b76db3          	or	s11,a4,s11
   1fe8c:	00435313          	srli	t1,t1,0x4
   1fe90:	00fb8023          	sb	a5,0(s7)
   1fe94:	006de7b3          	or	a5,s11,t1
   1fe98:	fc079ce3          	bnez	a5,1fe70 <_svfiprintf_r+0x974>
   1fe9c:	0f010793          	addi	a5,sp,240
   1fea0:	41778db3          	sub	s11,a5,s7
   1fea4:	000b0c93          	mv	s9,s6
   1fea8:	8f9ff06f          	j	1f7a0 <_svfiprintf_r+0x2a4>
   1feac:	41690e33          	sub	t3,s2,s6
   1feb0:	a1c056e3          	blez	t3,1f8bc <_svfiprintf_r+0x3c0>
   1feb4:	01000513          	li	a0,16
   1feb8:	6bc55a63          	bge	a0,t3,2056c <_svfiprintf_r+0x1070>
   1febc:	00005317          	auipc	t1,0x5
   1fec0:	59c30313          	addi	t1,t1,1436 # 25458 <zeroes.4467>
   1fec4:	01212a23          	sw	s2,20(sp)
   1fec8:	03612423          	sw	s6,40(sp)
   1fecc:	01000693          	li	a3,16
   1fed0:	00700e93          	li	t4,7
   1fed4:	000e0913          	mv	s2,t3
   1fed8:	00030b13          	mv	s6,t1
   1fedc:	00c0006f          	j	1fee8 <_svfiprintf_r+0x9ec>
   1fee0:	ff090913          	addi	s2,s2,-16
   1fee4:	0526da63          	bge	a3,s2,1ff38 <_svfiprintf_r+0xa3c>
   1fee8:	01078793          	addi	a5,a5,16
   1feec:	00160613          	addi	a2,a2,1
   1fef0:	01642023          	sw	s6,0(s0)
   1fef4:	00d42223          	sw	a3,4(s0)
   1fef8:	04f12423          	sw	a5,72(sp)
   1fefc:	04c12223          	sw	a2,68(sp)
   1ff00:	00840413          	addi	s0,s0,8
   1ff04:	fccedee3          	bge	t4,a2,1fee0 <_svfiprintf_r+0x9e4>
   1ff08:	04010613          	addi	a2,sp,64
   1ff0c:	00098593          	mv	a1,s3
   1ff10:	000a0513          	mv	a0,s4
   1ff14:	c2cff0ef          	jal	ra,1f340 <__ssprint_r>
   1ff18:	fa051e63          	bnez	a0,1f6d4 <_svfiprintf_r+0x1d8>
   1ff1c:	01000693          	li	a3,16
   1ff20:	ff090913          	addi	s2,s2,-16
   1ff24:	04812783          	lw	a5,72(sp)
   1ff28:	04412603          	lw	a2,68(sp)
   1ff2c:	00048413          	mv	s0,s1
   1ff30:	00700e93          	li	t4,7
   1ff34:	fb26cae3          	blt	a3,s2,1fee8 <_svfiprintf_r+0x9ec>
   1ff38:	00090e13          	mv	t3,s2
   1ff3c:	000b0313          	mv	t1,s6
   1ff40:	01412903          	lw	s2,20(sp)
   1ff44:	02812b03          	lw	s6,40(sp)
   1ff48:	00160613          	addi	a2,a2,1
   1ff4c:	00840513          	addi	a0,s0,8
   1ff50:	01c787b3          	add	a5,a5,t3
   1ff54:	00642023          	sw	t1,0(s0)
   1ff58:	01c42223          	sw	t3,4(s0)
   1ff5c:	04f12423          	sw	a5,72(sp)
   1ff60:	04c12223          	sw	a2,68(sp)
   1ff64:	00700693          	li	a3,7
   1ff68:	44c6ce63          	blt	a3,a2,203c4 <_svfiprintf_r+0xec8>
   1ff6c:	41bc0c33          	sub	s8,s8,s11
   1ff70:	00160593          	addi	a1,a2,1
   1ff74:	00850693          	addi	a3,a0,8
   1ff78:	00050413          	mv	s0,a0
   1ff7c:	958054e3          	blez	s8,1f8c4 <_svfiprintf_r+0x3c8>
   1ff80:	01000513          	li	a0,16
   1ff84:	51855463          	bge	a0,s8,2048c <_svfiprintf_r+0xf90>
   1ff88:	00005317          	auipc	t1,0x5
   1ff8c:	4d030313          	addi	t1,t1,1232 # 25458 <zeroes.4467>
   1ff90:	01212a23          	sw	s2,20(sp)
   1ff94:	01000693          	li	a3,16
   1ff98:	00700e13          	li	t3,7
   1ff9c:	00030913          	mv	s2,t1
   1ffa0:	00c0006f          	j	1ffac <_svfiprintf_r+0xab0>
   1ffa4:	ff0c0c13          	addi	s8,s8,-16
   1ffa8:	0586da63          	bge	a3,s8,1fffc <_svfiprintf_r+0xb00>
   1ffac:	01078793          	addi	a5,a5,16
   1ffb0:	00160613          	addi	a2,a2,1
   1ffb4:	01242023          	sw	s2,0(s0)
   1ffb8:	00d42223          	sw	a3,4(s0)
   1ffbc:	04f12423          	sw	a5,72(sp)
   1ffc0:	04c12223          	sw	a2,68(sp)
   1ffc4:	00840413          	addi	s0,s0,8
   1ffc8:	fcce5ee3          	bge	t3,a2,1ffa4 <_svfiprintf_r+0xaa8>
   1ffcc:	04010613          	addi	a2,sp,64
   1ffd0:	00098593          	mv	a1,s3
   1ffd4:	000a0513          	mv	a0,s4
   1ffd8:	b68ff0ef          	jal	ra,1f340 <__ssprint_r>
   1ffdc:	ee051c63          	bnez	a0,1f6d4 <_svfiprintf_r+0x1d8>
   1ffe0:	01000693          	li	a3,16
   1ffe4:	ff0c0c13          	addi	s8,s8,-16
   1ffe8:	04812783          	lw	a5,72(sp)
   1ffec:	04412603          	lw	a2,68(sp)
   1fff0:	00048413          	mv	s0,s1
   1fff4:	00700e13          	li	t3,7
   1fff8:	fb86cae3          	blt	a3,s8,1ffac <_svfiprintf_r+0xab0>
   1fffc:	00090313          	mv	t1,s2
   20000:	01412903          	lw	s2,20(sp)
   20004:	00160593          	addi	a1,a2,1
   20008:	00840613          	addi	a2,s0,8
   2000c:	018787b3          	add	a5,a5,s8
   20010:	00642023          	sw	t1,0(s0)
   20014:	01842223          	sw	s8,4(s0)
   20018:	04f12423          	sw	a5,72(sp)
   2001c:	04b12223          	sw	a1,68(sp)
   20020:	00700693          	li	a3,7
   20024:	20b6c063          	blt	a3,a1,20224 <_svfiprintf_r+0xd28>
   20028:	00060413          	mv	s0,a2
   2002c:	00158593          	addi	a1,a1,1
   20030:	00fd87b3          	add	a5,s11,a5
   20034:	00860693          	addi	a3,a2,8
   20038:	01742023          	sw	s7,0(s0)
   2003c:	01b42223          	sw	s11,4(s0)
   20040:	04f12423          	sw	a5,72(sp)
   20044:	04b12223          	sw	a1,68(sp)
   20048:	00700613          	li	a2,7
   2004c:	88b65ae3          	bge	a2,a1,1f8e0 <_svfiprintf_r+0x3e4>
   20050:	04010613          	addi	a2,sp,64
   20054:	00098593          	mv	a1,s3
   20058:	000a0513          	mv	a0,s4
   2005c:	ae4ff0ef          	jal	ra,1f340 <__ssprint_r>
   20060:	e6051a63          	bnez	a0,1f6d4 <_svfiprintf_r+0x1d8>
   20064:	04812783          	lw	a5,72(sp)
   20068:	00048693          	mv	a3,s1
   2006c:	875ff06f          	j	1f8e0 <_svfiprintf_r+0x3e4>
   20070:	04010613          	addi	a2,sp,64
   20074:	00098593          	mv	a1,s3
   20078:	000a0513          	mv	a0,s4
   2007c:	ac4ff0ef          	jal	ra,1f340 <__ssprint_r>
   20080:	880504e3          	beqz	a0,1f908 <_svfiprintf_r+0x40c>
   20084:	e50ff06f          	j	1f6d4 <_svfiprintf_r+0x1d8>
   20088:	000c8b13          	mv	s6,s9
   2008c:	cddff06f          	j	1fd68 <_svfiprintf_r+0x86c>
   20090:	01000593          	li	a1,16
   20094:	00005317          	auipc	t1,0x5
   20098:	3b430313          	addi	t1,t1,948 # 25448 <blanks.4466>
   2009c:	08d5dc63          	bge	a1,a3,20134 <_svfiprintf_r+0xc38>
   200a0:	03212623          	sw	s2,44(sp)
   200a4:	00040713          	mv	a4,s0
   200a8:	01000e13          	li	t3,16
   200ac:	00700f93          	li	t6,7
   200b0:	01e12a23          	sw	t5,20(sp)
   200b4:	03d12423          	sw	t4,40(sp)
   200b8:	00068413          	mv	s0,a3
   200bc:	00030913          	mv	s2,t1
   200c0:	00c0006f          	j	200cc <_svfiprintf_r+0xbd0>
   200c4:	ff040413          	addi	s0,s0,-16
   200c8:	048e5a63          	bge	t3,s0,2011c <_svfiprintf_r+0xc20>
   200cc:	01078793          	addi	a5,a5,16
   200d0:	00160613          	addi	a2,a2,1
   200d4:	01272023          	sw	s2,0(a4)
   200d8:	01c72223          	sw	t3,4(a4)
   200dc:	04f12423          	sw	a5,72(sp)
   200e0:	04c12223          	sw	a2,68(sp)
   200e4:	00870713          	addi	a4,a4,8
   200e8:	fccfdee3          	bge	t6,a2,200c4 <_svfiprintf_r+0xbc8>
   200ec:	04010613          	addi	a2,sp,64
   200f0:	00098593          	mv	a1,s3
   200f4:	000a0513          	mv	a0,s4
   200f8:	a48ff0ef          	jal	ra,1f340 <__ssprint_r>
   200fc:	dc051c63          	bnez	a0,1f6d4 <_svfiprintf_r+0x1d8>
   20100:	01000e13          	li	t3,16
   20104:	ff040413          	addi	s0,s0,-16
   20108:	04812783          	lw	a5,72(sp)
   2010c:	04412603          	lw	a2,68(sp)
   20110:	00048713          	mv	a4,s1
   20114:	00700f93          	li	t6,7
   20118:	fa8e4ae3          	blt	t3,s0,200cc <_svfiprintf_r+0xbd0>
   2011c:	00090313          	mv	t1,s2
   20120:	01412f03          	lw	t5,20(sp)
   20124:	02812e83          	lw	t4,40(sp)
   20128:	02c12903          	lw	s2,44(sp)
   2012c:	00040693          	mv	a3,s0
   20130:	00070413          	mv	s0,a4
   20134:	00d787b3          	add	a5,a5,a3
   20138:	00160613          	addi	a2,a2,1
   2013c:	00d42223          	sw	a3,4(s0)
   20140:	00642023          	sw	t1,0(s0)
   20144:	04f12423          	sw	a5,72(sp)
   20148:	04c12223          	sw	a2,68(sp)
   2014c:	00700693          	li	a3,7
   20150:	00840413          	addi	s0,s0,8
   20154:	ecc6de63          	bge	a3,a2,1f830 <_svfiprintf_r+0x334>
   20158:	04010613          	addi	a2,sp,64
   2015c:	00098593          	mv	a1,s3
   20160:	000a0513          	mv	a0,s4
   20164:	03d12423          	sw	t4,40(sp)
   20168:	01e12a23          	sw	t5,20(sp)
   2016c:	9d4ff0ef          	jal	ra,1f340 <__ssprint_r>
   20170:	d6051263          	bnez	a0,1f6d4 <_svfiprintf_r+0x1d8>
   20174:	04812783          	lw	a5,72(sp)
   20178:	04412603          	lw	a2,68(sp)
   2017c:	00048413          	mv	s0,s1
   20180:	02812e83          	lw	t4,40(sp)
   20184:	01412f03          	lw	t5,20(sp)
   20188:	ea8ff06f          	j	1f830 <_svfiprintf_r+0x334>
   2018c:	04010613          	addi	a2,sp,64
   20190:	00098593          	mv	a1,s3
   20194:	000a0513          	mv	a0,s4
   20198:	03d12423          	sw	t4,40(sp)
   2019c:	01e12a23          	sw	t5,20(sp)
   201a0:	9a0ff0ef          	jal	ra,1f340 <__ssprint_r>
   201a4:	d2051863          	bnez	a0,1f6d4 <_svfiprintf_r+0x1d8>
   201a8:	04412603          	lw	a2,68(sp)
   201ac:	04812783          	lw	a5,72(sp)
   201b0:	05410693          	addi	a3,sp,84
   201b4:	00160593          	addi	a1,a2,1
   201b8:	00048413          	mv	s0,s1
   201bc:	02812e83          	lw	t4,40(sp)
   201c0:	01412f03          	lw	t5,20(sp)
   201c4:	eb8ff06f          	j	1f87c <_svfiprintf_r+0x380>
   201c8:	04010613          	addi	a2,sp,64
   201cc:	00098593          	mv	a1,s3
   201d0:	000a0513          	mv	a0,s4
   201d4:	01d12a23          	sw	t4,20(sp)
   201d8:	968ff0ef          	jal	ra,1f340 <__ssprint_r>
   201dc:	ce051c63          	bnez	a0,1f6d4 <_svfiprintf_r+0x1d8>
   201e0:	04412603          	lw	a2,68(sp)
   201e4:	04812783          	lw	a5,72(sp)
   201e8:	05410693          	addi	a3,sp,84
   201ec:	00160593          	addi	a1,a2,1
   201f0:	00048413          	mv	s0,s1
   201f4:	01412e83          	lw	t4,20(sp)
   201f8:	ebcff06f          	j	1f8b4 <_svfiprintf_r+0x3b8>
   201fc:	340c1c63          	bnez	s8,20554 <_svfiprintf_r+0x1058>
   20200:	00000c13          	li	s8,0
   20204:	00000d93          	li	s11,0
   20208:	0f010b93          	addi	s7,sp,240
   2020c:	d94ff06f          	j	1f7a0 <_svfiprintf_r+0x2a4>
   20210:	200cf613          	andi	a2,s9,512
   20214:	30061e63          	bnez	a2,20530 <_svfiprintf_r+0x1034>
   20218:	00078d93          	mv	s11,a5
   2021c:	00000313          	li	t1,0
   20220:	d30ff06f          	j	1f750 <_svfiprintf_r+0x254>
   20224:	04010613          	addi	a2,sp,64
   20228:	00098593          	mv	a1,s3
   2022c:	000a0513          	mv	a0,s4
   20230:	910ff0ef          	jal	ra,1f340 <__ssprint_r>
   20234:	ca051063          	bnez	a0,1f6d4 <_svfiprintf_r+0x1d8>
   20238:	04412583          	lw	a1,68(sp)
   2023c:	04812783          	lw	a5,72(sp)
   20240:	05410693          	addi	a3,sp,84
   20244:	00158593          	addi	a1,a1,1
   20248:	00048413          	mv	s0,s1
   2024c:	e78ff06f          	j	1f8c4 <_svfiprintf_r+0x3c8>
   20250:	000d0b13          	mv	s6,s10
   20254:	bb8ff06f          	j	1f60c <_svfiprintf_r+0x110>
   20258:	01812783          	lw	a5,24(sp)
   2025c:	000d4683          	lbu	a3,0(s10)
   20260:	bc078463          	beqz	a5,1f628 <_svfiprintf_r+0x12c>
   20264:	0007c783          	lbu	a5,0(a5)
   20268:	bc078063          	beqz	a5,1f628 <_svfiprintf_r+0x12c>
   2026c:	400cec93          	ori	s9,s9,1024
   20270:	bb8ff06f          	j	1f628 <_svfiprintf_r+0x12c>
   20274:	03000613          	li	a2,48
   20278:	002cec93          	ori	s9,s9,2
   2027c:	02d10ea3          	sb	a3,61(sp)
   20280:	02c10e23          	sb	a2,60(sp)
   20284:	bffcfb13          	andi	s6,s9,-1025
   20288:	00200693          	li	a3,2
   2028c:	cdcff06f          	j	1f768 <_svfiprintf_r+0x26c>
   20290:	00072783          	lw	a5,0(a4)
   20294:	00812703          	lw	a4,8(sp)
   20298:	00d12623          	sw	a3,12(sp)
   2029c:	41f75613          	srai	a2,a4,0x1f
   202a0:	00e7a023          	sw	a4,0(a5)
   202a4:	00c7a223          	sw	a2,4(a5)
   202a8:	af0ff06f          	j	1f598 <_svfiprintf_r+0x9c>
   202ac:	000b8513          	mv	a0,s7
   202b0:	d14f10ef          	jal	ra,117c4 <strlen>
   202b4:	00050d93          	mv	s11,a0
   202b8:	00000c13          	li	s8,0
   202bc:	ce4ff06f          	j	1f7a0 <_svfiprintf_r+0x2a4>
   202c0:	04000593          	li	a1,64
   202c4:	b2cf80ef          	jal	ra,185f0 <_malloc_r>
   202c8:	00a9a023          	sw	a0,0(s3)
   202cc:	00a9a823          	sw	a0,16(s3)
   202d0:	2e050063          	beqz	a0,205b0 <_svfiprintf_r+0x10b4>
   202d4:	04000793          	li	a5,64
   202d8:	00f9aa23          	sw	a5,20(s3)
   202dc:	a7cff06f          	j	1f558 <_svfiprintf_r+0x5c>
   202e0:	0f010b93          	addi	s7,sp,240
   202e4:	400b7793          	andi	a5,s6,1024
   202e8:	01612a23          	sw	s6,20(sp)
   202ec:	03212423          	sw	s2,40(sp)
   202f0:	02812623          	sw	s0,44(sp)
   202f4:	000b8913          	mv	s2,s7
   202f8:	00000c93          	li	s9,0
   202fc:	000d0b93          	mv	s7,s10
   20300:	01812403          	lw	s0,24(sp)
   20304:	00098d13          	mv	s10,s3
   20308:	00078b13          	mv	s6,a5
   2030c:	00030993          	mv	s3,t1
   20310:	0240006f          	j	20334 <_svfiprintf_r+0xe38>
   20314:	00a00613          	li	a2,10
   20318:	00000693          	li	a3,0
   2031c:	000d8513          	mv	a0,s11
   20320:	00098593          	mv	a1,s3
   20324:	560000ef          	jal	ra,20884 <__udivdi3>
   20328:	16098a63          	beqz	s3,2049c <_svfiprintf_r+0xfa0>
   2032c:	00050d93          	mv	s11,a0
   20330:	00058993          	mv	s3,a1
   20334:	00a00613          	li	a2,10
   20338:	00000693          	li	a3,0
   2033c:	000d8513          	mv	a0,s11
   20340:	00098593          	mv	a1,s3
   20344:	175000ef          	jal	ra,20cb8 <__umoddi3>
   20348:	03050513          	addi	a0,a0,48
   2034c:	fea90fa3          	sb	a0,-1(s2)
   20350:	001c8c93          	addi	s9,s9,1
   20354:	fff90913          	addi	s2,s2,-1
   20358:	fa0b0ee3          	beqz	s6,20314 <_svfiprintf_r+0xe18>
   2035c:	00044703          	lbu	a4,0(s0)
   20360:	fb971ae3          	bne	a4,s9,20314 <_svfiprintf_r+0xe18>
   20364:	0ff00793          	li	a5,255
   20368:	fafc86e3          	beq	s9,a5,20314 <_svfiprintf_r+0xe18>
   2036c:	12099e63          	bnez	s3,204a8 <_svfiprintf_r+0xfac>
   20370:	00900793          	li	a5,9
   20374:	13b7ea63          	bltu	a5,s11,204a8 <_svfiprintf_r+0xfac>
   20378:	01412b03          	lw	s6,20(sp)
   2037c:	000d0993          	mv	s3,s10
   20380:	0f010793          	addi	a5,sp,240
   20384:	000b8d13          	mv	s10,s7
   20388:	00090b93          	mv	s7,s2
   2038c:	00812c23          	sw	s0,24(sp)
   20390:	02812903          	lw	s2,40(sp)
   20394:	02c12403          	lw	s0,44(sp)
   20398:	41778db3          	sub	s11,a5,s7
   2039c:	000b0c93          	mv	s9,s6
   203a0:	c00ff06f          	j	1f7a0 <_svfiprintf_r+0x2a4>
   203a4:	001d4683          	lbu	a3,1(s10)
   203a8:	200cec93          	ori	s9,s9,512
   203ac:	001d0d13          	addi	s10,s10,1
   203b0:	a78ff06f          	j	1f628 <_svfiprintf_r+0x12c>
   203b4:	001d4683          	lbu	a3,1(s10)
   203b8:	020cec93          	ori	s9,s9,32
   203bc:	001d0d13          	addi	s10,s10,1
   203c0:	a68ff06f          	j	1f628 <_svfiprintf_r+0x12c>
   203c4:	04010613          	addi	a2,sp,64
   203c8:	00098593          	mv	a1,s3
   203cc:	000a0513          	mv	a0,s4
   203d0:	f71fe0ef          	jal	ra,1f340 <__ssprint_r>
   203d4:	b0051063          	bnez	a0,1f6d4 <_svfiprintf_r+0x1d8>
   203d8:	04412603          	lw	a2,68(sp)
   203dc:	04812783          	lw	a5,72(sp)
   203e0:	05410693          	addi	a3,sp,84
   203e4:	00160593          	addi	a1,a2,1
   203e8:	00048413          	mv	s0,s1
   203ec:	cd0ff06f          	j	1f8bc <_svfiprintf_r+0x3c0>
   203f0:	00c12783          	lw	a5,12(sp)
   203f4:	00812703          	lw	a4,8(sp)
   203f8:	0007a783          	lw	a5,0(a5)
   203fc:	00d12623          	sw	a3,12(sp)
   20400:	00e7a023          	sw	a4,0(a5)
   20404:	994ff06f          	j	1f598 <_svfiprintf_r+0x9c>
   20408:	00600793          	li	a5,6
   2040c:	000c0d93          	mv	s11,s8
   20410:	0187f463          	bgeu	a5,s8,20418 <_svfiprintf_r+0xf1c>
   20414:	00600d93          	li	s11,6
   20418:	000d8b13          	mv	s6,s11
   2041c:	00e12623          	sw	a4,12(sp)
   20420:	00004b97          	auipc	s7,0x4
   20424:	6e0b8b93          	addi	s7,s7,1760 # 24b00 <zeroes.4505+0x48>
   20428:	be0ff06f          	j	1f808 <_svfiprintf_r+0x30c>
   2042c:	200cf613          	andi	a2,s9,512
   20430:	0e060463          	beqz	a2,20518 <_svfiprintf_r+0x101c>
   20434:	00d12623          	sw	a3,12(sp)
   20438:	0ff7fd93          	andi	s11,a5,255
   2043c:	00000313          	li	t1,0
   20440:	000c8b13          	mv	s6,s9
   20444:	00100693          	li	a3,1
   20448:	b20ff06f          	j	1f768 <_svfiprintf_r+0x26c>
   2044c:	200cf793          	andi	a5,s9,512
   20450:	0a078663          	beqz	a5,204fc <_svfiprintf_r+0x1000>
   20454:	00c12783          	lw	a5,12(sp)
   20458:	000c8b13          	mv	s6,s9
   2045c:	00d12623          	sw	a3,12(sp)
   20460:	00078d83          	lb	s11,0(a5)
   20464:	41fdd313          	srai	t1,s11,0x1f
   20468:	00030693          	mv	a3,t1
   2046c:	dfcff06f          	j	1fa68 <_svfiprintf_r+0x56c>
   20470:	200cf613          	andi	a2,s9,512
   20474:	06060a63          	beqz	a2,204e8 <_svfiprintf_r+0xfec>
   20478:	0ff7fd93          	andi	s11,a5,255
   2047c:	00000313          	li	t1,0
   20480:	000c8813          	mv	a6,s9
   20484:	00d12623          	sw	a3,12(sp)
   20488:	971ff06f          	j	1fdf8 <_svfiprintf_r+0x8fc>
   2048c:	00068613          	mv	a2,a3
   20490:	00005317          	auipc	t1,0x5
   20494:	fc830313          	addi	t1,t1,-56 # 25458 <zeroes.4467>
   20498:	b75ff06f          	j	2000c <_svfiprintf_r+0xb10>
   2049c:	00900793          	li	a5,9
   204a0:	e9b7e6e3          	bltu	a5,s11,2032c <_svfiprintf_r+0xe30>
   204a4:	ed5ff06f          	j	20378 <_svfiprintf_r+0xe7c>
   204a8:	02012783          	lw	a5,32(sp)
   204ac:	01c12583          	lw	a1,28(sp)
   204b0:	00000c93          	li	s9,0
   204b4:	40f90933          	sub	s2,s2,a5
   204b8:	00078613          	mv	a2,a5
   204bc:	00090513          	mv	a0,s2
   204c0:	829fa0ef          	jal	ra,1ace8 <strncpy>
   204c4:	00144703          	lbu	a4,1(s0)
   204c8:	00a00613          	li	a2,10
   204cc:	00000693          	li	a3,0
   204d0:	00e03733          	snez	a4,a4
   204d4:	000d8513          	mv	a0,s11
   204d8:	00098593          	mv	a1,s3
   204dc:	00e40433          	add	s0,s0,a4
   204e0:	3a4000ef          	jal	ra,20884 <__udivdi3>
   204e4:	e49ff06f          	j	2032c <_svfiprintf_r+0xe30>
   204e8:	00078d93          	mv	s11,a5
   204ec:	00000313          	li	t1,0
   204f0:	000c8813          	mv	a6,s9
   204f4:	00d12623          	sw	a3,12(sp)
   204f8:	901ff06f          	j	1fdf8 <_svfiprintf_r+0x8fc>
   204fc:	00c12783          	lw	a5,12(sp)
   20500:	000c8b13          	mv	s6,s9
   20504:	00d12623          	sw	a3,12(sp)
   20508:	0007ad83          	lw	s11,0(a5)
   2050c:	41fdd313          	srai	t1,s11,0x1f
   20510:	00030693          	mv	a3,t1
   20514:	d54ff06f          	j	1fa68 <_svfiprintf_r+0x56c>
   20518:	00d12623          	sw	a3,12(sp)
   2051c:	00078d93          	mv	s11,a5
   20520:	00000313          	li	t1,0
   20524:	000c8b13          	mv	s6,s9
   20528:	00100693          	li	a3,1
   2052c:	a3cff06f          	j	1f768 <_svfiprintf_r+0x26c>
   20530:	0ff7fd93          	andi	s11,a5,255
   20534:	00000313          	li	t1,0
   20538:	a18ff06f          	j	1f750 <_svfiprintf_r+0x254>
   2053c:	00c12783          	lw	a5,12(sp)
   20540:	00812703          	lw	a4,8(sp)
   20544:	00d12623          	sw	a3,12(sp)
   20548:	0007a783          	lw	a5,0(a5)
   2054c:	00e79023          	sh	a4,0(a5)
   20550:	848ff06f          	j	1f598 <_svfiprintf_r+0x9c>
   20554:	000c8b13          	mv	s6,s9
   20558:	d38ff06f          	j	1fa90 <_svfiprintf_r+0x594>
   2055c:	000c0d93          	mv	s11,s8
   20560:	00e12623          	sw	a4,12(sp)
   20564:	00000c13          	li	s8,0
   20568:	a38ff06f          	j	1f7a0 <_svfiprintf_r+0x2a4>
   2056c:	00068513          	mv	a0,a3
   20570:	00058613          	mv	a2,a1
   20574:	00005317          	auipc	t1,0x5
   20578:	ee430313          	addi	t1,t1,-284 # 25458 <zeroes.4467>
   2057c:	9d5ff06f          	j	1ff50 <_svfiprintf_r+0xa54>
   20580:	fff00793          	li	a5,-1
   20584:	00f12423          	sw	a5,8(sp)
   20588:	958ff06f          	j	1f6e0 <_svfiprintf_r+0x1e4>
   2058c:	00c12703          	lw	a4,12(sp)
   20590:	00072c03          	lw	s8,0(a4)
   20594:	00470713          	addi	a4,a4,4
   20598:	000c5463          	bgez	s8,205a0 <_svfiprintf_r+0x10a4>
   2059c:	fff00c13          	li	s8,-1
   205a0:	001d4683          	lbu	a3,1(s10)
   205a4:	00e12623          	sw	a4,12(sp)
   205a8:	00078d13          	mv	s10,a5
   205ac:	87cff06f          	j	1f628 <_svfiprintf_r+0x12c>
   205b0:	00c00793          	li	a5,12
   205b4:	00fa2023          	sw	a5,0(s4)
   205b8:	fff00793          	li	a5,-1
   205bc:	00f12423          	sw	a5,8(sp)
   205c0:	920ff06f          	j	1f6e0 <_svfiprintf_r+0x1e4>
   205c4:	000c8b13          	mv	s6,s9
   205c8:	c8cff06f          	j	1fa54 <_svfiprintf_r+0x558>
   205cc:	000c8813          	mv	a6,s9
   205d0:	b9cff06f          	j	1f96c <_svfiprintf_r+0x470>
   205d4:	000c8b13          	mv	s6,s9
   205d8:	bbcff06f          	j	1f994 <_svfiprintf_r+0x498>

000205dc <__swbuf_r>:
   205dc:	fe010113          	addi	sp,sp,-32
   205e0:	00812c23          	sw	s0,24(sp)
   205e4:	00912a23          	sw	s1,20(sp)
   205e8:	01212823          	sw	s2,16(sp)
   205ec:	00112e23          	sw	ra,28(sp)
   205f0:	01312623          	sw	s3,12(sp)
   205f4:	00050913          	mv	s2,a0
   205f8:	00058493          	mv	s1,a1
   205fc:	00060413          	mv	s0,a2
   20600:	00050663          	beqz	a0,2060c <__swbuf_r+0x30>
   20604:	03852783          	lw	a5,56(a0)
   20608:	14078863          	beqz	a5,20758 <__swbuf_r+0x17c>
   2060c:	00c41703          	lh	a4,12(s0)
   20610:	01842783          	lw	a5,24(s0)
   20614:	01071693          	slli	a3,a4,0x10
   20618:	0106d693          	srli	a3,a3,0x10
   2061c:	00f42423          	sw	a5,8(s0)
   20620:	0086f793          	andi	a5,a3,8
   20624:	08078263          	beqz	a5,206a8 <__swbuf_r+0xcc>
   20628:	01042783          	lw	a5,16(s0)
   2062c:	06078e63          	beqz	a5,206a8 <__swbuf_r+0xcc>
   20630:	01269613          	slli	a2,a3,0x12
   20634:	0ff4f993          	andi	s3,s1,255
   20638:	0ff4f493          	andi	s1,s1,255
   2063c:	08065e63          	bgez	a2,206d8 <__swbuf_r+0xfc>
   20640:	00042703          	lw	a4,0(s0)
   20644:	01442683          	lw	a3,20(s0)
   20648:	40f707b3          	sub	a5,a4,a5
   2064c:	0ad7de63          	bge	a5,a3,20708 <__swbuf_r+0x12c>
   20650:	00842683          	lw	a3,8(s0)
   20654:	00170613          	addi	a2,a4,1
   20658:	00c42023          	sw	a2,0(s0)
   2065c:	fff68693          	addi	a3,a3,-1
   20660:	00d42423          	sw	a3,8(s0)
   20664:	01370023          	sb	s3,0(a4)
   20668:	01442703          	lw	a4,20(s0)
   2066c:	00178793          	addi	a5,a5,1
   20670:	0cf70863          	beq	a4,a5,20740 <__swbuf_r+0x164>
   20674:	00c45783          	lhu	a5,12(s0)
   20678:	0017f793          	andi	a5,a5,1
   2067c:	00078663          	beqz	a5,20688 <__swbuf_r+0xac>
   20680:	00a00793          	li	a5,10
   20684:	0af48e63          	beq	s1,a5,20740 <__swbuf_r+0x164>
   20688:	01c12083          	lw	ra,28(sp)
   2068c:	01812403          	lw	s0,24(sp)
   20690:	00048513          	mv	a0,s1
   20694:	01012903          	lw	s2,16(sp)
   20698:	01412483          	lw	s1,20(sp)
   2069c:	00c12983          	lw	s3,12(sp)
   206a0:	02010113          	addi	sp,sp,32
   206a4:	00008067          	ret
   206a8:	00040593          	mv	a1,s0
   206ac:	00090513          	mv	a0,s2
   206b0:	d99f30ef          	jal	ra,14448 <__swsetup_r>
   206b4:	08051e63          	bnez	a0,20750 <__swbuf_r+0x174>
   206b8:	00c41703          	lh	a4,12(s0)
   206bc:	0ff4f993          	andi	s3,s1,255
   206c0:	01042783          	lw	a5,16(s0)
   206c4:	01071693          	slli	a3,a4,0x10
   206c8:	0106d693          	srli	a3,a3,0x10
   206cc:	01269613          	slli	a2,a3,0x12
   206d0:	0ff4f493          	andi	s1,s1,255
   206d4:	f60646e3          	bltz	a2,20640 <__swbuf_r+0x64>
   206d8:	06442683          	lw	a3,100(s0)
   206dc:	00002637          	lui	a2,0x2
   206e0:	00c76733          	or	a4,a4,a2
   206e4:	ffffe637          	lui	a2,0xffffe
   206e8:	fff60613          	addi	a2,a2,-1 # ffffdfff <__global_pointer$+0xfffd5d2f>
   206ec:	00c6f6b3          	and	a3,a3,a2
   206f0:	00e41623          	sh	a4,12(s0)
   206f4:	00042703          	lw	a4,0(s0)
   206f8:	06d42223          	sw	a3,100(s0)
   206fc:	01442683          	lw	a3,20(s0)
   20700:	40f707b3          	sub	a5,a4,a5
   20704:	f4d7c6e3          	blt	a5,a3,20650 <__swbuf_r+0x74>
   20708:	00040593          	mv	a1,s0
   2070c:	00090513          	mv	a0,s2
   20710:	ab4f40ef          	jal	ra,149c4 <_fflush_r>
   20714:	02051e63          	bnez	a0,20750 <__swbuf_r+0x174>
   20718:	00042703          	lw	a4,0(s0)
   2071c:	00842683          	lw	a3,8(s0)
   20720:	00100793          	li	a5,1
   20724:	00170613          	addi	a2,a4,1
   20728:	fff68693          	addi	a3,a3,-1
   2072c:	00c42023          	sw	a2,0(s0)
   20730:	00d42423          	sw	a3,8(s0)
   20734:	01370023          	sb	s3,0(a4)
   20738:	01442703          	lw	a4,20(s0)
   2073c:	f2f71ce3          	bne	a4,a5,20674 <__swbuf_r+0x98>
   20740:	00040593          	mv	a1,s0
   20744:	00090513          	mv	a0,s2
   20748:	a7cf40ef          	jal	ra,149c4 <_fflush_r>
   2074c:	f2050ee3          	beqz	a0,20688 <__swbuf_r+0xac>
   20750:	fff00493          	li	s1,-1
   20754:	f35ff06f          	j	20688 <__swbuf_r+0xac>
   20758:	e18f40ef          	jal	ra,14d70 <__sinit>
   2075c:	eb1ff06f          	j	2060c <__swbuf_r+0x30>

00020760 <__swbuf>:
   20760:	81c18793          	addi	a5,gp,-2020 # 27aec <_impure_ptr>
   20764:	00058613          	mv	a2,a1
   20768:	00050593          	mv	a1,a0
   2076c:	0007a503          	lw	a0,0(a5)
   20770:	e6dff06f          	j	205dc <__swbuf_r>

00020774 <_wcrtomb_r>:
   20774:	fe010113          	addi	sp,sp,-32
   20778:	00812c23          	sw	s0,24(sp)
   2077c:	00912a23          	sw	s1,20(sp)
   20780:	00007797          	auipc	a5,0x7
   20784:	dd878793          	addi	a5,a5,-552 # 27558 <__global_locale>
   20788:	00112e23          	sw	ra,28(sp)
   2078c:	00050413          	mv	s0,a0
   20790:	00068493          	mv	s1,a3
   20794:	0e07a783          	lw	a5,224(a5)
   20798:	02058263          	beqz	a1,207bc <_wcrtomb_r+0x48>
   2079c:	000780e7          	jalr	a5
   207a0:	fff00793          	li	a5,-1
   207a4:	02f50663          	beq	a0,a5,207d0 <_wcrtomb_r+0x5c>
   207a8:	01c12083          	lw	ra,28(sp)
   207ac:	01812403          	lw	s0,24(sp)
   207b0:	01412483          	lw	s1,20(sp)
   207b4:	02010113          	addi	sp,sp,32
   207b8:	00008067          	ret
   207bc:	00000613          	li	a2,0
   207c0:	00410593          	addi	a1,sp,4
   207c4:	000780e7          	jalr	a5
   207c8:	fff00793          	li	a5,-1
   207cc:	fcf51ee3          	bne	a0,a5,207a8 <_wcrtomb_r+0x34>
   207d0:	0004a023          	sw	zero,0(s1)
   207d4:	08a00793          	li	a5,138
   207d8:	00f42023          	sw	a5,0(s0)
   207dc:	01c12083          	lw	ra,28(sp)
   207e0:	01812403          	lw	s0,24(sp)
   207e4:	01412483          	lw	s1,20(sp)
   207e8:	02010113          	addi	sp,sp,32
   207ec:	00008067          	ret

000207f0 <wcrtomb>:
   207f0:	fe010113          	addi	sp,sp,-32
   207f4:	81c18793          	addi	a5,gp,-2020 # 27aec <_impure_ptr>
   207f8:	00812c23          	sw	s0,24(sp)
   207fc:	00912a23          	sw	s1,20(sp)
   20800:	0007a403          	lw	s0,0(a5)
   20804:	00112e23          	sw	ra,28(sp)
   20808:	00007797          	auipc	a5,0x7
   2080c:	d5078793          	addi	a5,a5,-688 # 27558 <__global_locale>
   20810:	00060493          	mv	s1,a2
   20814:	0e07a783          	lw	a5,224(a5)
   20818:	00060693          	mv	a3,a2
   2081c:	02050863          	beqz	a0,2084c <wcrtomb+0x5c>
   20820:	00058613          	mv	a2,a1
   20824:	00050593          	mv	a1,a0
   20828:	00040513          	mv	a0,s0
   2082c:	000780e7          	jalr	a5
   20830:	fff00793          	li	a5,-1
   20834:	02f50863          	beq	a0,a5,20864 <wcrtomb+0x74>
   20838:	01c12083          	lw	ra,28(sp)
   2083c:	01812403          	lw	s0,24(sp)
   20840:	01412483          	lw	s1,20(sp)
   20844:	02010113          	addi	sp,sp,32
   20848:	00008067          	ret
   2084c:	00000613          	li	a2,0
   20850:	00410593          	addi	a1,sp,4
   20854:	00040513          	mv	a0,s0
   20858:	000780e7          	jalr	a5
   2085c:	fff00793          	li	a5,-1
   20860:	fcf51ce3          	bne	a0,a5,20838 <wcrtomb+0x48>
   20864:	0004a023          	sw	zero,0(s1)
   20868:	08a00793          	li	a5,138
   2086c:	00f42023          	sw	a5,0(s0)
   20870:	01c12083          	lw	ra,28(sp)
   20874:	01812403          	lw	s0,24(sp)
   20878:	01412483          	lw	s1,20(sp)
   2087c:	02010113          	addi	sp,sp,32
   20880:	00008067          	ret

00020884 <__udivdi3>:
   20884:	00058793          	mv	a5,a1
   20888:	00060813          	mv	a6,a2
   2088c:	00068713          	mv	a4,a3
   20890:	00050313          	mv	t1,a0
   20894:	28069663          	bnez	a3,20b20 <__udivdi3+0x29c>
   20898:	00004897          	auipc	a7,0x4
   2089c:	fa088893          	addi	a7,a7,-96 # 24838 <__clz_tab>
   208a0:	0ec5f663          	bgeu	a1,a2,2098c <__udivdi3+0x108>
   208a4:	00010737          	lui	a4,0x10
   208a8:	0ce67863          	bgeu	a2,a4,20978 <__udivdi3+0xf4>
   208ac:	0ff00713          	li	a4,255
   208b0:	00c73733          	sltu	a4,a4,a2
   208b4:	00371713          	slli	a4,a4,0x3
   208b8:	00e656b3          	srl	a3,a2,a4
   208bc:	00d888b3          	add	a7,a7,a3
   208c0:	0008c683          	lbu	a3,0(a7)
   208c4:	00e68733          	add	a4,a3,a4
   208c8:	02000693          	li	a3,32
   208cc:	40e686b3          	sub	a3,a3,a4
   208d0:	00068c63          	beqz	a3,208e8 <__udivdi3+0x64>
   208d4:	00d797b3          	sll	a5,a5,a3
   208d8:	00e55733          	srl	a4,a0,a4
   208dc:	00d61833          	sll	a6,a2,a3
   208e0:	00f765b3          	or	a1,a4,a5
   208e4:	00d51333          	sll	t1,a0,a3
   208e8:	01085513          	srli	a0,a6,0x10
   208ec:	02a5f733          	remu	a4,a1,a0
   208f0:	01081613          	slli	a2,a6,0x10
   208f4:	01065613          	srli	a2,a2,0x10
   208f8:	01035693          	srli	a3,t1,0x10
   208fc:	02a5d5b3          	divu	a1,a1,a0
   20900:	01071713          	slli	a4,a4,0x10
   20904:	00d766b3          	or	a3,a4,a3
   20908:	02b607b3          	mul	a5,a2,a1
   2090c:	00058713          	mv	a4,a1
   20910:	00f6fe63          	bgeu	a3,a5,2092c <__udivdi3+0xa8>
   20914:	010686b3          	add	a3,a3,a6
   20918:	fff58713          	addi	a4,a1,-1
   2091c:	0106e863          	bltu	a3,a6,2092c <__udivdi3+0xa8>
   20920:	00f6f663          	bgeu	a3,a5,2092c <__udivdi3+0xa8>
   20924:	ffe58713          	addi	a4,a1,-2
   20928:	010686b3          	add	a3,a3,a6
   2092c:	40f686b3          	sub	a3,a3,a5
   20930:	02a6f7b3          	remu	a5,a3,a0
   20934:	01031313          	slli	t1,t1,0x10
   20938:	01035313          	srli	t1,t1,0x10
   2093c:	02a6d6b3          	divu	a3,a3,a0
   20940:	01079793          	slli	a5,a5,0x10
   20944:	0067e333          	or	t1,a5,t1
   20948:	02d605b3          	mul	a1,a2,a3
   2094c:	00068513          	mv	a0,a3
   20950:	00b37c63          	bgeu	t1,a1,20968 <__udivdi3+0xe4>
   20954:	00680333          	add	t1,a6,t1
   20958:	fff68513          	addi	a0,a3,-1
   2095c:	01036663          	bltu	t1,a6,20968 <__udivdi3+0xe4>
   20960:	00b37463          	bgeu	t1,a1,20968 <__udivdi3+0xe4>
   20964:	ffe68513          	addi	a0,a3,-2
   20968:	01071713          	slli	a4,a4,0x10
   2096c:	00a76733          	or	a4,a4,a0
   20970:	00000593          	li	a1,0
   20974:	0e40006f          	j	20a58 <__udivdi3+0x1d4>
   20978:	010006b7          	lui	a3,0x1000
   2097c:	01000713          	li	a4,16
   20980:	f2d66ce3          	bltu	a2,a3,208b8 <__udivdi3+0x34>
   20984:	01800713          	li	a4,24
   20988:	f31ff06f          	j	208b8 <__udivdi3+0x34>
   2098c:	00061663          	bnez	a2,20998 <__udivdi3+0x114>
   20990:	00100693          	li	a3,1
   20994:	02c6d833          	divu	a6,a3,a2
   20998:	000106b7          	lui	a3,0x10
   2099c:	0cd87263          	bgeu	a6,a3,20a60 <__udivdi3+0x1dc>
   209a0:	0ff00693          	li	a3,255
   209a4:	0106f463          	bgeu	a3,a6,209ac <__udivdi3+0x128>
   209a8:	00800713          	li	a4,8
   209ac:	00e856b3          	srl	a3,a6,a4
   209b0:	00d888b3          	add	a7,a7,a3
   209b4:	0008c683          	lbu	a3,0(a7)
   209b8:	00e686b3          	add	a3,a3,a4
   209bc:	02000713          	li	a4,32
   209c0:	40d70733          	sub	a4,a4,a3
   209c4:	0a071863          	bnez	a4,20a74 <__udivdi3+0x1f0>
   209c8:	410787b3          	sub	a5,a5,a6
   209cc:	00100593          	li	a1,1
   209d0:	01085613          	srli	a2,a6,0x10
   209d4:	01081893          	slli	a7,a6,0x10
   209d8:	0108d893          	srli	a7,a7,0x10
   209dc:	01035693          	srli	a3,t1,0x10
   209e0:	02c7f733          	remu	a4,a5,a2
   209e4:	02c7d7b3          	divu	a5,a5,a2
   209e8:	01071713          	slli	a4,a4,0x10
   209ec:	00d766b3          	or	a3,a4,a3
   209f0:	02f88533          	mul	a0,a7,a5
   209f4:	00078713          	mv	a4,a5
   209f8:	00a6fe63          	bgeu	a3,a0,20a14 <__udivdi3+0x190>
   209fc:	010686b3          	add	a3,a3,a6
   20a00:	fff78713          	addi	a4,a5,-1
   20a04:	0106e863          	bltu	a3,a6,20a14 <__udivdi3+0x190>
   20a08:	00a6f663          	bgeu	a3,a0,20a14 <__udivdi3+0x190>
   20a0c:	ffe78713          	addi	a4,a5,-2
   20a10:	010686b3          	add	a3,a3,a6
   20a14:	40a686b3          	sub	a3,a3,a0
   20a18:	02c6f7b3          	remu	a5,a3,a2
   20a1c:	01031313          	slli	t1,t1,0x10
   20a20:	01035313          	srli	t1,t1,0x10
   20a24:	02c6d6b3          	divu	a3,a3,a2
   20a28:	01079793          	slli	a5,a5,0x10
   20a2c:	0067e333          	or	t1,a5,t1
   20a30:	02d888b3          	mul	a7,a7,a3
   20a34:	00068513          	mv	a0,a3
   20a38:	01137c63          	bgeu	t1,a7,20a50 <__udivdi3+0x1cc>
   20a3c:	00680333          	add	t1,a6,t1
   20a40:	fff68513          	addi	a0,a3,-1 # ffff <threadsense.2617+0xffff>
   20a44:	01036663          	bltu	t1,a6,20a50 <__udivdi3+0x1cc>
   20a48:	01137463          	bgeu	t1,a7,20a50 <__udivdi3+0x1cc>
   20a4c:	ffe68513          	addi	a0,a3,-2
   20a50:	01071713          	slli	a4,a4,0x10
   20a54:	00a76733          	or	a4,a4,a0
   20a58:	00070513          	mv	a0,a4
   20a5c:	00008067          	ret
   20a60:	010006b7          	lui	a3,0x1000
   20a64:	01000713          	li	a4,16
   20a68:	f4d862e3          	bltu	a6,a3,209ac <__udivdi3+0x128>
   20a6c:	01800713          	li	a4,24
   20a70:	f3dff06f          	j	209ac <__udivdi3+0x128>
   20a74:	00e81833          	sll	a6,a6,a4
   20a78:	00d7d5b3          	srl	a1,a5,a3
   20a7c:	00e51333          	sll	t1,a0,a4
   20a80:	00d556b3          	srl	a3,a0,a3
   20a84:	01085513          	srli	a0,a6,0x10
   20a88:	00e797b3          	sll	a5,a5,a4
   20a8c:	02a5f733          	remu	a4,a1,a0
   20a90:	00f6e8b3          	or	a7,a3,a5
   20a94:	01081793          	slli	a5,a6,0x10
   20a98:	0107d793          	srli	a5,a5,0x10
   20a9c:	0108d613          	srli	a2,a7,0x10
   20aa0:	02a5d5b3          	divu	a1,a1,a0
   20aa4:	01071713          	slli	a4,a4,0x10
   20aa8:	00c76733          	or	a4,a4,a2
   20aac:	02b786b3          	mul	a3,a5,a1
   20ab0:	00058613          	mv	a2,a1
   20ab4:	00d77e63          	bgeu	a4,a3,20ad0 <__udivdi3+0x24c>
   20ab8:	01070733          	add	a4,a4,a6
   20abc:	fff58613          	addi	a2,a1,-1
   20ac0:	01076863          	bltu	a4,a6,20ad0 <__udivdi3+0x24c>
   20ac4:	00d77663          	bgeu	a4,a3,20ad0 <__udivdi3+0x24c>
   20ac8:	ffe58613          	addi	a2,a1,-2
   20acc:	01070733          	add	a4,a4,a6
   20ad0:	40d706b3          	sub	a3,a4,a3
   20ad4:	02a6f733          	remu	a4,a3,a0
   20ad8:	01089893          	slli	a7,a7,0x10
   20adc:	0108d893          	srli	a7,a7,0x10
   20ae0:	02a6d6b3          	divu	a3,a3,a0
   20ae4:	01071713          	slli	a4,a4,0x10
   20ae8:	02d785b3          	mul	a1,a5,a3
   20aec:	011767b3          	or	a5,a4,a7
   20af0:	00068713          	mv	a4,a3
   20af4:	00b7fe63          	bgeu	a5,a1,20b10 <__udivdi3+0x28c>
   20af8:	010787b3          	add	a5,a5,a6
   20afc:	fff68713          	addi	a4,a3,-1 # ffffff <__global_pointer$+0xfd7d2f>
   20b00:	0107e863          	bltu	a5,a6,20b10 <__udivdi3+0x28c>
   20b04:	00b7f663          	bgeu	a5,a1,20b10 <__udivdi3+0x28c>
   20b08:	ffe68713          	addi	a4,a3,-2
   20b0c:	010787b3          	add	a5,a5,a6
   20b10:	40b787b3          	sub	a5,a5,a1
   20b14:	01061593          	slli	a1,a2,0x10
   20b18:	00e5e5b3          	or	a1,a1,a4
   20b1c:	eb5ff06f          	j	209d0 <__udivdi3+0x14c>
   20b20:	18d5e663          	bltu	a1,a3,20cac <__udivdi3+0x428>
   20b24:	00010737          	lui	a4,0x10
   20b28:	04e6f463          	bgeu	a3,a4,20b70 <__udivdi3+0x2ec>
   20b2c:	0ff00813          	li	a6,255
   20b30:	00d83733          	sltu	a4,a6,a3
   20b34:	00371713          	slli	a4,a4,0x3
   20b38:	00e6d833          	srl	a6,a3,a4
   20b3c:	00004597          	auipc	a1,0x4
   20b40:	cfc58593          	addi	a1,a1,-772 # 24838 <__clz_tab>
   20b44:	010585b3          	add	a1,a1,a6
   20b48:	0005c803          	lbu	a6,0(a1)
   20b4c:	02000593          	li	a1,32
   20b50:	00e80833          	add	a6,a6,a4
   20b54:	410585b3          	sub	a1,a1,a6
   20b58:	02059663          	bnez	a1,20b84 <__udivdi3+0x300>
   20b5c:	00100713          	li	a4,1
   20b60:	eef6ece3          	bltu	a3,a5,20a58 <__udivdi3+0x1d4>
   20b64:	00c53533          	sltu	a0,a0,a2
   20b68:	00154713          	xori	a4,a0,1
   20b6c:	eedff06f          	j	20a58 <__udivdi3+0x1d4>
   20b70:	010005b7          	lui	a1,0x1000
   20b74:	01000713          	li	a4,16
   20b78:	fcb6e0e3          	bltu	a3,a1,20b38 <__udivdi3+0x2b4>
   20b7c:	01800713          	li	a4,24
   20b80:	fb9ff06f          	j	20b38 <__udivdi3+0x2b4>
   20b84:	01065733          	srl	a4,a2,a6
   20b88:	00b696b3          	sll	a3,a3,a1
   20b8c:	00d766b3          	or	a3,a4,a3
   20b90:	0106de93          	srli	t4,a3,0x10
   20b94:	0107d733          	srl	a4,a5,a6
   20b98:	03d778b3          	remu	a7,a4,t4
   20b9c:	00b797b3          	sll	a5,a5,a1
   20ba0:	01055833          	srl	a6,a0,a6
   20ba4:	00f86333          	or	t1,a6,a5
   20ba8:	01069793          	slli	a5,a3,0x10
   20bac:	0107d793          	srli	a5,a5,0x10
   20bb0:	01035813          	srli	a6,t1,0x10
   20bb4:	00b61633          	sll	a2,a2,a1
   20bb8:	03d75733          	divu	a4,a4,t4
   20bbc:	01089893          	slli	a7,a7,0x10
   20bc0:	0108e833          	or	a6,a7,a6
   20bc4:	02e78f33          	mul	t5,a5,a4
   20bc8:	00070e13          	mv	t3,a4
   20bcc:	01e87e63          	bgeu	a6,t5,20be8 <__udivdi3+0x364>
   20bd0:	00d80833          	add	a6,a6,a3
   20bd4:	fff70e13          	addi	t3,a4,-1 # ffff <threadsense.2617+0xffff>
   20bd8:	00d86863          	bltu	a6,a3,20be8 <__udivdi3+0x364>
   20bdc:	01e87663          	bgeu	a6,t5,20be8 <__udivdi3+0x364>
   20be0:	ffe70e13          	addi	t3,a4,-2
   20be4:	00d80833          	add	a6,a6,a3
   20be8:	41e80833          	sub	a6,a6,t5
   20bec:	03d878b3          	remu	a7,a6,t4
   20bf0:	03d85833          	divu	a6,a6,t4
   20bf4:	01089893          	slli	a7,a7,0x10
   20bf8:	03078eb3          	mul	t4,a5,a6
   20bfc:	01031793          	slli	a5,t1,0x10
   20c00:	0107d793          	srli	a5,a5,0x10
   20c04:	00f8e7b3          	or	a5,a7,a5
   20c08:	00080713          	mv	a4,a6
   20c0c:	01d7fe63          	bgeu	a5,t4,20c28 <__udivdi3+0x3a4>
   20c10:	00d787b3          	add	a5,a5,a3
   20c14:	fff80713          	addi	a4,a6,-1
   20c18:	00d7e863          	bltu	a5,a3,20c28 <__udivdi3+0x3a4>
   20c1c:	01d7f663          	bgeu	a5,t4,20c28 <__udivdi3+0x3a4>
   20c20:	ffe80713          	addi	a4,a6,-2
   20c24:	00d787b3          	add	a5,a5,a3
   20c28:	010e1e13          	slli	t3,t3,0x10
   20c2c:	41d787b3          	sub	a5,a5,t4
   20c30:	00010eb7          	lui	t4,0x10
   20c34:	00ee6733          	or	a4,t3,a4
   20c38:	fffe8813          	addi	a6,t4,-1 # ffff <threadsense.2617+0xffff>
   20c3c:	01077333          	and	t1,a4,a6
   20c40:	01075893          	srli	a7,a4,0x10
   20c44:	01067833          	and	a6,a2,a6
   20c48:	01065613          	srli	a2,a2,0x10
   20c4c:	03030e33          	mul	t3,t1,a6
   20c50:	03088833          	mul	a6,a7,a6
   20c54:	010e5693          	srli	a3,t3,0x10
   20c58:	02c30333          	mul	t1,t1,a2
   20c5c:	01030333          	add	t1,t1,a6
   20c60:	006686b3          	add	a3,a3,t1
   20c64:	02c888b3          	mul	a7,a7,a2
   20c68:	0106f463          	bgeu	a3,a6,20c70 <__udivdi3+0x3ec>
   20c6c:	01d888b3          	add	a7,a7,t4
   20c70:	0106d613          	srli	a2,a3,0x10
   20c74:	011608b3          	add	a7,a2,a7
   20c78:	0317e663          	bltu	a5,a7,20ca4 <__udivdi3+0x420>
   20c7c:	cf179ae3          	bne	a5,a7,20970 <__udivdi3+0xec>
   20c80:	000107b7          	lui	a5,0x10
   20c84:	fff78793          	addi	a5,a5,-1 # ffff <threadsense.2617+0xffff>
   20c88:	00f6f6b3          	and	a3,a3,a5
   20c8c:	01069693          	slli	a3,a3,0x10
   20c90:	00fe7e33          	and	t3,t3,a5
   20c94:	00b51533          	sll	a0,a0,a1
   20c98:	01c686b3          	add	a3,a3,t3
   20c9c:	00000593          	li	a1,0
   20ca0:	dad57ce3          	bgeu	a0,a3,20a58 <__udivdi3+0x1d4>
   20ca4:	fff70713          	addi	a4,a4,-1
   20ca8:	cc9ff06f          	j	20970 <__udivdi3+0xec>
   20cac:	00000593          	li	a1,0
   20cb0:	00000713          	li	a4,0
   20cb4:	da5ff06f          	j	20a58 <__udivdi3+0x1d4>

00020cb8 <__umoddi3>:
   20cb8:	00060893          	mv	a7,a2
   20cbc:	00068713          	mv	a4,a3
   20cc0:	00050793          	mv	a5,a0
   20cc4:	00058813          	mv	a6,a1
   20cc8:	22069c63          	bnez	a3,20f00 <__umoddi3+0x248>
   20ccc:	00004697          	auipc	a3,0x4
   20cd0:	b6c68693          	addi	a3,a3,-1172 # 24838 <__clz_tab>
   20cd4:	0cc5fc63          	bgeu	a1,a2,20dac <__umoddi3+0xf4>
   20cd8:	00010337          	lui	t1,0x10
   20cdc:	0a667e63          	bgeu	a2,t1,20d98 <__umoddi3+0xe0>
   20ce0:	0ff00313          	li	t1,255
   20ce4:	00c37463          	bgeu	t1,a2,20cec <__umoddi3+0x34>
   20ce8:	00800713          	li	a4,8
   20cec:	00e65333          	srl	t1,a2,a4
   20cf0:	006686b3          	add	a3,a3,t1
   20cf4:	0006ce03          	lbu	t3,0(a3)
   20cf8:	02000313          	li	t1,32
   20cfc:	00ee0e33          	add	t3,t3,a4
   20d00:	41c30333          	sub	t1,t1,t3
   20d04:	00030c63          	beqz	t1,20d1c <__umoddi3+0x64>
   20d08:	006595b3          	sll	a1,a1,t1
   20d0c:	01c55e33          	srl	t3,a0,t3
   20d10:	006618b3          	sll	a7,a2,t1
   20d14:	00be6833          	or	a6,t3,a1
   20d18:	006517b3          	sll	a5,a0,t1
   20d1c:	0108d613          	srli	a2,a7,0x10
   20d20:	02c87733          	remu	a4,a6,a2
   20d24:	01089513          	slli	a0,a7,0x10
   20d28:	01055513          	srli	a0,a0,0x10
   20d2c:	0107d693          	srli	a3,a5,0x10
   20d30:	02c85833          	divu	a6,a6,a2
   20d34:	01071713          	slli	a4,a4,0x10
   20d38:	00d766b3          	or	a3,a4,a3
   20d3c:	03050833          	mul	a6,a0,a6
   20d40:	0106fa63          	bgeu	a3,a6,20d54 <__umoddi3+0x9c>
   20d44:	011686b3          	add	a3,a3,a7
   20d48:	0116e663          	bltu	a3,a7,20d54 <__umoddi3+0x9c>
   20d4c:	0106f463          	bgeu	a3,a6,20d54 <__umoddi3+0x9c>
   20d50:	011686b3          	add	a3,a3,a7
   20d54:	410686b3          	sub	a3,a3,a6
   20d58:	02c6f733          	remu	a4,a3,a2
   20d5c:	01079793          	slli	a5,a5,0x10
   20d60:	0107d793          	srli	a5,a5,0x10
   20d64:	02c6d6b3          	divu	a3,a3,a2
   20d68:	02d506b3          	mul	a3,a0,a3
   20d6c:	01071513          	slli	a0,a4,0x10
   20d70:	00f567b3          	or	a5,a0,a5
   20d74:	00d7fa63          	bgeu	a5,a3,20d88 <__umoddi3+0xd0>
   20d78:	011787b3          	add	a5,a5,a7
   20d7c:	0117e663          	bltu	a5,a7,20d88 <__umoddi3+0xd0>
   20d80:	00d7f463          	bgeu	a5,a3,20d88 <__umoddi3+0xd0>
   20d84:	011787b3          	add	a5,a5,a7
   20d88:	40d787b3          	sub	a5,a5,a3
   20d8c:	0067d533          	srl	a0,a5,t1
   20d90:	00000593          	li	a1,0
   20d94:	00008067          	ret
   20d98:	01000337          	lui	t1,0x1000
   20d9c:	01000713          	li	a4,16
   20da0:	f46666e3          	bltu	a2,t1,20cec <__umoddi3+0x34>
   20da4:	01800713          	li	a4,24
   20da8:	f45ff06f          	j	20cec <__umoddi3+0x34>
   20dac:	00061663          	bnez	a2,20db8 <__umoddi3+0x100>
   20db0:	00100613          	li	a2,1
   20db4:	031658b3          	divu	a7,a2,a7
   20db8:	00010637          	lui	a2,0x10
   20dbc:	0ac8f263          	bgeu	a7,a2,20e60 <__umoddi3+0x1a8>
   20dc0:	0ff00613          	li	a2,255
   20dc4:	01167463          	bgeu	a2,a7,20dcc <__umoddi3+0x114>
   20dc8:	00800713          	li	a4,8
   20dcc:	00e8d633          	srl	a2,a7,a4
   20dd0:	00c686b3          	add	a3,a3,a2
   20dd4:	0006ce03          	lbu	t3,0(a3)
   20dd8:	02000313          	li	t1,32
   20ddc:	00ee0e33          	add	t3,t3,a4
   20de0:	41c30333          	sub	t1,t1,t3
   20de4:	08031863          	bnez	t1,20e74 <__umoddi3+0x1bc>
   20de8:	411585b3          	sub	a1,a1,a7
   20dec:	0108d713          	srli	a4,a7,0x10
   20df0:	01089513          	slli	a0,a7,0x10
   20df4:	01055513          	srli	a0,a0,0x10
   20df8:	0107d613          	srli	a2,a5,0x10
   20dfc:	02e5f6b3          	remu	a3,a1,a4
   20e00:	02e5d5b3          	divu	a1,a1,a4
   20e04:	01069693          	slli	a3,a3,0x10
   20e08:	00c6e6b3          	or	a3,a3,a2
   20e0c:	02b505b3          	mul	a1,a0,a1
   20e10:	00b6fa63          	bgeu	a3,a1,20e24 <__umoddi3+0x16c>
   20e14:	011686b3          	add	a3,a3,a7
   20e18:	0116e663          	bltu	a3,a7,20e24 <__umoddi3+0x16c>
   20e1c:	00b6f463          	bgeu	a3,a1,20e24 <__umoddi3+0x16c>
   20e20:	011686b3          	add	a3,a3,a7
   20e24:	40b685b3          	sub	a1,a3,a1
   20e28:	02e5f6b3          	remu	a3,a1,a4
   20e2c:	01079793          	slli	a5,a5,0x10
   20e30:	0107d793          	srli	a5,a5,0x10
   20e34:	02e5d5b3          	divu	a1,a1,a4
   20e38:	02b505b3          	mul	a1,a0,a1
   20e3c:	01069513          	slli	a0,a3,0x10
   20e40:	00f567b3          	or	a5,a0,a5
   20e44:	00b7fa63          	bgeu	a5,a1,20e58 <__umoddi3+0x1a0>
   20e48:	011787b3          	add	a5,a5,a7
   20e4c:	0117e663          	bltu	a5,a7,20e58 <__umoddi3+0x1a0>
   20e50:	00b7f463          	bgeu	a5,a1,20e58 <__umoddi3+0x1a0>
   20e54:	011787b3          	add	a5,a5,a7
   20e58:	40b787b3          	sub	a5,a5,a1
   20e5c:	f31ff06f          	j	20d8c <__umoddi3+0xd4>
   20e60:	01000637          	lui	a2,0x1000
   20e64:	01000713          	li	a4,16
   20e68:	f6c8e2e3          	bltu	a7,a2,20dcc <__umoddi3+0x114>
   20e6c:	01800713          	li	a4,24
   20e70:	f5dff06f          	j	20dcc <__umoddi3+0x114>
   20e74:	006898b3          	sll	a7,a7,t1
   20e78:	01c5d733          	srl	a4,a1,t3
   20e7c:	006517b3          	sll	a5,a0,t1
   20e80:	01c55e33          	srl	t3,a0,t3
   20e84:	0108d513          	srli	a0,a7,0x10
   20e88:	02a776b3          	remu	a3,a4,a0
   20e8c:	006595b3          	sll	a1,a1,t1
   20e90:	00be6e33          	or	t3,t3,a1
   20e94:	01089593          	slli	a1,a7,0x10
   20e98:	0105d593          	srli	a1,a1,0x10
   20e9c:	010e5613          	srli	a2,t3,0x10
   20ea0:	02a75733          	divu	a4,a4,a0
   20ea4:	01069693          	slli	a3,a3,0x10
   20ea8:	00c6e6b3          	or	a3,a3,a2
   20eac:	02e58733          	mul	a4,a1,a4
   20eb0:	00e6fa63          	bgeu	a3,a4,20ec4 <__umoddi3+0x20c>
   20eb4:	011686b3          	add	a3,a3,a7
   20eb8:	0116e663          	bltu	a3,a7,20ec4 <__umoddi3+0x20c>
   20ebc:	00e6f463          	bgeu	a3,a4,20ec4 <__umoddi3+0x20c>
   20ec0:	011686b3          	add	a3,a3,a7
   20ec4:	40e68633          	sub	a2,a3,a4
   20ec8:	02a676b3          	remu	a3,a2,a0
   20ecc:	010e1e13          	slli	t3,t3,0x10
   20ed0:	010e5e13          	srli	t3,t3,0x10
   20ed4:	02a65633          	divu	a2,a2,a0
   20ed8:	01069693          	slli	a3,a3,0x10
   20edc:	02c58633          	mul	a2,a1,a2
   20ee0:	01c6e5b3          	or	a1,a3,t3
   20ee4:	00c5fa63          	bgeu	a1,a2,20ef8 <__umoddi3+0x240>
   20ee8:	011585b3          	add	a1,a1,a7
   20eec:	0115e663          	bltu	a1,a7,20ef8 <__umoddi3+0x240>
   20ef0:	00c5f463          	bgeu	a1,a2,20ef8 <__umoddi3+0x240>
   20ef4:	011585b3          	add	a1,a1,a7
   20ef8:	40c585b3          	sub	a1,a1,a2
   20efc:	ef1ff06f          	j	20dec <__umoddi3+0x134>
   20f00:	e8d5eae3          	bltu	a1,a3,20d94 <__umoddi3+0xdc>
   20f04:	00010737          	lui	a4,0x10
   20f08:	04e6fc63          	bgeu	a3,a4,20f60 <__umoddi3+0x2a8>
   20f0c:	0ff00e93          	li	t4,255
   20f10:	00deb733          	sltu	a4,t4,a3
   20f14:	00371713          	slli	a4,a4,0x3
   20f18:	00e6d333          	srl	t1,a3,a4
   20f1c:	00004897          	auipc	a7,0x4
   20f20:	91c88893          	addi	a7,a7,-1764 # 24838 <__clz_tab>
   20f24:	006888b3          	add	a7,a7,t1
   20f28:	0008ce83          	lbu	t4,0(a7)
   20f2c:	02000e13          	li	t3,32
   20f30:	00ee8eb3          	add	t4,t4,a4
   20f34:	41de0e33          	sub	t3,t3,t4
   20f38:	020e1e63          	bnez	t3,20f74 <__umoddi3+0x2bc>
   20f3c:	00b6e463          	bltu	a3,a1,20f44 <__umoddi3+0x28c>
   20f40:	00c56a63          	bltu	a0,a2,20f54 <__umoddi3+0x29c>
   20f44:	40c507b3          	sub	a5,a0,a2
   20f48:	40d585b3          	sub	a1,a1,a3
   20f4c:	00f53533          	sltu	a0,a0,a5
   20f50:	40a58833          	sub	a6,a1,a0
   20f54:	00078513          	mv	a0,a5
   20f58:	00080593          	mv	a1,a6
   20f5c:	e39ff06f          	j	20d94 <__umoddi3+0xdc>
   20f60:	010008b7          	lui	a7,0x1000
   20f64:	01000713          	li	a4,16
   20f68:	fb16e8e3          	bltu	a3,a7,20f18 <__umoddi3+0x260>
   20f6c:	01800713          	li	a4,24
   20f70:	fa9ff06f          	j	20f18 <__umoddi3+0x260>
   20f74:	01d65733          	srl	a4,a2,t4
   20f78:	01c696b3          	sll	a3,a3,t3
   20f7c:	00d766b3          	or	a3,a4,a3
   20f80:	0106d813          	srli	a6,a3,0x10
   20f84:	01d5d733          	srl	a4,a1,t4
   20f88:	03077333          	remu	t1,a4,a6
   20f8c:	01c595b3          	sll	a1,a1,t3
   20f90:	01d557b3          	srl	a5,a0,t4
   20f94:	00b7e7b3          	or	a5,a5,a1
   20f98:	01069593          	slli	a1,a3,0x10
   20f9c:	0105d593          	srli	a1,a1,0x10
   20fa0:	0107d893          	srli	a7,a5,0x10
   20fa4:	01c61633          	sll	a2,a2,t3
   20fa8:	01c51533          	sll	a0,a0,t3
   20fac:	03075733          	divu	a4,a4,a6
   20fb0:	01031313          	slli	t1,t1,0x10
   20fb4:	011368b3          	or	a7,t1,a7
   20fb8:	02e58f33          	mul	t5,a1,a4
   20fbc:	00070313          	mv	t1,a4
   20fc0:	01e8fe63          	bgeu	a7,t5,20fdc <__umoddi3+0x324>
   20fc4:	00d888b3          	add	a7,a7,a3
   20fc8:	fff70313          	addi	t1,a4,-1 # ffff <threadsense.2617+0xffff>
   20fcc:	00d8e863          	bltu	a7,a3,20fdc <__umoddi3+0x324>
   20fd0:	01e8f663          	bgeu	a7,t5,20fdc <__umoddi3+0x324>
   20fd4:	ffe70313          	addi	t1,a4,-2
   20fd8:	00d888b3          	add	a7,a7,a3
   20fdc:	41e888b3          	sub	a7,a7,t5
   20fe0:	0308ff33          	remu	t5,a7,a6
   20fe4:	0308d8b3          	divu	a7,a7,a6
   20fe8:	010f1f13          	slli	t5,t5,0x10
   20fec:	03158833          	mul	a6,a1,a7
   20ff0:	01079593          	slli	a1,a5,0x10
   20ff4:	0105d593          	srli	a1,a1,0x10
   20ff8:	00bf65b3          	or	a1,t5,a1
   20ffc:	00088793          	mv	a5,a7
   21000:	0105fe63          	bgeu	a1,a6,2101c <__umoddi3+0x364>
   21004:	00d585b3          	add	a1,a1,a3
   21008:	fff88793          	addi	a5,a7,-1 # ffffff <__global_pointer$+0xfd7d2f>
   2100c:	00d5e863          	bltu	a1,a3,2101c <__umoddi3+0x364>
   21010:	0105f663          	bgeu	a1,a6,2101c <__umoddi3+0x364>
   21014:	ffe88793          	addi	a5,a7,-2
   21018:	00d585b3          	add	a1,a1,a3
   2101c:	01031313          	slli	t1,t1,0x10
   21020:	00010f37          	lui	t5,0x10
   21024:	00f36333          	or	t1,t1,a5
   21028:	ffff0793          	addi	a5,t5,-1 # ffff <threadsense.2617+0xffff>
   2102c:	00f378b3          	and	a7,t1,a5
   21030:	410585b3          	sub	a1,a1,a6
   21034:	01035313          	srli	t1,t1,0x10
   21038:	01065813          	srli	a6,a2,0x10
   2103c:	00f677b3          	and	a5,a2,a5
   21040:	02f88733          	mul	a4,a7,a5
   21044:	02f307b3          	mul	a5,t1,a5
   21048:	030888b3          	mul	a7,a7,a6
   2104c:	03030333          	mul	t1,t1,a6
   21050:	00f888b3          	add	a7,a7,a5
   21054:	01075813          	srli	a6,a4,0x10
   21058:	01180833          	add	a6,a6,a7
   2105c:	00f87463          	bgeu	a6,a5,21064 <__umoddi3+0x3ac>
   21060:	01e30333          	add	t1,t1,t5
   21064:	01085793          	srli	a5,a6,0x10
   21068:	00678333          	add	t1,a5,t1
   2106c:	000107b7          	lui	a5,0x10
   21070:	fff78793          	addi	a5,a5,-1 # ffff <threadsense.2617+0xffff>
   21074:	00f87833          	and	a6,a6,a5
   21078:	01081813          	slli	a6,a6,0x10
   2107c:	00f77733          	and	a4,a4,a5
   21080:	00e80733          	add	a4,a6,a4
   21084:	0065e663          	bltu	a1,t1,21090 <__umoddi3+0x3d8>
   21088:	00659e63          	bne	a1,t1,210a4 <__umoddi3+0x3ec>
   2108c:	00e57c63          	bgeu	a0,a4,210a4 <__umoddi3+0x3ec>
   21090:	40c70633          	sub	a2,a4,a2
   21094:	00c73733          	sltu	a4,a4,a2
   21098:	00d70733          	add	a4,a4,a3
   2109c:	40e30333          	sub	t1,t1,a4
   210a0:	00060713          	mv	a4,a2
   210a4:	40e50733          	sub	a4,a0,a4
   210a8:	00e53533          	sltu	a0,a0,a4
   210ac:	406585b3          	sub	a1,a1,t1
   210b0:	40a585b3          	sub	a1,a1,a0
   210b4:	01d597b3          	sll	a5,a1,t4
   210b8:	01c75733          	srl	a4,a4,t3
   210bc:	00e7e533          	or	a0,a5,a4
   210c0:	01c5d5b3          	srl	a1,a1,t3
   210c4:	cd1ff06f          	j	20d94 <__umoddi3+0xdc>

000210c8 <__muldf3>:
   210c8:	fd010113          	addi	sp,sp,-48
   210cc:	01312e23          	sw	s3,28(sp)
   210d0:	0145d993          	srli	s3,a1,0x14
   210d4:	02812423          	sw	s0,40(sp)
   210d8:	02912223          	sw	s1,36(sp)
   210dc:	01412c23          	sw	s4,24(sp)
   210e0:	01512a23          	sw	s5,20(sp)
   210e4:	01612823          	sw	s6,16(sp)
   210e8:	00c59493          	slli	s1,a1,0xc
   210ec:	02112623          	sw	ra,44(sp)
   210f0:	03212023          	sw	s2,32(sp)
   210f4:	01712623          	sw	s7,12(sp)
   210f8:	7ff9f993          	andi	s3,s3,2047
   210fc:	00050413          	mv	s0,a0
   21100:	00060b13          	mv	s6,a2
   21104:	00068a93          	mv	s5,a3
   21108:	00c4d493          	srli	s1,s1,0xc
   2110c:	01f5da13          	srli	s4,a1,0x1f
   21110:	0a098463          	beqz	s3,211b8 <__muldf3+0xf0>
   21114:	7ff00793          	li	a5,2047
   21118:	10f98263          	beq	s3,a5,2121c <__muldf3+0x154>
   2111c:	01d55793          	srli	a5,a0,0x1d
   21120:	00349493          	slli	s1,s1,0x3
   21124:	0097e4b3          	or	s1,a5,s1
   21128:	008007b7          	lui	a5,0x800
   2112c:	00f4e4b3          	or	s1,s1,a5
   21130:	00351913          	slli	s2,a0,0x3
   21134:	c0198993          	addi	s3,s3,-1023
   21138:	00000b93          	li	s7,0
   2113c:	014ad513          	srli	a0,s5,0x14
   21140:	00ca9413          	slli	s0,s5,0xc
   21144:	7ff57513          	andi	a0,a0,2047
   21148:	00c45413          	srli	s0,s0,0xc
   2114c:	01fada93          	srli	s5,s5,0x1f
   21150:	10050263          	beqz	a0,21254 <__muldf3+0x18c>
   21154:	7ff00793          	li	a5,2047
   21158:	16f50263          	beq	a0,a5,212bc <__muldf3+0x1f4>
   2115c:	01db5793          	srli	a5,s6,0x1d
   21160:	00341413          	slli	s0,s0,0x3
   21164:	0087e433          	or	s0,a5,s0
   21168:	008007b7          	lui	a5,0x800
   2116c:	00f46433          	or	s0,s0,a5
   21170:	c0150513          	addi	a0,a0,-1023
   21174:	003b1793          	slli	a5,s6,0x3
   21178:	00000713          	li	a4,0
   2117c:	002b9693          	slli	a3,s7,0x2
   21180:	00e6e6b3          	or	a3,a3,a4
   21184:	00a98533          	add	a0,s3,a0
   21188:	fff68693          	addi	a3,a3,-1
   2118c:	00e00593          	li	a1,14
   21190:	015a4633          	xor	a2,s4,s5
   21194:	00150813          	addi	a6,a0,1
   21198:	14d5ee63          	bltu	a1,a3,212f4 <__muldf3+0x22c>
   2119c:	00004597          	auipc	a1,0x4
   211a0:	2cc58593          	addi	a1,a1,716 # 25468 <zeroes.4467+0x10>
   211a4:	00269693          	slli	a3,a3,0x2
   211a8:	00b686b3          	add	a3,a3,a1
   211ac:	0006a683          	lw	a3,0(a3)
   211b0:	00b686b3          	add	a3,a3,a1
   211b4:	00068067          	jr	a3
   211b8:	00a4e933          	or	s2,s1,a0
   211bc:	06090c63          	beqz	s2,21234 <__muldf3+0x16c>
   211c0:	04048063          	beqz	s1,21200 <__muldf3+0x138>
   211c4:	00048513          	mv	a0,s1
   211c8:	a14f00ef          	jal	ra,113dc <__clzsi2>
   211cc:	ff550713          	addi	a4,a0,-11
   211d0:	01c00793          	li	a5,28
   211d4:	02e7cc63          	blt	a5,a4,2120c <__muldf3+0x144>
   211d8:	01d00793          	li	a5,29
   211dc:	ff850913          	addi	s2,a0,-8
   211e0:	40e787b3          	sub	a5,a5,a4
   211e4:	012494b3          	sll	s1,s1,s2
   211e8:	00f457b3          	srl	a5,s0,a5
   211ec:	0097e4b3          	or	s1,a5,s1
   211f0:	01241933          	sll	s2,s0,s2
   211f4:	c0d00993          	li	s3,-1011
   211f8:	40a989b3          	sub	s3,s3,a0
   211fc:	f3dff06f          	j	21138 <__muldf3+0x70>
   21200:	9dcf00ef          	jal	ra,113dc <__clzsi2>
   21204:	02050513          	addi	a0,a0,32
   21208:	fc5ff06f          	j	211cc <__muldf3+0x104>
   2120c:	fd850493          	addi	s1,a0,-40
   21210:	009414b3          	sll	s1,s0,s1
   21214:	00000913          	li	s2,0
   21218:	fddff06f          	j	211f4 <__muldf3+0x12c>
   2121c:	00a4e933          	or	s2,s1,a0
   21220:	02090263          	beqz	s2,21244 <__muldf3+0x17c>
   21224:	00050913          	mv	s2,a0
   21228:	7ff00993          	li	s3,2047
   2122c:	00300b93          	li	s7,3
   21230:	f0dff06f          	j	2113c <__muldf3+0x74>
   21234:	00000493          	li	s1,0
   21238:	00000993          	li	s3,0
   2123c:	00100b93          	li	s7,1
   21240:	efdff06f          	j	2113c <__muldf3+0x74>
   21244:	00000493          	li	s1,0
   21248:	7ff00993          	li	s3,2047
   2124c:	00200b93          	li	s7,2
   21250:	eedff06f          	j	2113c <__muldf3+0x74>
   21254:	016467b3          	or	a5,s0,s6
   21258:	06078e63          	beqz	a5,212d4 <__muldf3+0x20c>
   2125c:	04040063          	beqz	s0,2129c <__muldf3+0x1d4>
   21260:	00040513          	mv	a0,s0
   21264:	978f00ef          	jal	ra,113dc <__clzsi2>
   21268:	ff550693          	addi	a3,a0,-11
   2126c:	01c00793          	li	a5,28
   21270:	02d7ce63          	blt	a5,a3,212ac <__muldf3+0x1e4>
   21274:	01d00713          	li	a4,29
   21278:	ff850793          	addi	a5,a0,-8
   2127c:	40d70733          	sub	a4,a4,a3
   21280:	00f41433          	sll	s0,s0,a5
   21284:	00eb5733          	srl	a4,s6,a4
   21288:	00876433          	or	s0,a4,s0
   2128c:	00fb17b3          	sll	a5,s6,a5
   21290:	c0d00713          	li	a4,-1011
   21294:	40a70533          	sub	a0,a4,a0
   21298:	ee1ff06f          	j	21178 <__muldf3+0xb0>
   2129c:	000b0513          	mv	a0,s6
   212a0:	93cf00ef          	jal	ra,113dc <__clzsi2>
   212a4:	02050513          	addi	a0,a0,32
   212a8:	fc1ff06f          	j	21268 <__muldf3+0x1a0>
   212ac:	fd850413          	addi	s0,a0,-40
   212b0:	008b1433          	sll	s0,s6,s0
   212b4:	00000793          	li	a5,0
   212b8:	fd9ff06f          	j	21290 <__muldf3+0x1c8>
   212bc:	016467b3          	or	a5,s0,s6
   212c0:	02078263          	beqz	a5,212e4 <__muldf3+0x21c>
   212c4:	000b0793          	mv	a5,s6
   212c8:	7ff00513          	li	a0,2047
   212cc:	00300713          	li	a4,3
   212d0:	eadff06f          	j	2117c <__muldf3+0xb4>
   212d4:	00000413          	li	s0,0
   212d8:	00000513          	li	a0,0
   212dc:	00100713          	li	a4,1
   212e0:	e9dff06f          	j	2117c <__muldf3+0xb4>
   212e4:	00000413          	li	s0,0
   212e8:	7ff00513          	li	a0,2047
   212ec:	00200713          	li	a4,2
   212f0:	e8dff06f          	j	2117c <__muldf3+0xb4>
   212f4:	00010f37          	lui	t5,0x10
   212f8:	ffff0e93          	addi	t4,t5,-1 # ffff <threadsense.2617+0xffff>
   212fc:	01095713          	srli	a4,s2,0x10
   21300:	0107d893          	srli	a7,a5,0x10
   21304:	01d97933          	and	s2,s2,t4
   21308:	01d7f7b3          	and	a5,a5,t4
   2130c:	032885b3          	mul	a1,a7,s2
   21310:	032786b3          	mul	a3,a5,s2
   21314:	02f70fb3          	mul	t6,a4,a5
   21318:	01f58333          	add	t1,a1,t6
   2131c:	0106d593          	srli	a1,a3,0x10
   21320:	006585b3          	add	a1,a1,t1
   21324:	03170e33          	mul	t3,a4,a7
   21328:	01f5f463          	bgeu	a1,t6,21330 <__muldf3+0x268>
   2132c:	01ee0e33          	add	t3,t3,t5
   21330:	0105d393          	srli	t2,a1,0x10
   21334:	01d5f5b3          	and	a1,a1,t4
   21338:	01d6f6b3          	and	a3,a3,t4
   2133c:	01045f13          	srli	t5,s0,0x10
   21340:	01d472b3          	and	t0,s0,t4
   21344:	01059593          	slli	a1,a1,0x10
   21348:	00d585b3          	add	a1,a1,a3
   2134c:	02570eb3          	mul	t4,a4,t0
   21350:	032286b3          	mul	a3,t0,s2
   21354:	032f0933          	mul	s2,t5,s2
   21358:	01d90333          	add	t1,s2,t4
   2135c:	0106d913          	srli	s2,a3,0x10
   21360:	00690933          	add	s2,s2,t1
   21364:	03e70733          	mul	a4,a4,t5
   21368:	01d97663          	bgeu	s2,t4,21374 <__muldf3+0x2ac>
   2136c:	00010337          	lui	t1,0x10
   21370:	00670733          	add	a4,a4,t1
   21374:	01095e93          	srli	t4,s2,0x10
   21378:	000109b7          	lui	s3,0x10
   2137c:	00ee8eb3          	add	t4,t4,a4
   21380:	fff98713          	addi	a4,s3,-1 # ffff <threadsense.2617+0xffff>
   21384:	00e97933          	and	s2,s2,a4
   21388:	00e6f6b3          	and	a3,a3,a4
   2138c:	0104d413          	srli	s0,s1,0x10
   21390:	01091913          	slli	s2,s2,0x10
   21394:	00e4f4b3          	and	s1,s1,a4
   21398:	00d90933          	add	s2,s2,a3
   2139c:	02978733          	mul	a4,a5,s1
   213a0:	012383b3          	add	t2,t2,s2
   213a4:	02f40333          	mul	t1,s0,a5
   213a8:	029886b3          	mul	a3,a7,s1
   213ac:	028887b3          	mul	a5,a7,s0
   213b0:	006688b3          	add	a7,a3,t1
   213b4:	01075693          	srli	a3,a4,0x10
   213b8:	011686b3          	add	a3,a3,a7
   213bc:	0066f463          	bgeu	a3,t1,213c4 <__muldf3+0x2fc>
   213c0:	013787b3          	add	a5,a5,s3
   213c4:	0106d893          	srli	a7,a3,0x10
   213c8:	000109b7          	lui	s3,0x10
   213cc:	00f88fb3          	add	t6,a7,a5
   213d0:	fff98793          	addi	a5,s3,-1 # ffff <threadsense.2617+0xffff>
   213d4:	00f6f6b3          	and	a3,a3,a5
   213d8:	00f77733          	and	a4,a4,a5
   213dc:	029288b3          	mul	a7,t0,s1
   213e0:	01069693          	slli	a3,a3,0x10
   213e4:	00e686b3          	add	a3,a3,a4
   213e8:	025407b3          	mul	a5,s0,t0
   213ec:	029f04b3          	mul	s1,t5,s1
   213f0:	028f0333          	mul	t1,t5,s0
   213f4:	00f484b3          	add	s1,s1,a5
   213f8:	0108d413          	srli	s0,a7,0x10
   213fc:	009404b3          	add	s1,s0,s1
   21400:	00f4f463          	bgeu	s1,a5,21408 <__muldf3+0x340>
   21404:	01330333          	add	t1,t1,s3
   21408:	000107b7          	lui	a5,0x10
   2140c:	fff78793          	addi	a5,a5,-1 # ffff <threadsense.2617+0xffff>
   21410:	00f4f733          	and	a4,s1,a5
   21414:	00f8f8b3          	and	a7,a7,a5
   21418:	01071713          	slli	a4,a4,0x10
   2141c:	007e0e33          	add	t3,t3,t2
   21420:	01170733          	add	a4,a4,a7
   21424:	012e3933          	sltu	s2,t3,s2
   21428:	01d70733          	add	a4,a4,t4
   2142c:	01270433          	add	s0,a4,s2
   21430:	00de0e33          	add	t3,t3,a3
   21434:	00de36b3          	sltu	a3,t3,a3
   21438:	01f408b3          	add	a7,s0,t6
   2143c:	00d88f33          	add	t5,a7,a3
   21440:	01d73733          	sltu	a4,a4,t4
   21444:	01243433          	sltu	s0,s0,s2
   21448:	00876433          	or	s0,a4,s0
   2144c:	0104d493          	srli	s1,s1,0x10
   21450:	01f8b8b3          	sltu	a7,a7,t6
   21454:	00df36b3          	sltu	a3,t5,a3
   21458:	00940433          	add	s0,s0,s1
   2145c:	00d8e6b3          	or	a3,a7,a3
   21460:	00d40433          	add	s0,s0,a3
   21464:	00640433          	add	s0,s0,t1
   21468:	017f5793          	srli	a5,t5,0x17
   2146c:	00941413          	slli	s0,s0,0x9
   21470:	00f46433          	or	s0,s0,a5
   21474:	009e1793          	slli	a5,t3,0x9
   21478:	00b7e7b3          	or	a5,a5,a1
   2147c:	00f037b3          	snez	a5,a5
   21480:	017e5e13          	srli	t3,t3,0x17
   21484:	009f1713          	slli	a4,t5,0x9
   21488:	01c7e7b3          	or	a5,a5,t3
   2148c:	00e7e7b3          	or	a5,a5,a4
   21490:	00741713          	slli	a4,s0,0x7
   21494:	10075263          	bgez	a4,21598 <__muldf3+0x4d0>
   21498:	0017d713          	srli	a4,a5,0x1
   2149c:	0017f793          	andi	a5,a5,1
   214a0:	00f767b3          	or	a5,a4,a5
   214a4:	01f41713          	slli	a4,s0,0x1f
   214a8:	00e7e7b3          	or	a5,a5,a4
   214ac:	00145413          	srli	s0,s0,0x1
   214b0:	3ff80693          	addi	a3,a6,1023
   214b4:	0ed05663          	blez	a3,215a0 <__muldf3+0x4d8>
   214b8:	0077f713          	andi	a4,a5,7
   214bc:	02070063          	beqz	a4,214dc <__muldf3+0x414>
   214c0:	00f7f713          	andi	a4,a5,15
   214c4:	00400593          	li	a1,4
   214c8:	00b70a63          	beq	a4,a1,214dc <__muldf3+0x414>
   214cc:	00478713          	addi	a4,a5,4
   214d0:	00f737b3          	sltu	a5,a4,a5
   214d4:	00f40433          	add	s0,s0,a5
   214d8:	00070793          	mv	a5,a4
   214dc:	00741713          	slli	a4,s0,0x7
   214e0:	00075a63          	bgez	a4,214f4 <__muldf3+0x42c>
   214e4:	ff000737          	lui	a4,0xff000
   214e8:	fff70713          	addi	a4,a4,-1 # feffffff <__global_pointer$+0xfefd7d2f>
   214ec:	00e47433          	and	s0,s0,a4
   214f0:	40080693          	addi	a3,a6,1024
   214f4:	7fe00713          	li	a4,2046
   214f8:	16d74663          	blt	a4,a3,21664 <__muldf3+0x59c>
   214fc:	0037d713          	srli	a4,a5,0x3
   21500:	01d41793          	slli	a5,s0,0x1d
   21504:	00e7e7b3          	or	a5,a5,a4
   21508:	00345413          	srli	s0,s0,0x3
   2150c:	00c41413          	slli	s0,s0,0xc
   21510:	7ff6f713          	andi	a4,a3,2047
   21514:	01471713          	slli	a4,a4,0x14
   21518:	00c45413          	srli	s0,s0,0xc
   2151c:	00e46433          	or	s0,s0,a4
   21520:	01f61613          	slli	a2,a2,0x1f
   21524:	00c46733          	or	a4,s0,a2
   21528:	02c12083          	lw	ra,44(sp)
   2152c:	02812403          	lw	s0,40(sp)
   21530:	02412483          	lw	s1,36(sp)
   21534:	02012903          	lw	s2,32(sp)
   21538:	01c12983          	lw	s3,28(sp)
   2153c:	01812a03          	lw	s4,24(sp)
   21540:	01412a83          	lw	s5,20(sp)
   21544:	01012b03          	lw	s6,16(sp)
   21548:	00c12b83          	lw	s7,12(sp)
   2154c:	00078513          	mv	a0,a5
   21550:	00070593          	mv	a1,a4
   21554:	03010113          	addi	sp,sp,48
   21558:	00008067          	ret
   2155c:	000a0613          	mv	a2,s4
   21560:	00048413          	mv	s0,s1
   21564:	00090793          	mv	a5,s2
   21568:	000b8713          	mv	a4,s7
   2156c:	00200693          	li	a3,2
   21570:	0ed70a63          	beq	a4,a3,21664 <__muldf3+0x59c>
   21574:	00300693          	li	a3,3
   21578:	0cd70c63          	beq	a4,a3,21650 <__muldf3+0x588>
   2157c:	00100693          	li	a3,1
   21580:	f2d718e3          	bne	a4,a3,214b0 <__muldf3+0x3e8>
   21584:	00000413          	li	s0,0
   21588:	00000793          	li	a5,0
   2158c:	0880006f          	j	21614 <__muldf3+0x54c>
   21590:	000a8613          	mv	a2,s5
   21594:	fd9ff06f          	j	2156c <__muldf3+0x4a4>
   21598:	00050813          	mv	a6,a0
   2159c:	f15ff06f          	j	214b0 <__muldf3+0x3e8>
   215a0:	00100593          	li	a1,1
   215a4:	40d585b3          	sub	a1,a1,a3
   215a8:	03800713          	li	a4,56
   215ac:	fcb74ce3          	blt	a4,a1,21584 <__muldf3+0x4bc>
   215b0:	01f00713          	li	a4,31
   215b4:	06b74463          	blt	a4,a1,2161c <__muldf3+0x554>
   215b8:	41e80813          	addi	a6,a6,1054
   215bc:	01041733          	sll	a4,s0,a6
   215c0:	00b7d6b3          	srl	a3,a5,a1
   215c4:	010797b3          	sll	a5,a5,a6
   215c8:	00d76733          	or	a4,a4,a3
   215cc:	00f037b3          	snez	a5,a5
   215d0:	00f767b3          	or	a5,a4,a5
   215d4:	00b45433          	srl	s0,s0,a1
   215d8:	0077f713          	andi	a4,a5,7
   215dc:	02070063          	beqz	a4,215fc <__muldf3+0x534>
   215e0:	00f7f713          	andi	a4,a5,15
   215e4:	00400693          	li	a3,4
   215e8:	00d70a63          	beq	a4,a3,215fc <__muldf3+0x534>
   215ec:	00478713          	addi	a4,a5,4
   215f0:	00f737b3          	sltu	a5,a4,a5
   215f4:	00f40433          	add	s0,s0,a5
   215f8:	00070793          	mv	a5,a4
   215fc:	00841713          	slli	a4,s0,0x8
   21600:	06074a63          	bltz	a4,21674 <__muldf3+0x5ac>
   21604:	01d41713          	slli	a4,s0,0x1d
   21608:	0037d793          	srli	a5,a5,0x3
   2160c:	00f767b3          	or	a5,a4,a5
   21610:	00345413          	srli	s0,s0,0x3
   21614:	00000693          	li	a3,0
   21618:	ef5ff06f          	j	2150c <__muldf3+0x444>
   2161c:	fe100713          	li	a4,-31
   21620:	40d70733          	sub	a4,a4,a3
   21624:	02000513          	li	a0,32
   21628:	00e45733          	srl	a4,s0,a4
   2162c:	00000693          	li	a3,0
   21630:	00a58663          	beq	a1,a0,2163c <__muldf3+0x574>
   21634:	43e80813          	addi	a6,a6,1086
   21638:	010416b3          	sll	a3,s0,a6
   2163c:	00f6e7b3          	or	a5,a3,a5
   21640:	00f037b3          	snez	a5,a5
   21644:	00f767b3          	or	a5,a4,a5
   21648:	00000413          	li	s0,0
   2164c:	f8dff06f          	j	215d8 <__muldf3+0x510>
   21650:	00080437          	lui	s0,0x80
   21654:	00000793          	li	a5,0
   21658:	7ff00693          	li	a3,2047
   2165c:	00000613          	li	a2,0
   21660:	eadff06f          	j	2150c <__muldf3+0x444>
   21664:	00000413          	li	s0,0
   21668:	00000793          	li	a5,0
   2166c:	7ff00693          	li	a3,2047
   21670:	e9dff06f          	j	2150c <__muldf3+0x444>
   21674:	00000413          	li	s0,0
   21678:	00000793          	li	a5,0
   2167c:	00100693          	li	a3,1
   21680:	e8dff06f          	j	2150c <__muldf3+0x444>

00021684 <__eqtf2>:
   21684:	00c52783          	lw	a5,12(a0)
   21688:	0005af03          	lw	t5,0(a1)
   2168c:	0045af83          	lw	t6,4(a1)
   21690:	0085a283          	lw	t0,8(a1)
   21694:	00c5a583          	lw	a1,12(a1)
   21698:	00008737          	lui	a4,0x8
   2169c:	0107d693          	srli	a3,a5,0x10
   216a0:	fff70713          	addi	a4,a4,-1 # 7fff <threadsense.2617+0x7fff>
   216a4:	01079813          	slli	a6,a5,0x10
   216a8:	01059e93          	slli	t4,a1,0x10
   216ac:	01f7d613          	srli	a2,a5,0x1f
   216b0:	00e6f6b3          	and	a3,a3,a4
   216b4:	0105d793          	srli	a5,a1,0x10
   216b8:	ff010113          	addi	sp,sp,-16
   216bc:	00052883          	lw	a7,0(a0)
   216c0:	00452303          	lw	t1,4(a0)
   216c4:	00852e03          	lw	t3,8(a0)
   216c8:	01085813          	srli	a6,a6,0x10
   216cc:	010ede93          	srli	t4,t4,0x10
   216d0:	00e7f7b3          	and	a5,a5,a4
   216d4:	01f5d593          	srli	a1,a1,0x1f
   216d8:	02e69063          	bne	a3,a4,216f8 <__eqtf2+0x74>
   216dc:	0068e733          	or	a4,a7,t1
   216e0:	01c76733          	or	a4,a4,t3
   216e4:	01076733          	or	a4,a4,a6
   216e8:	00100513          	li	a0,1
   216ec:	04071a63          	bnez	a4,21740 <__eqtf2+0xbc>
   216f0:	04d79863          	bne	a5,a3,21740 <__eqtf2+0xbc>
   216f4:	0080006f          	j	216fc <__eqtf2+0x78>
   216f8:	00e79c63          	bne	a5,a4,21710 <__eqtf2+0x8c>
   216fc:	01ff6733          	or	a4,t5,t6
   21700:	00576733          	or	a4,a4,t0
   21704:	01d76733          	or	a4,a4,t4
   21708:	00100513          	li	a0,1
   2170c:	02071a63          	bnez	a4,21740 <__eqtf2+0xbc>
   21710:	00100513          	li	a0,1
   21714:	02d79663          	bne	a5,a3,21740 <__eqtf2+0xbc>
   21718:	03e89463          	bne	a7,t5,21740 <__eqtf2+0xbc>
   2171c:	03f31263          	bne	t1,t6,21740 <__eqtf2+0xbc>
   21720:	025e1063          	bne	t3,t0,21740 <__eqtf2+0xbc>
   21724:	01d81e63          	bne	a6,t4,21740 <__eqtf2+0xbc>
   21728:	02b60063          	beq	a2,a1,21748 <__eqtf2+0xc4>
   2172c:	00079a63          	bnez	a5,21740 <__eqtf2+0xbc>
   21730:	0068e533          	or	a0,a7,t1
   21734:	01c56533          	or	a0,a0,t3
   21738:	01056533          	or	a0,a0,a6
   2173c:	00a03533          	snez	a0,a0
   21740:	01010113          	addi	sp,sp,16
   21744:	00008067          	ret
   21748:	00000513          	li	a0,0
   2174c:	ff5ff06f          	j	21740 <__eqtf2+0xbc>

00021750 <__getf2>:
   21750:	00052f83          	lw	t6,0(a0)
   21754:	00452803          	lw	a6,4(a0)
   21758:	00852e03          	lw	t3,8(a0)
   2175c:	00c52503          	lw	a0,12(a0)
   21760:	00c5a603          	lw	a2,12(a1)
   21764:	000087b7          	lui	a5,0x8
   21768:	01055693          	srli	a3,a0,0x10
   2176c:	fff78793          	addi	a5,a5,-1 # 7fff <threadsense.2617+0x7fff>
   21770:	01061313          	slli	t1,a2,0x10
   21774:	01065713          	srli	a4,a2,0x10
   21778:	0005a283          	lw	t0,0(a1)
   2177c:	0045a883          	lw	a7,4(a1)
   21780:	0085ae83          	lw	t4,8(a1)
   21784:	00f6f6b3          	and	a3,a3,a5
   21788:	01051593          	slli	a1,a0,0x10
   2178c:	ff010113          	addi	sp,sp,-16
   21790:	0105d593          	srli	a1,a1,0x10
   21794:	01f55513          	srli	a0,a0,0x1f
   21798:	01035313          	srli	t1,t1,0x10
   2179c:	00f77733          	and	a4,a4,a5
   217a0:	01f65613          	srli	a2,a2,0x1f
   217a4:	00f69e63          	bne	a3,a5,217c0 <__getf2+0x70>
   217a8:	01f867b3          	or	a5,a6,t6
   217ac:	01c7e7b3          	or	a5,a5,t3
   217b0:	00b7e7b3          	or	a5,a5,a1
   217b4:	0c078863          	beqz	a5,21884 <__getf2+0x134>
   217b8:	ffe00513          	li	a0,-2
   217bc:	0600006f          	j	2181c <__getf2+0xcc>
   217c0:	00f71a63          	bne	a4,a5,217d4 <__getf2+0x84>
   217c4:	0058e7b3          	or	a5,a7,t0
   217c8:	01d7e7b3          	or	a5,a5,t4
   217cc:	0067e7b3          	or	a5,a5,t1
   217d0:	fe0794e3          	bnez	a5,217b8 <__getf2+0x68>
   217d4:	0a069a63          	bnez	a3,21888 <__getf2+0x138>
   217d8:	01f867b3          	or	a5,a6,t6
   217dc:	01c7e7b3          	or	a5,a5,t3
   217e0:	00b7e7b3          	or	a5,a5,a1
   217e4:	0017b793          	seqz	a5,a5
   217e8:	00071a63          	bnez	a4,217fc <__getf2+0xac>
   217ec:	0058ef33          	or	t5,a7,t0
   217f0:	01df6f33          	or	t5,t5,t4
   217f4:	006f6f33          	or	t5,t5,t1
   217f8:	060f0a63          	beqz	t5,2186c <__getf2+0x11c>
   217fc:	00079a63          	bnez	a5,21810 <__getf2+0xc0>
   21800:	02c50263          	beq	a0,a2,21824 <__getf2+0xd4>
   21804:	06050063          	beqz	a0,21864 <__getf2+0x114>
   21808:	fff00513          	li	a0,-1
   2180c:	0100006f          	j	2181c <__getf2+0xcc>
   21810:	fff00513          	li	a0,-1
   21814:	00060463          	beqz	a2,2181c <__getf2+0xcc>
   21818:	00060513          	mv	a0,a2
   2181c:	01010113          	addi	sp,sp,16
   21820:	00008067          	ret
   21824:	fed740e3          	blt	a4,a3,21804 <__getf2+0xb4>
   21828:	00e6d663          	bge	a3,a4,21834 <__getf2+0xe4>
   2182c:	fe0518e3          	bnez	a0,2181c <__getf2+0xcc>
   21830:	fd9ff06f          	j	21808 <__getf2+0xb8>
   21834:	fcb368e3          	bltu	t1,a1,21804 <__getf2+0xb4>
   21838:	02659e63          	bne	a1,t1,21874 <__getf2+0x124>
   2183c:	fdcee4e3          	bltu	t4,t3,21804 <__getf2+0xb4>
   21840:	03ce9e63          	bne	t4,t3,2187c <__getf2+0x12c>
   21844:	fd08e0e3          	bltu	a7,a6,21804 <__getf2+0xb4>
   21848:	01089463          	bne	a7,a6,21850 <__getf2+0x100>
   2184c:	fbf2ece3          	bltu	t0,t6,21804 <__getf2+0xb4>
   21850:	fd186ee3          	bltu	a6,a7,2182c <__getf2+0xdc>
   21854:	01089463          	bne	a7,a6,2185c <__getf2+0x10c>
   21858:	fc5feae3          	bltu	t6,t0,2182c <__getf2+0xdc>
   2185c:	00000513          	li	a0,0
   21860:	fbdff06f          	j	2181c <__getf2+0xcc>
   21864:	00100513          	li	a0,1
   21868:	fb5ff06f          	j	2181c <__getf2+0xcc>
   2186c:	fe0798e3          	bnez	a5,2185c <__getf2+0x10c>
   21870:	f95ff06f          	j	21804 <__getf2+0xb4>
   21874:	fa65ece3          	bltu	a1,t1,2182c <__getf2+0xdc>
   21878:	fe5ff06f          	j	2185c <__getf2+0x10c>
   2187c:	fbde68e3          	bltu	t3,t4,2182c <__getf2+0xdc>
   21880:	fddff06f          	j	2185c <__getf2+0x10c>
   21884:	f4d700e3          	beq	a4,a3,217c4 <__getf2+0x74>
   21888:	f6071ce3          	bnez	a4,21800 <__getf2+0xb0>
   2188c:	00000793          	li	a5,0
   21890:	f5dff06f          	j	217ec <__getf2+0x9c>

00021894 <__letf2>:
   21894:	00052f83          	lw	t6,0(a0)
   21898:	00452803          	lw	a6,4(a0)
   2189c:	00852e03          	lw	t3,8(a0)
   218a0:	00c52503          	lw	a0,12(a0)
   218a4:	00c5a603          	lw	a2,12(a1)
   218a8:	000087b7          	lui	a5,0x8
   218ac:	01055693          	srli	a3,a0,0x10
   218b0:	fff78793          	addi	a5,a5,-1 # 7fff <threadsense.2617+0x7fff>
   218b4:	01061313          	slli	t1,a2,0x10
   218b8:	01065713          	srli	a4,a2,0x10
   218bc:	0005a283          	lw	t0,0(a1)
   218c0:	0045a883          	lw	a7,4(a1)
   218c4:	0085ae83          	lw	t4,8(a1)
   218c8:	00f6f6b3          	and	a3,a3,a5
   218cc:	01051593          	slli	a1,a0,0x10
   218d0:	ff010113          	addi	sp,sp,-16
   218d4:	0105d593          	srli	a1,a1,0x10
   218d8:	01f55513          	srli	a0,a0,0x1f
   218dc:	01035313          	srli	t1,t1,0x10
   218e0:	00f77733          	and	a4,a4,a5
   218e4:	01f65613          	srli	a2,a2,0x1f
   218e8:	00f69e63          	bne	a3,a5,21904 <__letf2+0x70>
   218ec:	01f867b3          	or	a5,a6,t6
   218f0:	01c7e7b3          	or	a5,a5,t3
   218f4:	00b7e7b3          	or	a5,a5,a1
   218f8:	0c078863          	beqz	a5,219c8 <__letf2+0x134>
   218fc:	00200513          	li	a0,2
   21900:	0600006f          	j	21960 <__letf2+0xcc>
   21904:	00f71a63          	bne	a4,a5,21918 <__letf2+0x84>
   21908:	0058e7b3          	or	a5,a7,t0
   2190c:	01d7e7b3          	or	a5,a5,t4
   21910:	0067e7b3          	or	a5,a5,t1
   21914:	fe0794e3          	bnez	a5,218fc <__letf2+0x68>
   21918:	0a069a63          	bnez	a3,219cc <__letf2+0x138>
   2191c:	01f867b3          	or	a5,a6,t6
   21920:	01c7e7b3          	or	a5,a5,t3
   21924:	00b7e7b3          	or	a5,a5,a1
   21928:	0017b793          	seqz	a5,a5
   2192c:	00071a63          	bnez	a4,21940 <__letf2+0xac>
   21930:	0058ef33          	or	t5,a7,t0
   21934:	01df6f33          	or	t5,t5,t4
   21938:	006f6f33          	or	t5,t5,t1
   2193c:	060f0a63          	beqz	t5,219b0 <__letf2+0x11c>
   21940:	00079a63          	bnez	a5,21954 <__letf2+0xc0>
   21944:	02c50263          	beq	a0,a2,21968 <__letf2+0xd4>
   21948:	06050063          	beqz	a0,219a8 <__letf2+0x114>
   2194c:	fff00513          	li	a0,-1
   21950:	0100006f          	j	21960 <__letf2+0xcc>
   21954:	fff00513          	li	a0,-1
   21958:	00060463          	beqz	a2,21960 <__letf2+0xcc>
   2195c:	00060513          	mv	a0,a2
   21960:	01010113          	addi	sp,sp,16
   21964:	00008067          	ret
   21968:	fed740e3          	blt	a4,a3,21948 <__letf2+0xb4>
   2196c:	00e6d663          	bge	a3,a4,21978 <__letf2+0xe4>
   21970:	fe0518e3          	bnez	a0,21960 <__letf2+0xcc>
   21974:	fd9ff06f          	j	2194c <__letf2+0xb8>
   21978:	fcb368e3          	bltu	t1,a1,21948 <__letf2+0xb4>
   2197c:	02659e63          	bne	a1,t1,219b8 <__letf2+0x124>
   21980:	fdcee4e3          	bltu	t4,t3,21948 <__letf2+0xb4>
   21984:	03ce9e63          	bne	t4,t3,219c0 <__letf2+0x12c>
   21988:	fd08e0e3          	bltu	a7,a6,21948 <__letf2+0xb4>
   2198c:	01089463          	bne	a7,a6,21994 <__letf2+0x100>
   21990:	fbf2ece3          	bltu	t0,t6,21948 <__letf2+0xb4>
   21994:	fd186ee3          	bltu	a6,a7,21970 <__letf2+0xdc>
   21998:	01089463          	bne	a7,a6,219a0 <__letf2+0x10c>
   2199c:	fc5feae3          	bltu	t6,t0,21970 <__letf2+0xdc>
   219a0:	00000513          	li	a0,0
   219a4:	fbdff06f          	j	21960 <__letf2+0xcc>
   219a8:	00100513          	li	a0,1
   219ac:	fb5ff06f          	j	21960 <__letf2+0xcc>
   219b0:	fe0798e3          	bnez	a5,219a0 <__letf2+0x10c>
   219b4:	f95ff06f          	j	21948 <__letf2+0xb4>
   219b8:	fa65ece3          	bltu	a1,t1,21970 <__letf2+0xdc>
   219bc:	fe5ff06f          	j	219a0 <__letf2+0x10c>
   219c0:	fbde68e3          	bltu	t3,t4,21970 <__letf2+0xdc>
   219c4:	fddff06f          	j	219a0 <__letf2+0x10c>
   219c8:	f4d700e3          	beq	a4,a3,21908 <__letf2+0x74>
   219cc:	f6071ce3          	bnez	a4,21944 <__letf2+0xb0>
   219d0:	00000793          	li	a5,0
   219d4:	f5dff06f          	j	21930 <__letf2+0x9c>

000219d8 <__multf3>:
   219d8:	f4010113          	addi	sp,sp,-192
   219dc:	0b312623          	sw	s3,172(sp)
   219e0:	00c5a983          	lw	s3,12(a1)
   219e4:	0005a683          	lw	a3,0(a1)
   219e8:	0045a783          	lw	a5,4(a1)
   219ec:	00a12623          	sw	a0,12(sp)
   219f0:	0085a503          	lw	a0,8(a1)
   219f4:	01099713          	slli	a4,s3,0x10
   219f8:	0b212823          	sw	s2,176(sp)
   219fc:	0b412423          	sw	s4,168(sp)
   21a00:	0b512223          	sw	s5,164(sp)
   21a04:	0b612023          	sw	s6,160(sp)
   21a08:	00062a03          	lw	s4,0(a2) # 1000000 <__global_pointer$+0xfd7d30>
   21a0c:	00462b03          	lw	s6,4(a2)
   21a10:	00862a83          	lw	s5,8(a2)
   21a14:	00c62903          	lw	s2,12(a2)
   21a18:	00008637          	lui	a2,0x8
   21a1c:	0a912a23          	sw	s1,180(sp)
   21a20:	01075713          	srli	a4,a4,0x10
   21a24:	0109d493          	srli	s1,s3,0x10
   21a28:	fff60613          	addi	a2,a2,-1 # 7fff <threadsense.2617+0x7fff>
   21a2c:	07312623          	sw	s3,108(sp)
   21a30:	0a112e23          	sw	ra,188(sp)
   21a34:	0a812c23          	sw	s0,184(sp)
   21a38:	09712e23          	sw	s7,156(sp)
   21a3c:	09812c23          	sw	s8,152(sp)
   21a40:	09912a23          	sw	s9,148(sp)
   21a44:	09a12823          	sw	s10,144(sp)
   21a48:	09b12623          	sw	s11,140(sp)
   21a4c:	06d12023          	sw	a3,96(sp)
   21a50:	06f12223          	sw	a5,100(sp)
   21a54:	06a12423          	sw	a0,104(sp)
   21a58:	02d12823          	sw	a3,48(sp)
   21a5c:	02f12a23          	sw	a5,52(sp)
   21a60:	02a12c23          	sw	a0,56(sp)
   21a64:	02e12e23          	sw	a4,60(sp)
   21a68:	00c4f4b3          	and	s1,s1,a2
   21a6c:	01f9d993          	srli	s3,s3,0x1f
   21a70:	12048a63          	beqz	s1,21ba4 <__multf3+0x1cc>
   21a74:	24c48863          	beq	s1,a2,21cc4 <__multf3+0x2ec>
   21a78:	000107b7          	lui	a5,0x10
   21a7c:	00f767b3          	or	a5,a4,a5
   21a80:	02f12e23          	sw	a5,60(sp)
   21a84:	03010613          	addi	a2,sp,48
   21a88:	03c10793          	addi	a5,sp,60
   21a8c:	0007a703          	lw	a4,0(a5) # 10000 <_start>
   21a90:	ffc7a683          	lw	a3,-4(a5)
   21a94:	ffc78793          	addi	a5,a5,-4
   21a98:	00371713          	slli	a4,a4,0x3
   21a9c:	01d6d693          	srli	a3,a3,0x1d
   21aa0:	00d76733          	or	a4,a4,a3
   21aa4:	00e7a223          	sw	a4,4(a5)
   21aa8:	fef612e3          	bne	a2,a5,21a8c <__multf3+0xb4>
   21aac:	03012783          	lw	a5,48(sp)
   21ab0:	ffffc537          	lui	a0,0xffffc
   21ab4:	00150513          	addi	a0,a0,1 # ffffc001 <__global_pointer$+0xfffd3d31>
   21ab8:	00379793          	slli	a5,a5,0x3
   21abc:	02f12823          	sw	a5,48(sp)
   21ac0:	00a484b3          	add	s1,s1,a0
   21ac4:	00000b93          	li	s7,0
   21ac8:	01091513          	slli	a0,s2,0x10
   21acc:	00008737          	lui	a4,0x8
   21ad0:	01095793          	srli	a5,s2,0x10
   21ad4:	01055513          	srli	a0,a0,0x10
   21ad8:	fff70713          	addi	a4,a4,-1 # 7fff <threadsense.2617+0x7fff>
   21adc:	07212623          	sw	s2,108(sp)
   21ae0:	07412023          	sw	s4,96(sp)
   21ae4:	07612223          	sw	s6,100(sp)
   21ae8:	07512423          	sw	s5,104(sp)
   21aec:	05412023          	sw	s4,64(sp)
   21af0:	05612223          	sw	s6,68(sp)
   21af4:	05512423          	sw	s5,72(sp)
   21af8:	04a12623          	sw	a0,76(sp)
   21afc:	00e7f7b3          	and	a5,a5,a4
   21b00:	01f95913          	srli	s2,s2,0x1f
   21b04:	1e078463          	beqz	a5,21cec <__multf3+0x314>
   21b08:	30e78263          	beq	a5,a4,21e0c <__multf3+0x434>
   21b0c:	00010ab7          	lui	s5,0x10
   21b10:	01556ab3          	or	s5,a0,s5
   21b14:	05512623          	sw	s5,76(sp)
   21b18:	04010593          	addi	a1,sp,64
   21b1c:	04c10713          	addi	a4,sp,76
   21b20:	00072683          	lw	a3,0(a4)
   21b24:	ffc72603          	lw	a2,-4(a4)
   21b28:	ffc70713          	addi	a4,a4,-4
   21b2c:	00369693          	slli	a3,a3,0x3
   21b30:	01d65613          	srli	a2,a2,0x1d
   21b34:	00c6e6b3          	or	a3,a3,a2
   21b38:	00d72223          	sw	a3,4(a4)
   21b3c:	fee592e3          	bne	a1,a4,21b20 <__multf3+0x148>
   21b40:	04012703          	lw	a4,64(sp)
   21b44:	ffffc537          	lui	a0,0xffffc
   21b48:	00150513          	addi	a0,a0,1 # ffffc001 <__global_pointer$+0xfffd3d31>
   21b4c:	00371713          	slli	a4,a4,0x3
   21b50:	04e12023          	sw	a4,64(sp)
   21b54:	00a787b3          	add	a5,a5,a0
   21b58:	00000713          	li	a4,0
   21b5c:	00f487b3          	add	a5,s1,a5
   21b60:	02f12023          	sw	a5,32(sp)
   21b64:	00178793          	addi	a5,a5,1
   21b68:	00f12e23          	sw	a5,28(sp)
   21b6c:	002b9793          	slli	a5,s7,0x2
   21b70:	0129c6b3          	xor	a3,s3,s2
   21b74:	00e7e7b3          	or	a5,a5,a4
   21b78:	00d12823          	sw	a3,16(sp)
   21b7c:	fff78793          	addi	a5,a5,-1
   21b80:	00e00693          	li	a3,14
   21b84:	2af6e863          	bltu	a3,a5,21e34 <__multf3+0x45c>
   21b88:	00004697          	auipc	a3,0x4
   21b8c:	91c68693          	addi	a3,a3,-1764 # 254a4 <zeroes.4467+0x4c>
   21b90:	00279793          	slli	a5,a5,0x2
   21b94:	00d787b3          	add	a5,a5,a3
   21b98:	0007a783          	lw	a5,0(a5)
   21b9c:	00d787b3          	add	a5,a5,a3
   21ba0:	00078067          	jr	a5
   21ba4:	00d7e633          	or	a2,a5,a3
   21ba8:	00a66633          	or	a2,a2,a0
   21bac:	00e66633          	or	a2,a2,a4
   21bb0:	12060863          	beqz	a2,21ce0 <__multf3+0x308>
   21bb4:	06070063          	beqz	a4,21c14 <__multf3+0x23c>
   21bb8:	00070513          	mv	a0,a4
   21bbc:	821ef0ef          	jal	ra,113dc <__clzsi2>
   21bc0:	ff450693          	addi	a3,a0,-12
   21bc4:	4056d793          	srai	a5,a3,0x5
   21bc8:	01f6f693          	andi	a3,a3,31
   21bcc:	06068e63          	beqz	a3,21c48 <__multf3+0x270>
   21bd0:	ffc00713          	li	a4,-4
   21bd4:	02e78733          	mul	a4,a5,a4
   21bd8:	03010313          	addi	t1,sp,48
   21bdc:	02000813          	li	a6,32
   21be0:	00279593          	slli	a1,a5,0x2
   21be4:	40d80833          	sub	a6,a6,a3
   21be8:	00c70713          	addi	a4,a4,12
   21bec:	00e30733          	add	a4,t1,a4
   21bf0:	08e31463          	bne	t1,a4,21c78 <__multf3+0x2a0>
   21bf4:	08010713          	addi	a4,sp,128
   21bf8:	00b705b3          	add	a1,a4,a1
   21bfc:	03012703          	lw	a4,48(sp)
   21c00:	fff78793          	addi	a5,a5,-1
   21c04:	00d716b3          	sll	a3,a4,a3
   21c08:	fad5a823          	sw	a3,-80(a1)
   21c0c:	fff00693          	li	a3,-1
   21c10:	0a00006f          	j	21cb0 <__multf3+0x2d8>
   21c14:	00050863          	beqz	a0,21c24 <__multf3+0x24c>
   21c18:	fc4ef0ef          	jal	ra,113dc <__clzsi2>
   21c1c:	02050513          	addi	a0,a0,32
   21c20:	fa1ff06f          	j	21bc0 <__multf3+0x1e8>
   21c24:	00078a63          	beqz	a5,21c38 <__multf3+0x260>
   21c28:	00078513          	mv	a0,a5
   21c2c:	fb0ef0ef          	jal	ra,113dc <__clzsi2>
   21c30:	04050513          	addi	a0,a0,64
   21c34:	f8dff06f          	j	21bc0 <__multf3+0x1e8>
   21c38:	00068513          	mv	a0,a3
   21c3c:	fa0ef0ef          	jal	ra,113dc <__clzsi2>
   21c40:	06050513          	addi	a0,a0,96
   21c44:	f7dff06f          	j	21bc0 <__multf3+0x1e8>
   21c48:	ffc00613          	li	a2,-4
   21c4c:	02c78633          	mul	a2,a5,a2
   21c50:	03c10713          	addi	a4,sp,60
   21c54:	00300693          	li	a3,3
   21c58:	00c705b3          	add	a1,a4,a2
   21c5c:	0005a583          	lw	a1,0(a1)
   21c60:	fff68693          	addi	a3,a3,-1
   21c64:	ffc70713          	addi	a4,a4,-4
   21c68:	00b72223          	sw	a1,4(a4)
   21c6c:	fef6d6e3          	bge	a3,a5,21c58 <__multf3+0x280>
   21c70:	fff78793          	addi	a5,a5,-1
   21c74:	f99ff06f          	j	21c0c <__multf3+0x234>
   21c78:	ffc72603          	lw	a2,-4(a4)
   21c7c:	00072883          	lw	a7,0(a4)
   21c80:	00b70e33          	add	t3,a4,a1
   21c84:	01065633          	srl	a2,a2,a6
   21c88:	00d898b3          	sll	a7,a7,a3
   21c8c:	01166633          	or	a2,a2,a7
   21c90:	00ce2023          	sw	a2,0(t3)
   21c94:	ffc70713          	addi	a4,a4,-4
   21c98:	f59ff06f          	j	21bf0 <__multf3+0x218>
   21c9c:	00279713          	slli	a4,a5,0x2
   21ca0:	03010613          	addi	a2,sp,48
   21ca4:	00e60733          	add	a4,a2,a4
   21ca8:	00072023          	sw	zero,0(a4)
   21cac:	fff78793          	addi	a5,a5,-1
   21cb0:	fed796e3          	bne	a5,a3,21c9c <__multf3+0x2c4>
   21cb4:	ffffc4b7          	lui	s1,0xffffc
   21cb8:	01148493          	addi	s1,s1,17 # ffffc011 <__global_pointer$+0xfffd3d41>
   21cbc:	40a484b3          	sub	s1,s1,a0
   21cc0:	e05ff06f          	j	21ac4 <__multf3+0xec>
   21cc4:	00d7e7b3          	or	a5,a5,a3
   21cc8:	00a7e7b3          	or	a5,a5,a0
   21ccc:	00e7e7b3          	or	a5,a5,a4
   21cd0:	00300b93          	li	s7,3
   21cd4:	de079ae3          	bnez	a5,21ac8 <__multf3+0xf0>
   21cd8:	00200b93          	li	s7,2
   21cdc:	dedff06f          	j	21ac8 <__multf3+0xf0>
   21ce0:	00000493          	li	s1,0
   21ce4:	00100b93          	li	s7,1
   21ce8:	de1ff06f          	j	21ac8 <__multf3+0xf0>
   21cec:	016a67b3          	or	a5,s4,s6
   21cf0:	0157e7b3          	or	a5,a5,s5
   21cf4:	00a7e7b3          	or	a5,a5,a0
   21cf8:	12078863          	beqz	a5,21e28 <__multf3+0x450>
   21cfc:	04050e63          	beqz	a0,21d58 <__multf3+0x380>
   21d00:	edcef0ef          	jal	ra,113dc <__clzsi2>
   21d04:	ff450613          	addi	a2,a0,-12
   21d08:	40565713          	srai	a4,a2,0x5
   21d0c:	01f67613          	andi	a2,a2,31
   21d10:	08060063          	beqz	a2,21d90 <__multf3+0x3b8>
   21d14:	ffc00693          	li	a3,-4
   21d18:	02d706b3          	mul	a3,a4,a3
   21d1c:	04010313          	addi	t1,sp,64
   21d20:	02000793          	li	a5,32
   21d24:	00271813          	slli	a6,a4,0x2
   21d28:	40c787b3          	sub	a5,a5,a2
   21d2c:	00c68693          	addi	a3,a3,12
   21d30:	00d306b3          	add	a3,t1,a3
   21d34:	08d31663          	bne	t1,a3,21dc0 <__multf3+0x3e8>
   21d38:	08010793          	addi	a5,sp,128
   21d3c:	01078833          	add	a6,a5,a6
   21d40:	04012783          	lw	a5,64(sp)
   21d44:	fff70713          	addi	a4,a4,-1
   21d48:	00c79633          	sll	a2,a5,a2
   21d4c:	fcc82023          	sw	a2,-64(a6)
   21d50:	fff00693          	li	a3,-1
   21d54:	0a40006f          	j	21df8 <__multf3+0x420>
   21d58:	000a8a63          	beqz	s5,21d6c <__multf3+0x394>
   21d5c:	000a8513          	mv	a0,s5
   21d60:	e7cef0ef          	jal	ra,113dc <__clzsi2>
   21d64:	02050513          	addi	a0,a0,32
   21d68:	f9dff06f          	j	21d04 <__multf3+0x32c>
   21d6c:	000b0a63          	beqz	s6,21d80 <__multf3+0x3a8>
   21d70:	000b0513          	mv	a0,s6
   21d74:	e68ef0ef          	jal	ra,113dc <__clzsi2>
   21d78:	04050513          	addi	a0,a0,64
   21d7c:	f89ff06f          	j	21d04 <__multf3+0x32c>
   21d80:	000a0513          	mv	a0,s4
   21d84:	e58ef0ef          	jal	ra,113dc <__clzsi2>
   21d88:	06050513          	addi	a0,a0,96
   21d8c:	f79ff06f          	j	21d04 <__multf3+0x32c>
   21d90:	ffc00613          	li	a2,-4
   21d94:	02c70633          	mul	a2,a4,a2
   21d98:	04c10693          	addi	a3,sp,76
   21d9c:	00300793          	li	a5,3
   21da0:	00c685b3          	add	a1,a3,a2
   21da4:	0005a583          	lw	a1,0(a1)
   21da8:	fff78793          	addi	a5,a5,-1
   21dac:	ffc68693          	addi	a3,a3,-4
   21db0:	00b6a223          	sw	a1,4(a3)
   21db4:	fee7d6e3          	bge	a5,a4,21da0 <__multf3+0x3c8>
   21db8:	fff70713          	addi	a4,a4,-1
   21dbc:	f95ff06f          	j	21d50 <__multf3+0x378>
   21dc0:	ffc6a583          	lw	a1,-4(a3)
   21dc4:	0006a883          	lw	a7,0(a3)
   21dc8:	01068e33          	add	t3,a3,a6
   21dcc:	00f5d5b3          	srl	a1,a1,a5
   21dd0:	00c898b3          	sll	a7,a7,a2
   21dd4:	0115e5b3          	or	a1,a1,a7
   21dd8:	00be2023          	sw	a1,0(t3)
   21ddc:	ffc68693          	addi	a3,a3,-4
   21de0:	f55ff06f          	j	21d34 <__multf3+0x35c>
   21de4:	00271793          	slli	a5,a4,0x2
   21de8:	04010613          	addi	a2,sp,64
   21dec:	00f607b3          	add	a5,a2,a5
   21df0:	0007a023          	sw	zero,0(a5)
   21df4:	fff70713          	addi	a4,a4,-1
   21df8:	fed716e3          	bne	a4,a3,21de4 <__multf3+0x40c>
   21dfc:	ffffc7b7          	lui	a5,0xffffc
   21e00:	01178793          	addi	a5,a5,17 # ffffc011 <__global_pointer$+0xfffd3d41>
   21e04:	40a787b3          	sub	a5,a5,a0
   21e08:	d51ff06f          	j	21b58 <__multf3+0x180>
   21e0c:	016a6a33          	or	s4,s4,s6
   21e10:	015a6ab3          	or	s5,s4,s5
   21e14:	00aaeab3          	or	s5,s5,a0
   21e18:	00300713          	li	a4,3
   21e1c:	d40a90e3          	bnez	s5,21b5c <__multf3+0x184>
   21e20:	00200713          	li	a4,2
   21e24:	d39ff06f          	j	21b5c <__multf3+0x184>
   21e28:	00000793          	li	a5,0
   21e2c:	00100713          	li	a4,1
   21e30:	d2dff06f          	j	21b5c <__multf3+0x184>
   21e34:	03012703          	lw	a4,48(sp)
   21e38:	04012e03          	lw	t3,64(sp)
   21e3c:	00010537          	lui	a0,0x10
   21e40:	fff50693          	addi	a3,a0,-1 # ffff <threadsense.2617+0xffff>
   21e44:	01075f93          	srli	t6,a4,0x10
   21e48:	010e5a93          	srli	s5,t3,0x10
   21e4c:	00d77733          	and	a4,a4,a3
   21e50:	00de7e33          	and	t3,t3,a3
   21e54:	02ea87b3          	mul	a5,s5,a4
   21e58:	02ee0633          	mul	a2,t3,a4
   21e5c:	03cf8833          	mul	a6,t6,t3
   21e60:	010785b3          	add	a1,a5,a6
   21e64:	01065793          	srli	a5,a2,0x10
   21e68:	00b787b3          	add	a5,a5,a1
   21e6c:	035f8b33          	mul	s6,t6,s5
   21e70:	0107f463          	bgeu	a5,a6,21e78 <__multf3+0x4a0>
   21e74:	00ab0b33          	add	s6,s6,a0
   21e78:	04412f03          	lw	t5,68(sp)
   21e7c:	0107d293          	srli	t0,a5,0x10
   21e80:	00d7f7b3          	and	a5,a5,a3
   21e84:	00d67633          	and	a2,a2,a3
   21e88:	01079793          	slli	a5,a5,0x10
   21e8c:	00c787b3          	add	a5,a5,a2
   21e90:	010f5493          	srli	s1,t5,0x10
   21e94:	00df7f33          	and	t5,t5,a3
   21e98:	02f12223          	sw	a5,36(sp)
   21e9c:	06f12023          	sw	a5,96(sp)
   21ea0:	02ef06b3          	mul	a3,t5,a4
   21ea4:	02e487b3          	mul	a5,s1,a4
   21ea8:	03ef8633          	mul	a2,t6,t5
   21eac:	00c78533          	add	a0,a5,a2
   21eb0:	0106d793          	srli	a5,a3,0x10
   21eb4:	00a787b3          	add	a5,a5,a0
   21eb8:	029f8a33          	mul	s4,t6,s1
   21ebc:	00c7f663          	bgeu	a5,a2,21ec8 <__multf3+0x4f0>
   21ec0:	00010637          	lui	a2,0x10
   21ec4:	00ca0a33          	add	s4,s4,a2
   21ec8:	00010637          	lui	a2,0x10
   21ecc:	fff60593          	addi	a1,a2,-1 # ffff <threadsense.2617+0xffff>
   21ed0:	00b7f533          	and	a0,a5,a1
   21ed4:	0107dd93          	srli	s11,a5,0x10
   21ed8:	03412783          	lw	a5,52(sp)
   21edc:	00b6f6b3          	and	a3,a3,a1
   21ee0:	01051513          	slli	a0,a0,0x10
   21ee4:	0107d913          	srli	s2,a5,0x10
   21ee8:	00b7f5b3          	and	a1,a5,a1
   21eec:	00d50533          	add	a0,a0,a3
   21ef0:	02ba87b3          	mul	a5,s5,a1
   21ef4:	00a282b3          	add	t0,t0,a0
   21ef8:	02be06b3          	mul	a3,t3,a1
   21efc:	03c90333          	mul	t1,s2,t3
   21f00:	00678833          	add	a6,a5,t1
   21f04:	0106d793          	srli	a5,a3,0x10
   21f08:	010787b3          	add	a5,a5,a6
   21f0c:	032a88b3          	mul	a7,s5,s2
   21f10:	0067f463          	bgeu	a5,t1,21f18 <__multf3+0x540>
   21f14:	00c888b3          	add	a7,a7,a2
   21f18:	0107d993          	srli	s3,a5,0x10
   21f1c:	011989b3          	add	s3,s3,a7
   21f20:	000108b7          	lui	a7,0x10
   21f24:	fff88613          	addi	a2,a7,-1 # ffff <threadsense.2617+0xffff>
   21f28:	00c7f833          	and	a6,a5,a2
   21f2c:	01081813          	slli	a6,a6,0x10
   21f30:	00c6f7b3          	and	a5,a3,a2
   21f34:	00f80833          	add	a6,a6,a5
   21f38:	03e58633          	mul	a2,a1,t5
   21f3c:	03e907b3          	mul	a5,s2,t5
   21f40:	01065e93          	srli	t4,a2,0x10
   21f44:	02b486b3          	mul	a3,s1,a1
   21f48:	00f686b3          	add	a3,a3,a5
   21f4c:	00de86b3          	add	a3,t4,a3
   21f50:	03248333          	mul	t1,s1,s2
   21f54:	00f6f463          	bgeu	a3,a5,21f5c <__multf3+0x584>
   21f58:	01130333          	add	t1,t1,a7
   21f5c:	0106d793          	srli	a5,a3,0x10
   21f60:	04812e83          	lw	t4,72(sp)
   21f64:	006787b3          	add	a5,a5,t1
   21f68:	000103b7          	lui	t2,0x10
   21f6c:	02f12423          	sw	a5,40(sp)
   21f70:	fff38793          	addi	a5,t2,-1 # ffff <threadsense.2617+0xffff>
   21f74:	010ed413          	srli	s0,t4,0x10
   21f78:	00fefeb3          	and	t4,t4,a5
   21f7c:	02e408b3          	mul	a7,s0,a4
   21f80:	00f67633          	and	a2,a2,a5
   21f84:	00f6f6b3          	and	a3,a3,a5
   21f88:	01069693          	slli	a3,a3,0x10
   21f8c:	00c686b3          	add	a3,a3,a2
   21f90:	02ee8333          	mul	t1,t4,a4
   21f94:	03df8bb3          	mul	s7,t6,t4
   21f98:	017887b3          	add	a5,a7,s7
   21f9c:	01035893          	srli	a7,t1,0x10
   21fa0:	00f888b3          	add	a7,a7,a5
   21fa4:	028f8633          	mul	a2,t6,s0
   21fa8:	0178f463          	bgeu	a7,s7,21fb0 <__multf3+0x5d8>
   21fac:	00760633          	add	a2,a2,t2
   21fb0:	0108d793          	srli	a5,a7,0x10
   21fb4:	00010c37          	lui	s8,0x10
   21fb8:	00c787b3          	add	a5,a5,a2
   21fbc:	fffc0613          	addi	a2,s8,-1 # ffff <threadsense.2617+0xffff>
   21fc0:	02f12623          	sw	a5,44(sp)
   21fc4:	00c8f7b3          	and	a5,a7,a2
   21fc8:	03812883          	lw	a7,56(sp)
   21fcc:	00c37333          	and	t1,t1,a2
   21fd0:	01079793          	slli	a5,a5,0x10
   21fd4:	0108d393          	srli	t2,a7,0x10
   21fd8:	00c8f633          	and	a2,a7,a2
   21fdc:	006787b3          	add	a5,a5,t1
   21fe0:	03c608b3          	mul	a7,a2,t3
   21fe4:	03c38cb3          	mul	s9,t2,t3
   21fe8:	0108dd13          	srli	s10,a7,0x10
   21fec:	02ca8333          	mul	t1,s5,a2
   21ff0:	01930333          	add	t1,t1,s9
   21ff4:	006d0333          	add	t1,s10,t1
   21ff8:	027a8bb3          	mul	s7,s5,t2
   21ffc:	01937463          	bgeu	t1,s9,22004 <__multf3+0x62c>
   22000:	018b8bb3          	add	s7,s7,s8
   22004:	01035c13          	srli	s8,t1,0x10
   22008:	017c0bb3          	add	s7,s8,s7
   2200c:	00010c37          	lui	s8,0x10
   22010:	005b02b3          	add	t0,s6,t0
   22014:	fffc0c93          	addi	s9,s8,-1 # ffff <threadsense.2617+0xffff>
   22018:	00a2b533          	sltu	a0,t0,a0
   2201c:	01937333          	and	t1,t1,s9
   22020:	00ad8db3          	add	s11,s11,a0
   22024:	01031313          	slli	t1,t1,0x10
   22028:	0198f8b3          	and	a7,a7,s9
   2202c:	014d8a33          	add	s4,s11,s4
   22030:	011308b3          	add	a7,t1,a7
   22034:	01028333          	add	t1,t0,a6
   22038:	01033833          	sltu	a6,t1,a6
   2203c:	00612a23          	sw	t1,20(sp)
   22040:	06612223          	sw	t1,100(sp)
   22044:	013a0333          	add	t1,s4,s3
   22048:	01030b33          	add	s6,t1,a6
   2204c:	013339b3          	sltu	s3,t1,s3
   22050:	010b3833          	sltu	a6,s6,a6
   22054:	0109e833          	or	a6,s3,a6
   22058:	00aa3533          	sltu	a0,s4,a0
   2205c:	00a80533          	add	a0,a6,a0
   22060:	02812803          	lw	a6,40(sp)
   22064:	00db02b3          	add	t0,s6,a3
   22068:	02812983          	lw	s3,40(sp)
   2206c:	00d2b6b3          	sltu	a3,t0,a3
   22070:	01050533          	add	a0,a0,a6
   22074:	02c12303          	lw	t1,44(sp)
   22078:	00d50833          	add	a6,a0,a3
   2207c:	00f282b3          	add	t0,t0,a5
   22080:	01353533          	sltu	a0,a0,s3
   22084:	00d836b3          	sltu	a3,a6,a3
   22088:	00f2b7b3          	sltu	a5,t0,a5
   2208c:	00680db3          	add	s11,a6,t1
   22090:	00d566b3          	or	a3,a0,a3
   22094:	02c12503          	lw	a0,44(sp)
   22098:	00fd8333          	add	t1,s11,a5
   2209c:	011282b3          	add	t0,t0,a7
   220a0:	0112b8b3          	sltu	a7,t0,a7
   220a4:	00f337b3          	sltu	a5,t1,a5
   220a8:	00512c23          	sw	t0,24(sp)
   220ac:	06512423          	sw	t0,104(sp)
   220b0:	017302b3          	add	t0,t1,s7
   220b4:	04c12303          	lw	t1,76(sp)
   220b8:	01128d33          	add	s10,t0,a7
   220bc:	00adbdb3          	sltu	s11,s11,a0
   220c0:	00fde7b3          	or	a5,s11,a5
   220c4:	0172bbb3          	sltu	s7,t0,s7
   220c8:	011d38b3          	sltu	a7,s10,a7
   220cc:	00f686b3          	add	a3,a3,a5
   220d0:	01035293          	srli	t0,t1,0x10
   220d4:	011bea33          	or	s4,s7,a7
   220d8:	01937333          	and	t1,t1,s9
   220dc:	02e307b3          	mul	a5,t1,a4
   220e0:	01468a33          	add	s4,a3,s4
   220e4:	02e28733          	mul	a4,t0,a4
   220e8:	0107d893          	srli	a7,a5,0x10
   220ec:	026f86b3          	mul	a3,t6,t1
   220f0:	00d70733          	add	a4,a4,a3
   220f4:	00e888b3          	add	a7,a7,a4
   220f8:	025f8fb3          	mul	t6,t6,t0
   220fc:	00d8f463          	bgeu	a7,a3,22104 <__multf3+0x72c>
   22100:	018f8fb3          	add	t6,t6,s8
   22104:	03c12983          	lw	s3,60(sp)
   22108:	000106b7          	lui	a3,0x10
   2210c:	fff68513          	addi	a0,a3,-1 # ffff <threadsense.2617+0xffff>
   22110:	0108d713          	srli	a4,a7,0x10
   22114:	00a8f8b3          	and	a7,a7,a0
   22118:	01f70733          	add	a4,a4,t6
   2211c:	00a7f7b3          	and	a5,a5,a0
   22120:	0109df93          	srli	t6,s3,0x10
   22124:	01089893          	slli	a7,a7,0x10
   22128:	00a9f9b3          	and	s3,s3,a0
   2212c:	00f888b3          	add	a7,a7,a5
   22130:	03fa8b33          	mul	s6,s5,t6
   22134:	00070d93          	mv	s11,a4
   22138:	033e07b3          	mul	a5,t3,s3
   2213c:	033a8ab3          	mul	s5,s5,s3
   22140:	0107d813          	srli	a6,a5,0x10
   22144:	03cf8e33          	mul	t3,t6,t3
   22148:	01ca8ab3          	add	s5,s5,t3
   2214c:	01580ab3          	add	s5,a6,s5
   22150:	01caf463          	bgeu	s5,t3,22158 <__multf3+0x780>
   22154:	00db0b33          	add	s6,s6,a3
   22158:	010ad813          	srli	a6,s5,0x10
   2215c:	01680733          	add	a4,a6,s6
   22160:	00010b37          	lui	s6,0x10
   22164:	02e12423          	sw	a4,40(sp)
   22168:	fffb0713          	addi	a4,s6,-1 # ffff <threadsense.2617+0xffff>
   2216c:	00eaf833          	and	a6,s5,a4
   22170:	00e7f7b3          	and	a5,a5,a4
   22174:	01081813          	slli	a6,a6,0x10
   22178:	00f80833          	add	a6,a6,a5
   2217c:	02be86b3          	mul	a3,t4,a1
   22180:	03d90e33          	mul	t3,s2,t4
   22184:	0106d513          	srli	a0,a3,0x10
   22188:	02b407b3          	mul	a5,s0,a1
   2218c:	01c787b3          	add	a5,a5,t3
   22190:	00f507b3          	add	a5,a0,a5
   22194:	02890733          	mul	a4,s2,s0
   22198:	01c7f463          	bgeu	a5,t3,221a0 <__multf3+0x7c8>
   2219c:	01670733          	add	a4,a4,s6
   221a0:	0107d513          	srli	a0,a5,0x10
   221a4:	00e50733          	add	a4,a0,a4
   221a8:	00010b37          	lui	s6,0x10
   221ac:	02e12623          	sw	a4,44(sp)
   221b0:	fffb0713          	addi	a4,s6,-1 # ffff <threadsense.2617+0xffff>
   221b4:	00e7f533          	and	a0,a5,a4
   221b8:	00e6f6b3          	and	a3,a3,a4
   221bc:	03e38e33          	mul	t3,t2,t5
   221c0:	01051513          	slli	a0,a0,0x10
   221c4:	00d50533          	add	a0,a0,a3
   221c8:	03e60733          	mul	a4,a2,t5
   221cc:	02c487b3          	mul	a5,s1,a2
   221d0:	01075693          	srli	a3,a4,0x10
   221d4:	01c787b3          	add	a5,a5,t3
   221d8:	00f687b3          	add	a5,a3,a5
   221dc:	02748ab3          	mul	s5,s1,t2
   221e0:	01c7f463          	bgeu	a5,t3,221e8 <__multf3+0x810>
   221e4:	016a8ab3          	add	s5,s5,s6
   221e8:	000106b7          	lui	a3,0x10
   221ec:	fff68e13          	addi	t3,a3,-1 # ffff <threadsense.2617+0xffff>
   221f0:	01c7f6b3          	and	a3,a5,t3
   221f4:	0107db93          	srli	s7,a5,0x10
   221f8:	011d07b3          	add	a5,s10,a7
   221fc:	01c77733          	and	a4,a4,t3
   22200:	0117b8b3          	sltu	a7,a5,a7
   22204:	01ba0a33          	add	s4,s4,s11
   22208:	01069693          	slli	a3,a3,0x10
   2220c:	00e686b3          	add	a3,a3,a4
   22210:	011a0d33          	add	s10,s4,a7
   22214:	02812703          	lw	a4,40(sp)
   22218:	011d38b3          	sltu	a7,s10,a7
   2221c:	01ba3a33          	sltu	s4,s4,s11
   22220:	010787b3          	add	a5,a5,a6
   22224:	011a6a33          	or	s4,s4,a7
   22228:	02812883          	lw	a7,40(sp)
   2222c:	0107b833          	sltu	a6,a5,a6
   22230:	00ed0b33          	add	s6,s10,a4
   22234:	02c12703          	lw	a4,44(sp)
   22238:	010b0cb3          	add	s9,s6,a6
   2223c:	00a787b3          	add	a5,a5,a0
   22240:	011b3b33          	sltu	s6,s6,a7
   22244:	010cb833          	sltu	a6,s9,a6
   22248:	00a7b533          	sltu	a0,a5,a0
   2224c:	00ec8733          	add	a4,s9,a4
   22250:	010b6b33          	or	s6,s6,a6
   22254:	02c12803          	lw	a6,44(sp)
   22258:	00a70c33          	add	s8,a4,a0
   2225c:	015b8bb3          	add	s7,s7,s5
   22260:	00d787b3          	add	a5,a5,a3
   22264:	00d7b6b3          	sltu	a3,a5,a3
   22268:	017c0ab3          	add	s5,s8,s7
   2226c:	00da8e33          	add	t3,s5,a3
   22270:	01073733          	sltu	a4,a4,a6
   22274:	00ac3533          	sltu	a0,s8,a0
   22278:	00a76733          	or	a4,a4,a0
   2227c:	00de36b3          	sltu	a3,t3,a3
   22280:	016a0a33          	add	s4,s4,s6
   22284:	017abab3          	sltu	s5,s5,s7
   22288:	00ea0a33          	add	s4,s4,a4
   2228c:	00daeab3          	or	s5,s5,a3
   22290:	015a06b3          	add	a3,s4,s5
   22294:	02ce8833          	mul	a6,t4,a2
   22298:	06f12623          	sw	a5,108(sp)
   2229c:	03d38a33          	mul	s4,t2,t4
   222a0:	01085513          	srli	a0,a6,0x10
   222a4:	02c40733          	mul	a4,s0,a2
   222a8:	01470733          	add	a4,a4,s4
   222ac:	00e50733          	add	a4,a0,a4
   222b0:	027408b3          	mul	a7,s0,t2
   222b4:	01477663          	bgeu	a4,s4,222c0 <__multf3+0x8e8>
   222b8:	00010537          	lui	a0,0x10
   222bc:	00a888b3          	add	a7,a7,a0
   222c0:	00010a37          	lui	s4,0x10
   222c4:	01075513          	srli	a0,a4,0x10
   222c8:	fffa0a93          	addi	s5,s4,-1 # ffff <threadsense.2617+0xffff>
   222cc:	011508b3          	add	a7,a0,a7
   222d0:	01577533          	and	a0,a4,s5
   222d4:	01587833          	and	a6,a6,s5
   222d8:	01051513          	slli	a0,a0,0x10
   222dc:	02690ab3          	mul	s5,s2,t1
   222e0:	01050533          	add	a0,a0,a6
   222e4:	02b30833          	mul	a6,t1,a1
   222e8:	02b285b3          	mul	a1,t0,a1
   222ec:	01085713          	srli	a4,a6,0x10
   222f0:	015585b3          	add	a1,a1,s5
   222f4:	00b70733          	add	a4,a4,a1
   222f8:	02590933          	mul	s2,s2,t0
   222fc:	01577463          	bgeu	a4,s5,22304 <__multf3+0x92c>
   22300:	01490933          	add	s2,s2,s4
   22304:	00010ab7          	lui	s5,0x10
   22308:	01075593          	srli	a1,a4,0x10
   2230c:	fffa8a13          	addi	s4,s5,-1 # ffff <threadsense.2617+0xffff>
   22310:	01487833          	and	a6,a6,s4
   22314:	01258933          	add	s2,a1,s2
   22318:	014775b3          	and	a1,a4,s4
   2231c:	01059593          	slli	a1,a1,0x10
   22320:	03e98733          	mul	a4,s3,t5
   22324:	010585b3          	add	a1,a1,a6
   22328:	03ef8f33          	mul	t5,t6,t5
   2232c:	01075813          	srli	a6,a4,0x10
   22330:	03f48a33          	mul	s4,s1,t6
   22334:	033484b3          	mul	s1,s1,s3
   22338:	01e484b3          	add	s1,s1,t5
   2233c:	009804b3          	add	s1,a6,s1
   22340:	01e4f463          	bgeu	s1,t5,22348 <__multf3+0x970>
   22344:	015a0a33          	add	s4,s4,s5
   22348:	0104db13          	srli	s6,s1,0x10
   2234c:	014b0b33          	add	s6,s6,s4
   22350:	00010a37          	lui	s4,0x10
   22354:	fffa0f13          	addi	t5,s4,-1 # ffff <threadsense.2617+0xffff>
   22358:	01e4f833          	and	a6,s1,t5
   2235c:	01e77733          	and	a4,a4,t5
   22360:	026384b3          	mul	s1,t2,t1
   22364:	01081813          	slli	a6,a6,0x10
   22368:	00e80833          	add	a6,a6,a4
   2236c:	02660f33          	mul	t5,a2,t1
   22370:	02c28633          	mul	a2,t0,a2
   22374:	010f5713          	srli	a4,t5,0x10
   22378:	00960633          	add	a2,a2,s1
   2237c:	00c70633          	add	a2,a4,a2
   22380:	025383b3          	mul	t2,t2,t0
   22384:	00967463          	bgeu	a2,s1,2238c <__multf3+0x9b4>
   22388:	014383b3          	add	t2,t2,s4
   2238c:	00010a37          	lui	s4,0x10
   22390:	01065713          	srli	a4,a2,0x10
   22394:	fffa0493          	addi	s1,s4,-1 # ffff <threadsense.2617+0xffff>
   22398:	007703b3          	add	t2,a4,t2
   2239c:	00967733          	and	a4,a2,s1
   223a0:	009f7f33          	and	t5,t5,s1
   223a4:	01071713          	slli	a4,a4,0x10
   223a8:	01e70733          	add	a4,a4,t5
   223ac:	03340633          	mul	a2,s0,s3
   223b0:	033e8f33          	mul	t5,t4,s3
   223b4:	03df8eb3          	mul	t4,t6,t4
   223b8:	010f5a93          	srli	s5,t5,0x10
   223bc:	01d60633          	add	a2,a2,t4
   223c0:	00ca8633          	add	a2,s5,a2
   223c4:	03f404b3          	mul	s1,s0,t6
   223c8:	01d67463          	bgeu	a2,t4,223d0 <__multf3+0x9f8>
   223cc:	014484b3          	add	s1,s1,s4
   223d0:	01065c13          	srli	s8,a2,0x10
   223d4:	00010cb7          	lui	s9,0x10
   223d8:	009c0c33          	add	s8,s8,s1
   223dc:	00ae0e33          	add	t3,t3,a0
   223e0:	fffc8493          	addi	s1,s9,-1 # ffff <threadsense.2617+0xffff>
   223e4:	00ae3533          	sltu	a0,t3,a0
   223e8:	011686b3          	add	a3,a3,a7
   223ec:	00967633          	and	a2,a2,s1
   223f0:	00a68db3          	add	s11,a3,a0
   223f4:	009f7f33          	and	t5,t5,s1
   223f8:	00be0e33          	add	t3,t3,a1
   223fc:	01061613          	slli	a2,a2,0x10
   22400:	01e60633          	add	a2,a2,t5
   22404:	00be35b3          	sltu	a1,t3,a1
   22408:	012d8f33          	add	t5,s11,s2
   2240c:	010e0e33          	add	t3,t3,a6
   22410:	00bf0d33          	add	s10,t5,a1
   22414:	016d0eb3          	add	t4,s10,s6
   22418:	07c12823          	sw	t3,112(sp)
   2241c:	010e3e33          	sltu	t3,t3,a6
   22420:	01ce8a33          	add	s4,t4,t3
   22424:	0116b6b3          	sltu	a3,a3,a7
   22428:	00bd35b3          	sltu	a1,s10,a1
   2242c:	00adb533          	sltu	a0,s11,a0
   22430:	012f3933          	sltu	s2,t5,s2
   22434:	00a6e533          	or	a0,a3,a0
   22438:	00b96933          	or	s2,s2,a1
   2243c:	016ebeb3          	sltu	t4,t4,s6
   22440:	01ca3e33          	sltu	t3,s4,t3
   22444:	01250533          	add	a0,a0,s2
   22448:	01ceeeb3          	or	t4,t4,t3
   2244c:	00ea0833          	add	a6,s4,a4
   22450:	01d50533          	add	a0,a0,t4
   22454:	00e83733          	sltu	a4,a6,a4
   22458:	00750533          	add	a0,a0,t2
   2245c:	00e506b3          	add	a3,a0,a4
   22460:	007533b3          	sltu	t2,a0,t2
   22464:	03330533          	mul	a0,t1,s3
   22468:	00c80833          	add	a6,a6,a2
   2246c:	00e6b733          	sltu	a4,a3,a4
   22470:	00c83633          	sltu	a2,a6,a2
   22474:	018686b3          	add	a3,a3,s8
   22478:	00c685b3          	add	a1,a3,a2
   2247c:	0186bc33          	sltu	s8,a3,s8
   22480:	00c5b633          	sltu	a2,a1,a2
   22484:	07012a23          	sw	a6,116(sp)
   22488:	00e3e733          	or	a4,t2,a4
   2248c:	026f8333          	mul	t1,t6,t1
   22490:	01055693          	srli	a3,a0,0x10
   22494:	00cc6633          	or	a2,s8,a2
   22498:	033289b3          	mul	s3,t0,s3
   2249c:	006989b3          	add	s3,s3,t1
   224a0:	03f28fb3          	mul	t6,t0,t6
   224a4:	013682b3          	add	t0,a3,s3
   224a8:	0062f463          	bgeu	t0,t1,224b0 <__multf3+0xad8>
   224ac:	019f8fb3          	add	t6,t6,s9
   224b0:	0092f6b3          	and	a3,t0,s1
   224b4:	01069693          	slli	a3,a3,0x10
   224b8:	009574b3          	and	s1,a0,s1
   224bc:	009684b3          	add	s1,a3,s1
   224c0:	0102d293          	srli	t0,t0,0x10
   224c4:	009585b3          	add	a1,a1,s1
   224c8:	00e282b3          	add	t0,t0,a4
   224cc:	01412683          	lw	a3,20(sp)
   224d0:	02412703          	lw	a4,36(sp)
   224d4:	0095b4b3          	sltu	s1,a1,s1
   224d8:	00c282b3          	add	t0,t0,a2
   224dc:	009282b3          	add	t0,t0,s1
   224e0:	01f28fb3          	add	t6,t0,t6
   224e4:	00d762b3          	or	t0,a4,a3
   224e8:	01812703          	lw	a4,24(sp)
   224ec:	00d79793          	slli	a5,a5,0xd
   224f0:	06b12c23          	sw	a1,120(sp)
   224f4:	005762b3          	or	t0,a4,t0
   224f8:	07f12e23          	sw	t6,124(sp)
   224fc:	0057e7b3          	or	a5,a5,t0
   22500:	06010713          	addi	a4,sp,96
   22504:	07010593          	addi	a1,sp,112
   22508:	00c72683          	lw	a3,12(a4)
   2250c:	01072603          	lw	a2,16(a4)
   22510:	00470713          	addi	a4,a4,4
   22514:	0136d693          	srli	a3,a3,0x13
   22518:	00d61613          	slli	a2,a2,0xd
   2251c:	00c6e6b3          	or	a3,a3,a2
   22520:	fed72e23          	sw	a3,-4(a4)
   22524:	fee592e3          	bne	a1,a4,22508 <__multf3+0xb30>
   22528:	06012703          	lw	a4,96(sp)
   2252c:	06812683          	lw	a3,104(sp)
   22530:	00f037b3          	snez	a5,a5
   22534:	00e7e7b3          	or	a5,a5,a4
   22538:	04d12c23          	sw	a3,88(sp)
   2253c:	06c12703          	lw	a4,108(sp)
   22540:	06412683          	lw	a3,100(sp)
   22544:	04f12823          	sw	a5,80(sp)
   22548:	04e12e23          	sw	a4,92(sp)
   2254c:	04d12a23          	sw	a3,84(sp)
   22550:	00b71693          	slli	a3,a4,0xb
   22554:	2206d863          	bgez	a3,22784 <__multf3+0xdac>
   22558:	01f79793          	slli	a5,a5,0x1f
   2255c:	05010713          	addi	a4,sp,80
   22560:	05c10593          	addi	a1,sp,92
   22564:	00072683          	lw	a3,0(a4)
   22568:	00472603          	lw	a2,4(a4)
   2256c:	00470713          	addi	a4,a4,4
   22570:	0016d693          	srli	a3,a3,0x1
   22574:	01f61613          	slli	a2,a2,0x1f
   22578:	00c6e6b3          	or	a3,a3,a2
   2257c:	fed72e23          	sw	a3,-4(a4)
   22580:	fee592e3          	bne	a1,a4,22564 <__multf3+0xb8c>
   22584:	05c12703          	lw	a4,92(sp)
   22588:	00f037b3          	snez	a5,a5
   2258c:	00175713          	srli	a4,a4,0x1
   22590:	04e12e23          	sw	a4,92(sp)
   22594:	05012703          	lw	a4,80(sp)
   22598:	00f767b3          	or	a5,a4,a5
   2259c:	04f12823          	sw	a5,80(sp)
   225a0:	01c12703          	lw	a4,28(sp)
   225a4:	000047b7          	lui	a5,0x4
   225a8:	fff78793          	addi	a5,a5,-1 # 3fff <threadsense.2617+0x3fff>
   225ac:	00f707b3          	add	a5,a4,a5
   225b0:	1ef05c63          	blez	a5,227a8 <__multf3+0xdd0>
   225b4:	05012703          	lw	a4,80(sp)
   225b8:	00777693          	andi	a3,a4,7
   225bc:	04068463          	beqz	a3,22604 <__multf3+0xc2c>
   225c0:	00f77693          	andi	a3,a4,15
   225c4:	00400613          	li	a2,4
   225c8:	02c68e63          	beq	a3,a2,22604 <__multf3+0xc2c>
   225cc:	05412683          	lw	a3,84(sp)
   225d0:	00470713          	addi	a4,a4,4
   225d4:	04e12823          	sw	a4,80(sp)
   225d8:	00473713          	sltiu	a4,a4,4
   225dc:	00d706b3          	add	a3,a4,a3
   225e0:	00e6b733          	sltu	a4,a3,a4
   225e4:	04d12a23          	sw	a3,84(sp)
   225e8:	05812683          	lw	a3,88(sp)
   225ec:	00d706b3          	add	a3,a4,a3
   225f0:	04d12c23          	sw	a3,88(sp)
   225f4:	00e6b6b3          	sltu	a3,a3,a4
   225f8:	05c12703          	lw	a4,92(sp)
   225fc:	00e686b3          	add	a3,a3,a4
   22600:	04d12e23          	sw	a3,92(sp)
   22604:	05c12703          	lw	a4,92(sp)
   22608:	00b71693          	slli	a3,a4,0xb
   2260c:	0206d063          	bgez	a3,2262c <__multf3+0xc54>
   22610:	fff007b7          	lui	a5,0xfff00
   22614:	fff78793          	addi	a5,a5,-1 # ffefffff <__global_pointer$+0xffed7d2f>
   22618:	00f77733          	and	a4,a4,a5
   2261c:	04e12e23          	sw	a4,92(sp)
   22620:	01c12703          	lw	a4,28(sp)
   22624:	000047b7          	lui	a5,0x4
   22628:	00f707b3          	add	a5,a4,a5
   2262c:	05010713          	addi	a4,sp,80
   22630:	05c10593          	addi	a1,sp,92
   22634:	00072683          	lw	a3,0(a4)
   22638:	00472603          	lw	a2,4(a4)
   2263c:	00470713          	addi	a4,a4,4
   22640:	0036d693          	srli	a3,a3,0x3
   22644:	01d61613          	slli	a2,a2,0x1d
   22648:	00c6e6b3          	or	a3,a3,a2
   2264c:	fed72e23          	sw	a3,-4(a4)
   22650:	feb712e3          	bne	a4,a1,22634 <__multf3+0xc5c>
   22654:	00008737          	lui	a4,0x8
   22658:	ffe70693          	addi	a3,a4,-2 # 7ffe <threadsense.2617+0x7ffe>
   2265c:	12f6ca63          	blt	a3,a5,22790 <__multf3+0xdb8>
   22660:	05c12703          	lw	a4,92(sp)
   22664:	00375713          	srli	a4,a4,0x3
   22668:	04e12e23          	sw	a4,92(sp)
   2266c:	05c12703          	lw	a4,92(sp)
   22670:	01179793          	slli	a5,a5,0x11
   22674:	800106b7          	lui	a3,0x80010
   22678:	06e11623          	sh	a4,108(sp)
   2267c:	06c12703          	lw	a4,108(sp)
   22680:	fff68693          	addi	a3,a3,-1 # 8000ffff <__global_pointer$+0x7ffe7d2f>
   22684:	0117d793          	srli	a5,a5,0x11
   22688:	00d77733          	and	a4,a4,a3
   2268c:	01079793          	slli	a5,a5,0x10
   22690:	00f767b3          	or	a5,a4,a5
   22694:	01012703          	lw	a4,16(sp)
   22698:	00179793          	slli	a5,a5,0x1
   2269c:	0017d793          	srli	a5,a5,0x1
   226a0:	01f71713          	slli	a4,a4,0x1f
   226a4:	00c12683          	lw	a3,12(sp)
   226a8:	00e7e7b3          	or	a5,a5,a4
   226ac:	05012703          	lw	a4,80(sp)
   226b0:	0bc12083          	lw	ra,188(sp)
   226b4:	0b812403          	lw	s0,184(sp)
   226b8:	00e6a023          	sw	a4,0(a3)
   226bc:	05412703          	lw	a4,84(sp)
   226c0:	00f6a623          	sw	a5,12(a3)
   226c4:	0b412483          	lw	s1,180(sp)
   226c8:	00e6a223          	sw	a4,4(a3)
   226cc:	05812703          	lw	a4,88(sp)
   226d0:	0b012903          	lw	s2,176(sp)
   226d4:	0ac12983          	lw	s3,172(sp)
   226d8:	00e6a423          	sw	a4,8(a3)
   226dc:	0a812a03          	lw	s4,168(sp)
   226e0:	0a412a83          	lw	s5,164(sp)
   226e4:	0a012b03          	lw	s6,160(sp)
   226e8:	09c12b83          	lw	s7,156(sp)
   226ec:	09812c03          	lw	s8,152(sp)
   226f0:	09412c83          	lw	s9,148(sp)
   226f4:	09012d03          	lw	s10,144(sp)
   226f8:	08c12d83          	lw	s11,140(sp)
   226fc:	00068513          	mv	a0,a3
   22700:	0c010113          	addi	sp,sp,192
   22704:	00008067          	ret
   22708:	01312823          	sw	s3,16(sp)
   2270c:	03012783          	lw	a5,48(sp)
   22710:	04f12823          	sw	a5,80(sp)
   22714:	03412783          	lw	a5,52(sp)
   22718:	04f12a23          	sw	a5,84(sp)
   2271c:	03812783          	lw	a5,56(sp)
   22720:	04f12c23          	sw	a5,88(sp)
   22724:	03c12783          	lw	a5,60(sp)
   22728:	04f12e23          	sw	a5,92(sp)
   2272c:	00200793          	li	a5,2
   22730:	26fb8c63          	beq	s7,a5,229a8 <__multf3+0xfd0>
   22734:	00300793          	li	a5,3
   22738:	28fb8663          	beq	s7,a5,229c4 <__multf3+0xfec>
   2273c:	00100793          	li	a5,1
   22740:	e6fb90e3          	bne	s7,a5,225a0 <__multf3+0xbc8>
   22744:	04012e23          	sw	zero,92(sp)
   22748:	04012c23          	sw	zero,88(sp)
   2274c:	04012a23          	sw	zero,84(sp)
   22750:	04012823          	sw	zero,80(sp)
   22754:	2140006f          	j	22968 <__multf3+0xf90>
   22758:	01212823          	sw	s2,16(sp)
   2275c:	04012783          	lw	a5,64(sp)
   22760:	00070b93          	mv	s7,a4
   22764:	04f12823          	sw	a5,80(sp)
   22768:	04412783          	lw	a5,68(sp)
   2276c:	04f12a23          	sw	a5,84(sp)
   22770:	04812783          	lw	a5,72(sp)
   22774:	04f12c23          	sw	a5,88(sp)
   22778:	04c12783          	lw	a5,76(sp)
   2277c:	04f12e23          	sw	a5,92(sp)
   22780:	fadff06f          	j	2272c <__multf3+0xd54>
   22784:	02012783          	lw	a5,32(sp)
   22788:	00f12e23          	sw	a5,28(sp)
   2278c:	e15ff06f          	j	225a0 <__multf3+0xbc8>
   22790:	04012e23          	sw	zero,92(sp)
   22794:	04012c23          	sw	zero,88(sp)
   22798:	04012a23          	sw	zero,84(sp)
   2279c:	04012823          	sw	zero,80(sp)
   227a0:	fff70793          	addi	a5,a4,-1
   227a4:	ec9ff06f          	j	2266c <__multf3+0xc94>
   227a8:	00100713          	li	a4,1
   227ac:	40f707b3          	sub	a5,a4,a5
   227b0:	07400713          	li	a4,116
   227b4:	1af74e63          	blt	a4,a5,22970 <__multf3+0xf98>
   227b8:	4057d893          	srai	a7,a5,0x5
   227bc:	00000713          	li	a4,0
   227c0:	01f7f793          	andi	a5,a5,31
   227c4:	00000693          	li	a3,0
   227c8:	00269613          	slli	a2,a3,0x2
   227cc:	03169a63          	bne	a3,a7,22800 <__multf3+0xe28>
   227d0:	04079463          	bnez	a5,22818 <__multf3+0xe40>
   227d4:	00300513          	li	a0,3
   227d8:	05010593          	addi	a1,sp,80
   227dc:	40d506b3          	sub	a3,a0,a3
   227e0:	00c58533          	add	a0,a1,a2
   227e4:	00052503          	lw	a0,0(a0) # 10000 <_start>
   227e8:	00178793          	addi	a5,a5,1 # 4001 <threadsense.2617+0x4001>
   227ec:	00458593          	addi	a1,a1,4
   227f0:	fea5ae23          	sw	a0,-4(a1)
   227f4:	fef6d6e3          	bge	a3,a5,227e0 <__multf3+0xe08>
   227f8:	00400613          	li	a2,4
   227fc:	0b80006f          	j	228b4 <__multf3+0xedc>
   22800:	05010593          	addi	a1,sp,80
   22804:	00c58633          	add	a2,a1,a2
   22808:	00062603          	lw	a2,0(a2)
   2280c:	00168693          	addi	a3,a3,1
   22810:	00c76733          	or	a4,a4,a2
   22814:	fb5ff06f          	j	227c8 <__multf3+0xdf0>
   22818:	08010693          	addi	a3,sp,128
   2281c:	00c686b3          	add	a3,a3,a2
   22820:	fd06a683          	lw	a3,-48(a3)
   22824:	02000813          	li	a6,32
   22828:	40f80833          	sub	a6,a6,a5
   2282c:	010696b3          	sll	a3,a3,a6
   22830:	00d76733          	or	a4,a4,a3
   22834:	05010693          	addi	a3,sp,80
   22838:	00c68633          	add	a2,a3,a2
   2283c:	00300693          	li	a3,3
   22840:	00000513          	li	a0,0
   22844:	411686b3          	sub	a3,a3,a7
   22848:	00460613          	addi	a2,a2,4
   2284c:	02d54463          	blt	a0,a3,22874 <__multf3+0xe9c>
   22850:	08010613          	addi	a2,sp,128
   22854:	00269693          	slli	a3,a3,0x2
   22858:	00d606b3          	add	a3,a2,a3
   2285c:	05c12603          	lw	a2,92(sp)
   22860:	00f657b3          	srl	a5,a2,a5
   22864:	fcf6a823          	sw	a5,-48(a3)
   22868:	00400793          	li	a5,4
   2286c:	411787b3          	sub	a5,a5,a7
   22870:	f89ff06f          	j	227f8 <__multf3+0xe20>
   22874:	00251313          	slli	t1,a0,0x2
   22878:	05010593          	addi	a1,sp,80
   2287c:	00658333          	add	t1,a1,t1
   22880:	00062e03          	lw	t3,0(a2)
   22884:	ffc62583          	lw	a1,-4(a2)
   22888:	00150513          	addi	a0,a0,1
   2288c:	010e1e33          	sll	t3,t3,a6
   22890:	00f5d5b3          	srl	a1,a1,a5
   22894:	01c5e5b3          	or	a1,a1,t3
   22898:	00b32023          	sw	a1,0(t1) # 10000 <_start>
   2289c:	fadff06f          	j	22848 <__multf3+0xe70>
   228a0:	00279693          	slli	a3,a5,0x2
   228a4:	05010593          	addi	a1,sp,80
   228a8:	00d586b3          	add	a3,a1,a3
   228ac:	0006a023          	sw	zero,0(a3)
   228b0:	00178793          	addi	a5,a5,1
   228b4:	fec796e3          	bne	a5,a2,228a0 <__multf3+0xec8>
   228b8:	05012683          	lw	a3,80(sp)
   228bc:	00e03733          	snez	a4,a4
   228c0:	00d76733          	or	a4,a4,a3
   228c4:	04e12823          	sw	a4,80(sp)
   228c8:	00777693          	andi	a3,a4,7
   228cc:	04068263          	beqz	a3,22910 <__multf3+0xf38>
   228d0:	00f77693          	andi	a3,a4,15
   228d4:	02f68e63          	beq	a3,a5,22910 <__multf3+0xf38>
   228d8:	05412783          	lw	a5,84(sp)
   228dc:	00470713          	addi	a4,a4,4
   228e0:	04e12823          	sw	a4,80(sp)
   228e4:	00473713          	sltiu	a4,a4,4
   228e8:	00f707b3          	add	a5,a4,a5
   228ec:	00e7b733          	sltu	a4,a5,a4
   228f0:	04f12a23          	sw	a5,84(sp)
   228f4:	05812783          	lw	a5,88(sp)
   228f8:	00f707b3          	add	a5,a4,a5
   228fc:	04f12c23          	sw	a5,88(sp)
   22900:	00e7b7b3          	sltu	a5,a5,a4
   22904:	05c12703          	lw	a4,92(sp)
   22908:	00e787b3          	add	a5,a5,a4
   2290c:	04f12e23          	sw	a5,92(sp)
   22910:	05c12783          	lw	a5,92(sp)
   22914:	00c79713          	slli	a4,a5,0xc
   22918:	00075e63          	bgez	a4,22934 <__multf3+0xf5c>
   2291c:	04012e23          	sw	zero,92(sp)
   22920:	04012c23          	sw	zero,88(sp)
   22924:	04012a23          	sw	zero,84(sp)
   22928:	04012823          	sw	zero,80(sp)
   2292c:	00100793          	li	a5,1
   22930:	d3dff06f          	j	2266c <__multf3+0xc94>
   22934:	05010793          	addi	a5,sp,80
   22938:	05c10613          	addi	a2,sp,92
   2293c:	0007a703          	lw	a4,0(a5)
   22940:	0047a683          	lw	a3,4(a5)
   22944:	00478793          	addi	a5,a5,4
   22948:	00375713          	srli	a4,a4,0x3
   2294c:	01d69693          	slli	a3,a3,0x1d
   22950:	00d76733          	or	a4,a4,a3
   22954:	fee7ae23          	sw	a4,-4(a5)
   22958:	fef612e3          	bne	a2,a5,2293c <__multf3+0xf64>
   2295c:	05c12783          	lw	a5,92(sp)
   22960:	0037d793          	srli	a5,a5,0x3
   22964:	04f12e23          	sw	a5,92(sp)
   22968:	00000793          	li	a5,0
   2296c:	d01ff06f          	j	2266c <__multf3+0xc94>
   22970:	05412783          	lw	a5,84(sp)
   22974:	05012703          	lw	a4,80(sp)
   22978:	00f76733          	or	a4,a4,a5
   2297c:	05812783          	lw	a5,88(sp)
   22980:	00f76733          	or	a4,a4,a5
   22984:	05c12783          	lw	a5,92(sp)
   22988:	00f76733          	or	a4,a4,a5
   2298c:	00000793          	li	a5,0
   22990:	cc070ee3          	beqz	a4,2266c <__multf3+0xc94>
   22994:	04012e23          	sw	zero,92(sp)
   22998:	04012c23          	sw	zero,88(sp)
   2299c:	04012a23          	sw	zero,84(sp)
   229a0:	04012823          	sw	zero,80(sp)
   229a4:	cc9ff06f          	j	2266c <__multf3+0xc94>
   229a8:	000087b7          	lui	a5,0x8
   229ac:	04012e23          	sw	zero,92(sp)
   229b0:	04012c23          	sw	zero,88(sp)
   229b4:	04012a23          	sw	zero,84(sp)
   229b8:	04012823          	sw	zero,80(sp)
   229bc:	fff78793          	addi	a5,a5,-1 # 7fff <threadsense.2617+0x7fff>
   229c0:	cadff06f          	j	2266c <__multf3+0xc94>
   229c4:	000087b7          	lui	a5,0x8
   229c8:	04f12e23          	sw	a5,92(sp)
   229cc:	04012c23          	sw	zero,88(sp)
   229d0:	04012a23          	sw	zero,84(sp)
   229d4:	04012823          	sw	zero,80(sp)
   229d8:	fff78793          	addi	a5,a5,-1 # 7fff <threadsense.2617+0x7fff>
   229dc:	00012823          	sw	zero,16(sp)
   229e0:	c8dff06f          	j	2266c <__multf3+0xc94>

000229e4 <__subtf3>:
   229e4:	fa010113          	addi	sp,sp,-96
   229e8:	0085a783          	lw	a5,8(a1)
   229ec:	05212823          	sw	s2,80(sp)
   229f0:	00c5a903          	lw	s2,12(a1)
   229f4:	0045a703          	lw	a4,4(a1)
   229f8:	04912a23          	sw	s1,84(sp)
   229fc:	00050493          	mv	s1,a0
   22a00:	0005a503          	lw	a0,0(a1)
   22a04:	02f12c23          	sw	a5,56(sp)
   22a08:	00f12c23          	sw	a5,24(sp)
   22a0c:	00062303          	lw	t1,0(a2)
   22a10:	01091793          	slli	a5,s2,0x10
   22a14:	00462883          	lw	a7,4(a2)
   22a18:	00862683          	lw	a3,8(a2)
   22a1c:	00c62803          	lw	a6,12(a2)
   22a20:	04812c23          	sw	s0,88(sp)
   22a24:	0107d793          	srli	a5,a5,0x10
   22a28:	00191413          	slli	s0,s2,0x1
   22a2c:	03212e23          	sw	s2,60(sp)
   22a30:	04112e23          	sw	ra,92(sp)
   22a34:	05312623          	sw	s3,76(sp)
   22a38:	05412423          	sw	s4,72(sp)
   22a3c:	05512223          	sw	s5,68(sp)
   22a40:	02a12823          	sw	a0,48(sp)
   22a44:	02e12a23          	sw	a4,52(sp)
   22a48:	00a12823          	sw	a0,16(sp)
   22a4c:	00e12a23          	sw	a4,20(sp)
   22a50:	00f12e23          	sw	a5,28(sp)
   22a54:	01145413          	srli	s0,s0,0x11
   22a58:	01f95913          	srli	s2,s2,0x1f
   22a5c:	01010e13          	addi	t3,sp,16
   22a60:	01c10593          	addi	a1,sp,28
   22a64:	0005a783          	lw	a5,0(a1)
   22a68:	ffc5a703          	lw	a4,-4(a1)
   22a6c:	ffc58593          	addi	a1,a1,-4
   22a70:	00379793          	slli	a5,a5,0x3
   22a74:	01d75713          	srli	a4,a4,0x1d
   22a78:	00e7e7b3          	or	a5,a5,a4
   22a7c:	00f5a223          	sw	a5,4(a1)
   22a80:	febe12e3          	bne	t3,a1,22a64 <__subtf3+0x80>
   22a84:	01012703          	lw	a4,16(sp)
   22a88:	01081793          	slli	a5,a6,0x10
   22a8c:	00181613          	slli	a2,a6,0x1
   22a90:	00371713          	slli	a4,a4,0x3
   22a94:	0107d793          	srli	a5,a5,0x10
   22a98:	02612823          	sw	t1,48(sp)
   22a9c:	03112a23          	sw	a7,52(sp)
   22aa0:	03012e23          	sw	a6,60(sp)
   22aa4:	02612023          	sw	t1,32(sp)
   22aa8:	03112223          	sw	a7,36(sp)
   22aac:	00e12823          	sw	a4,16(sp)
   22ab0:	02d12c23          	sw	a3,56(sp)
   22ab4:	02d12423          	sw	a3,40(sp)
   22ab8:	02f12623          	sw	a5,44(sp)
   22abc:	01165613          	srli	a2,a2,0x11
   22ac0:	01f85813          	srli	a6,a6,0x1f
   22ac4:	02010313          	addi	t1,sp,32
   22ac8:	02c10893          	addi	a7,sp,44
   22acc:	0008a783          	lw	a5,0(a7)
   22ad0:	ffc8a683          	lw	a3,-4(a7)
   22ad4:	ffc88893          	addi	a7,a7,-4
   22ad8:	00379793          	slli	a5,a5,0x3
   22adc:	01d6d693          	srli	a3,a3,0x1d
   22ae0:	00d7e7b3          	or	a5,a5,a3
   22ae4:	00f8a223          	sw	a5,4(a7)
   22ae8:	ff1312e3          	bne	t1,a7,22acc <__subtf3+0xe8>
   22aec:	02012783          	lw	a5,32(sp)
   22af0:	000086b7          	lui	a3,0x8
   22af4:	fff68693          	addi	a3,a3,-1 # 7fff <threadsense.2617+0x7fff>
   22af8:	00379793          	slli	a5,a5,0x3
   22afc:	02f12023          	sw	a5,32(sp)
   22b00:	02d61063          	bne	a2,a3,22b20 <__subtf3+0x13c>
   22b04:	02812503          	lw	a0,40(sp)
   22b08:	02412683          	lw	a3,36(sp)
   22b0c:	00a6e6b3          	or	a3,a3,a0
   22b10:	02c12503          	lw	a0,44(sp)
   22b14:	00a6e6b3          	or	a3,a3,a0
   22b18:	00f6e6b3          	or	a3,a3,a5
   22b1c:	00069463          	bnez	a3,22b24 <__subtf3+0x140>
   22b20:	00184813          	xori	a6,a6,1
   22b24:	40c40533          	sub	a0,s0,a2
   22b28:	13281ce3          	bne	a6,s2,23460 <__subtf3+0xa7c>
   22b2c:	30a05463          	blez	a0,22e34 <__subtf3+0x450>
   22b30:	0c061663          	bnez	a2,22bfc <__subtf3+0x218>
   22b34:	02412583          	lw	a1,36(sp)
   22b38:	02812603          	lw	a2,40(sp)
   22b3c:	02c12803          	lw	a6,44(sp)
   22b40:	00c5e6b3          	or	a3,a1,a2
   22b44:	0106e6b3          	or	a3,a3,a6
   22b48:	00f6e6b3          	or	a3,a3,a5
   22b4c:	02069063          	bnez	a3,22b6c <__subtf3+0x188>
   22b50:	01412783          	lw	a5,20(sp)
   22b54:	02e12823          	sw	a4,48(sp)
   22b58:	02f12a23          	sw	a5,52(sp)
   22b5c:	01812783          	lw	a5,24(sp)
   22b60:	02f12c23          	sw	a5,56(sp)
   22b64:	01c12783          	lw	a5,28(sp)
   22b68:	30c0006f          	j	22e74 <__subtf3+0x490>
   22b6c:	fff50693          	addi	a3,a0,-1
   22b70:	06069063          	bnez	a3,22bd0 <__subtf3+0x1ec>
   22b74:	01412683          	lw	a3,20(sp)
   22b78:	00f707b3          	add	a5,a4,a5
   22b7c:	00e7b733          	sltu	a4,a5,a4
   22b80:	00d585b3          	add	a1,a1,a3
   22b84:	02f12823          	sw	a5,48(sp)
   22b88:	00e587b3          	add	a5,a1,a4
   22b8c:	00e7b733          	sltu	a4,a5,a4
   22b90:	02f12a23          	sw	a5,52(sp)
   22b94:	01812783          	lw	a5,24(sp)
   22b98:	00d5b6b3          	sltu	a3,a1,a3
   22b9c:	00e6e733          	or	a4,a3,a4
   22ba0:	00f606b3          	add	a3,a2,a5
   22ba4:	00e68633          	add	a2,a3,a4
   22ba8:	00e63733          	sltu	a4,a2,a4
   22bac:	00f6b7b3          	sltu	a5,a3,a5
   22bb0:	00e7e7b3          	or	a5,a5,a4
   22bb4:	01c12703          	lw	a4,28(sp)
   22bb8:	02c12c23          	sw	a2,56(sp)
   22bbc:	00e80833          	add	a6,a6,a4
   22bc0:	010787b3          	add	a5,a5,a6
   22bc4:	02f12e23          	sw	a5,60(sp)
   22bc8:	00100413          	li	s0,1
   22bcc:	1dc0006f          	j	22da8 <__subtf3+0x3c4>
   22bd0:	000087b7          	lui	a5,0x8
   22bd4:	fff78793          	addi	a5,a5,-1 # 7fff <threadsense.2617+0x7fff>
   22bd8:	f6f50ce3          	beq	a0,a5,22b50 <__subtf3+0x16c>
   22bdc:	07400793          	li	a5,116
   22be0:	06d7d263          	bge	a5,a3,22c44 <__subtf3+0x260>
   22be4:	00100793          	li	a5,1
   22be8:	02012623          	sw	zero,44(sp)
   22bec:	02012423          	sw	zero,40(sp)
   22bf0:	02012223          	sw	zero,36(sp)
   22bf4:	02f12023          	sw	a5,32(sp)
   22bf8:	1480006f          	j	22d40 <__subtf3+0x35c>
   22bfc:	000087b7          	lui	a5,0x8
   22c00:	fff78793          	addi	a5,a5,-1 # 7fff <threadsense.2617+0x7fff>
   22c04:	02f41263          	bne	s0,a5,22c28 <__subtf3+0x244>
   22c08:	01412783          	lw	a5,20(sp)
   22c0c:	02e12823          	sw	a4,48(sp)
   22c10:	02f12a23          	sw	a5,52(sp)
   22c14:	01812783          	lw	a5,24(sp)
   22c18:	02f12c23          	sw	a5,56(sp)
   22c1c:	01c12783          	lw	a5,28(sp)
   22c20:	02f12e23          	sw	a5,60(sp)
   22c24:	2580006f          	j	22e7c <__subtf3+0x498>
   22c28:	02c12783          	lw	a5,44(sp)
   22c2c:	00080737          	lui	a4,0x80
   22c30:	00e7e7b3          	or	a5,a5,a4
   22c34:	02f12623          	sw	a5,44(sp)
   22c38:	07400793          	li	a5,116
   22c3c:	faa7c4e3          	blt	a5,a0,22be4 <__subtf3+0x200>
   22c40:	00050693          	mv	a3,a0
   22c44:	4056de13          	srai	t3,a3,0x5
   22c48:	01f6f793          	andi	a5,a3,31
   22c4c:	00000613          	li	a2,0
   22c50:	00000713          	li	a4,0
   22c54:	00271693          	slli	a3,a4,0x2
   22c58:	03c71863          	bne	a4,t3,22c88 <__subtf3+0x2a4>
   22c5c:	04079063          	bnez	a5,22c9c <__subtf3+0x2b8>
   22c60:	00300593          	li	a1,3
   22c64:	40e58733          	sub	a4,a1,a4
   22c68:	00d885b3          	add	a1,a7,a3
   22c6c:	0005a583          	lw	a1,0(a1)
   22c70:	00178793          	addi	a5,a5,1
   22c74:	00488893          	addi	a7,a7,4
   22c78:	feb8ae23          	sw	a1,-4(a7)
   22c7c:	fef756e3          	bge	a4,a5,22c68 <__subtf3+0x284>
   22c80:	00400693          	li	a3,4
   22c84:	0a80006f          	j	22d2c <__subtf3+0x348>
   22c88:	00d306b3          	add	a3,t1,a3
   22c8c:	0006a683          	lw	a3,0(a3)
   22c90:	00170713          	addi	a4,a4,1 # 80001 <__global_pointer$+0x57d31>
   22c94:	00d66633          	or	a2,a2,a3
   22c98:	fbdff06f          	j	22c54 <__subtf3+0x270>
   22c9c:	04010713          	addi	a4,sp,64
   22ca0:	00d70733          	add	a4,a4,a3
   22ca4:	fe072703          	lw	a4,-32(a4)
   22ca8:	02000813          	li	a6,32
   22cac:	40f80833          	sub	a6,a6,a5
   22cb0:	01071733          	sll	a4,a4,a6
   22cb4:	00e66633          	or	a2,a2,a4
   22cb8:	00300713          	li	a4,3
   22cbc:	00d306b3          	add	a3,t1,a3
   22cc0:	00000513          	li	a0,0
   22cc4:	41c70733          	sub	a4,a4,t3
   22cc8:	00468693          	addi	a3,a3,4
   22ccc:	02e54463          	blt	a0,a4,22cf4 <__subtf3+0x310>
   22cd0:	04010693          	addi	a3,sp,64
   22cd4:	00271713          	slli	a4,a4,0x2
   22cd8:	00e68733          	add	a4,a3,a4
   22cdc:	02c12683          	lw	a3,44(sp)
   22ce0:	00f6d7b3          	srl	a5,a3,a5
   22ce4:	fef72023          	sw	a5,-32(a4)
   22ce8:	00400793          	li	a5,4
   22cec:	41c787b3          	sub	a5,a5,t3
   22cf0:	f91ff06f          	j	22c80 <__subtf3+0x29c>
   22cf4:	ffc6a583          	lw	a1,-4(a3)
   22cf8:	0006ae83          	lw	t4,0(a3)
   22cfc:	00251893          	slli	a7,a0,0x2
   22d00:	00f5d5b3          	srl	a1,a1,a5
   22d04:	010e9eb3          	sll	t4,t4,a6
   22d08:	011308b3          	add	a7,t1,a7
   22d0c:	01d5e5b3          	or	a1,a1,t4
   22d10:	00b8a023          	sw	a1,0(a7)
   22d14:	00150513          	addi	a0,a0,1
   22d18:	fb1ff06f          	j	22cc8 <__subtf3+0x2e4>
   22d1c:	00279713          	slli	a4,a5,0x2
   22d20:	00e30733          	add	a4,t1,a4
   22d24:	00072023          	sw	zero,0(a4)
   22d28:	00178793          	addi	a5,a5,1
   22d2c:	fed798e3          	bne	a5,a3,22d1c <__subtf3+0x338>
   22d30:	02012783          	lw	a5,32(sp)
   22d34:	00c03633          	snez	a2,a2
   22d38:	00c7e633          	or	a2,a5,a2
   22d3c:	02c12023          	sw	a2,32(sp)
   22d40:	01012683          	lw	a3,16(sp)
   22d44:	02012783          	lw	a5,32(sp)
   22d48:	01412703          	lw	a4,20(sp)
   22d4c:	02812583          	lw	a1,40(sp)
   22d50:	00f687b3          	add	a5,a3,a5
   22d54:	00d7b6b3          	sltu	a3,a5,a3
   22d58:	02f12823          	sw	a5,48(sp)
   22d5c:	02412783          	lw	a5,36(sp)
   22d60:	02c12503          	lw	a0,44(sp)
   22d64:	00f707b3          	add	a5,a4,a5
   22d68:	00d78633          	add	a2,a5,a3
   22d6c:	00e7b733          	sltu	a4,a5,a4
   22d70:	00d637b3          	sltu	a5,a2,a3
   22d74:	00f767b3          	or	a5,a4,a5
   22d78:	01812703          	lw	a4,24(sp)
   22d7c:	01c12683          	lw	a3,28(sp)
   22d80:	02c12a23          	sw	a2,52(sp)
   22d84:	00b705b3          	add	a1,a4,a1
   22d88:	00f58633          	add	a2,a1,a5
   22d8c:	00e5b733          	sltu	a4,a1,a4
   22d90:	00f637b3          	sltu	a5,a2,a5
   22d94:	00a686b3          	add	a3,a3,a0
   22d98:	00f76733          	or	a4,a4,a5
   22d9c:	00e68733          	add	a4,a3,a4
   22da0:	02c12c23          	sw	a2,56(sp)
   22da4:	02e12e23          	sw	a4,60(sp)
   22da8:	03c12783          	lw	a5,60(sp)
   22dac:	00c79713          	slli	a4,a5,0xc
   22db0:	0c075663          	bgez	a4,22e7c <__subtf3+0x498>
   22db4:	fff80737          	lui	a4,0xfff80
   22db8:	fff70713          	addi	a4,a4,-1 # fff7ffff <__global_pointer$+0xfff57d2f>
   22dbc:	00e7f7b3          	and	a5,a5,a4
   22dc0:	02f12e23          	sw	a5,60(sp)
   22dc4:	03012783          	lw	a5,48(sp)
   22dc8:	00140413          	addi	s0,s0,1 # 80001 <__global_pointer$+0x57d31>
   22dcc:	03c10593          	addi	a1,sp,60
   22dd0:	01f79713          	slli	a4,a5,0x1f
   22dd4:	03010793          	addi	a5,sp,48
   22dd8:	0007a683          	lw	a3,0(a5)
   22ddc:	0047a603          	lw	a2,4(a5)
   22de0:	00478793          	addi	a5,a5,4
   22de4:	0016d693          	srli	a3,a3,0x1
   22de8:	01f61613          	slli	a2,a2,0x1f
   22dec:	00c6e6b3          	or	a3,a3,a2
   22df0:	fed7ae23          	sw	a3,-4(a5)
   22df4:	fef592e3          	bne	a1,a5,22dd8 <__subtf3+0x3f4>
   22df8:	03c12783          	lw	a5,60(sp)
   22dfc:	0017d793          	srli	a5,a5,0x1
   22e00:	02f12e23          	sw	a5,60(sp)
   22e04:	00e037b3          	snez	a5,a4
   22e08:	03012703          	lw	a4,48(sp)
   22e0c:	00f767b3          	or	a5,a4,a5
   22e10:	02f12823          	sw	a5,48(sp)
   22e14:	000087b7          	lui	a5,0x8
   22e18:	fff78793          	addi	a5,a5,-1 # 7fff <threadsense.2617+0x7fff>
   22e1c:	06f41063          	bne	s0,a5,22e7c <__subtf3+0x498>
   22e20:	02012e23          	sw	zero,60(sp)
   22e24:	02012c23          	sw	zero,56(sp)
   22e28:	02012a23          	sw	zero,52(sp)
   22e2c:	02012823          	sw	zero,48(sp)
   22e30:	04c0006f          	j	22e7c <__subtf3+0x498>
   22e34:	40050863          	beqz	a0,23244 <__subtf3+0x860>
   22e38:	40860533          	sub	a0,a2,s0
   22e3c:	22041c63          	bnez	s0,23074 <__subtf3+0x690>
   22e40:	01412883          	lw	a7,20(sp)
   22e44:	01812803          	lw	a6,24(sp)
   22e48:	01c12303          	lw	t1,28(sp)
   22e4c:	0108e6b3          	or	a3,a7,a6
   22e50:	0066e6b3          	or	a3,a3,t1
   22e54:	00e6e6b3          	or	a3,a3,a4
   22e58:	18069863          	bnez	a3,22fe8 <__subtf3+0x604>
   22e5c:	02f12823          	sw	a5,48(sp)
   22e60:	02412783          	lw	a5,36(sp)
   22e64:	02f12a23          	sw	a5,52(sp)
   22e68:	02812783          	lw	a5,40(sp)
   22e6c:	02f12c23          	sw	a5,56(sp)
   22e70:	02c12783          	lw	a5,44(sp)
   22e74:	02f12e23          	sw	a5,60(sp)
   22e78:	00050413          	mv	s0,a0
   22e7c:	03012783          	lw	a5,48(sp)
   22e80:	0077f713          	andi	a4,a5,7
   22e84:	04070463          	beqz	a4,22ecc <__subtf3+0x4e8>
   22e88:	00f7f713          	andi	a4,a5,15
   22e8c:	00400693          	li	a3,4
   22e90:	02d70e63          	beq	a4,a3,22ecc <__subtf3+0x4e8>
   22e94:	03412703          	lw	a4,52(sp)
   22e98:	00478793          	addi	a5,a5,4
   22e9c:	02f12823          	sw	a5,48(sp)
   22ea0:	0047b793          	sltiu	a5,a5,4
   22ea4:	00e78733          	add	a4,a5,a4
   22ea8:	00f737b3          	sltu	a5,a4,a5
   22eac:	02e12a23          	sw	a4,52(sp)
   22eb0:	03812703          	lw	a4,56(sp)
   22eb4:	00e78733          	add	a4,a5,a4
   22eb8:	02e12c23          	sw	a4,56(sp)
   22ebc:	00f73733          	sltu	a4,a4,a5
   22ec0:	03c12783          	lw	a5,60(sp)
   22ec4:	00f70733          	add	a4,a4,a5
   22ec8:	02e12e23          	sw	a4,60(sp)
   22ecc:	03c12783          	lw	a5,60(sp)
   22ed0:	00c79713          	slli	a4,a5,0xc
   22ed4:	02075463          	bgez	a4,22efc <__subtf3+0x518>
   22ed8:	00008737          	lui	a4,0x8
   22edc:	00140413          	addi	s0,s0,1
   22ee0:	fff70713          	addi	a4,a4,-1 # 7fff <threadsense.2617+0x7fff>
   22ee4:	00e41463          	bne	s0,a4,22eec <__subtf3+0x508>
   22ee8:	0080106f          	j	23ef0 <__subtf3+0x150c>
   22eec:	fff80737          	lui	a4,0xfff80
   22ef0:	fff70713          	addi	a4,a4,-1 # fff7ffff <__global_pointer$+0xfff57d2f>
   22ef4:	00e7f7b3          	and	a5,a5,a4
   22ef8:	02f12e23          	sw	a5,60(sp)
   22efc:	03010793          	addi	a5,sp,48
   22f00:	03c10613          	addi	a2,sp,60
   22f04:	0007a703          	lw	a4,0(a5)
   22f08:	0047a683          	lw	a3,4(a5)
   22f0c:	00478793          	addi	a5,a5,4
   22f10:	00375713          	srli	a4,a4,0x3
   22f14:	01d69693          	slli	a3,a3,0x1d
   22f18:	00d76733          	or	a4,a4,a3
   22f1c:	fee7ae23          	sw	a4,-4(a5)
   22f20:	fef612e3          	bne	a2,a5,22f04 <__subtf3+0x520>
   22f24:	03c12783          	lw	a5,60(sp)
   22f28:	000086b7          	lui	a3,0x8
   22f2c:	0037d713          	srli	a4,a5,0x3
   22f30:	02e12e23          	sw	a4,60(sp)
   22f34:	fff68793          	addi	a5,a3,-1 # 7fff <threadsense.2617+0x7fff>
   22f38:	02f41a63          	bne	s0,a5,22f6c <__subtf3+0x588>
   22f3c:	03412603          	lw	a2,52(sp)
   22f40:	03012783          	lw	a5,48(sp)
   22f44:	00c7e7b3          	or	a5,a5,a2
   22f48:	03812603          	lw	a2,56(sp)
   22f4c:	00c7e7b3          	or	a5,a5,a2
   22f50:	00e7e7b3          	or	a5,a5,a4
   22f54:	00078c63          	beqz	a5,22f6c <__subtf3+0x588>
   22f58:	02d12e23          	sw	a3,60(sp)
   22f5c:	02012c23          	sw	zero,56(sp)
   22f60:	02012a23          	sw	zero,52(sp)
   22f64:	02012823          	sw	zero,48(sp)
   22f68:	00000913          	li	s2,0
   22f6c:	03c12783          	lw	a5,60(sp)
   22f70:	01141413          	slli	s0,s0,0x11
   22f74:	01145413          	srli	s0,s0,0x11
   22f78:	00f11623          	sh	a5,12(sp)
   22f7c:	01041793          	slli	a5,s0,0x10
   22f80:	00c12403          	lw	s0,12(sp)
   22f84:	80010737          	lui	a4,0x80010
   22f88:	fff70713          	addi	a4,a4,-1 # 8000ffff <__global_pointer$+0x7ffe7d2f>
   22f8c:	00e47433          	and	s0,s0,a4
   22f90:	00f46433          	or	s0,s0,a5
   22f94:	03012783          	lw	a5,48(sp)
   22f98:	00141413          	slli	s0,s0,0x1
   22f9c:	01f91913          	slli	s2,s2,0x1f
   22fa0:	00f4a023          	sw	a5,0(s1)
   22fa4:	03412783          	lw	a5,52(sp)
   22fa8:	00145413          	srli	s0,s0,0x1
   22fac:	01246433          	or	s0,s0,s2
   22fb0:	00f4a223          	sw	a5,4(s1)
   22fb4:	03812783          	lw	a5,56(sp)
   22fb8:	0084a623          	sw	s0,12(s1)
   22fbc:	05c12083          	lw	ra,92(sp)
   22fc0:	05812403          	lw	s0,88(sp)
   22fc4:	00f4a423          	sw	a5,8(s1)
   22fc8:	00048513          	mv	a0,s1
   22fcc:	05012903          	lw	s2,80(sp)
   22fd0:	05412483          	lw	s1,84(sp)
   22fd4:	04c12983          	lw	s3,76(sp)
   22fd8:	04812a03          	lw	s4,72(sp)
   22fdc:	04412a83          	lw	s5,68(sp)
   22fe0:	06010113          	addi	sp,sp,96
   22fe4:	00008067          	ret
   22fe8:	fff50693          	addi	a3,a0,-1
   22fec:	04069e63          	bnez	a3,23048 <__subtf3+0x664>
   22ff0:	02412683          	lw	a3,36(sp)
   22ff4:	00f70733          	add	a4,a4,a5
   22ff8:	00f737b3          	sltu	a5,a4,a5
   22ffc:	00d88633          	add	a2,a7,a3
   23000:	02e12823          	sw	a4,48(sp)
   23004:	00f60733          	add	a4,a2,a5
   23008:	00f737b3          	sltu	a5,a4,a5
   2300c:	02e12a23          	sw	a4,52(sp)
   23010:	02812703          	lw	a4,40(sp)
   23014:	00d636b3          	sltu	a3,a2,a3
   23018:	00f6e7b3          	or	a5,a3,a5
   2301c:	00e806b3          	add	a3,a6,a4
   23020:	00f68633          	add	a2,a3,a5
   23024:	00f637b3          	sltu	a5,a2,a5
   23028:	00e6b733          	sltu	a4,a3,a4
   2302c:	00f76733          	or	a4,a4,a5
   23030:	02c12783          	lw	a5,44(sp)
   23034:	02c12c23          	sw	a2,56(sp)
   23038:	00f30333          	add	t1,t1,a5
   2303c:	00670733          	add	a4,a4,t1
   23040:	02e12e23          	sw	a4,60(sp)
   23044:	b85ff06f          	j	22bc8 <__subtf3+0x1e4>
   23048:	00008737          	lui	a4,0x8
   2304c:	fff70713          	addi	a4,a4,-1 # 7fff <threadsense.2617+0x7fff>
   23050:	e0e506e3          	beq	a0,a4,22e5c <__subtf3+0x478>
   23054:	07400793          	li	a5,116
   23058:	06d7d463          	bge	a5,a3,230c0 <__subtf3+0x6dc>
   2305c:	00100793          	li	a5,1
   23060:	00012e23          	sw	zero,28(sp)
   23064:	00012c23          	sw	zero,24(sp)
   23068:	00012a23          	sw	zero,20(sp)
   2306c:	00f12823          	sw	a5,16(sp)
   23070:	1640006f          	j	231d4 <__subtf3+0x7f0>
   23074:	00008737          	lui	a4,0x8
   23078:	fff70713          	addi	a4,a4,-1 # 7fff <threadsense.2617+0x7fff>
   2307c:	02e61463          	bne	a2,a4,230a4 <__subtf3+0x6c0>
   23080:	02f12823          	sw	a5,48(sp)
   23084:	02412783          	lw	a5,36(sp)
   23088:	00060413          	mv	s0,a2
   2308c:	02f12a23          	sw	a5,52(sp)
   23090:	02812783          	lw	a5,40(sp)
   23094:	02f12c23          	sw	a5,56(sp)
   23098:	02c12783          	lw	a5,44(sp)
   2309c:	02f12e23          	sw	a5,60(sp)
   230a0:	dddff06f          	j	22e7c <__subtf3+0x498>
   230a4:	01c12783          	lw	a5,28(sp)
   230a8:	00080737          	lui	a4,0x80
   230ac:	00e7e7b3          	or	a5,a5,a4
   230b0:	00f12e23          	sw	a5,28(sp)
   230b4:	07400793          	li	a5,116
   230b8:	faa7c2e3          	blt	a5,a0,2305c <__subtf3+0x678>
   230bc:	00050693          	mv	a3,a0
   230c0:	02000793          	li	a5,32
   230c4:	02f6c533          	div	a0,a3,a5
   230c8:	00000713          	li	a4,0
   230cc:	02f6e7b3          	rem	a5,a3,a5
   230d0:	00000693          	li	a3,0
   230d4:	04a74063          	blt	a4,a0,23114 <__subtf3+0x730>
   230d8:	00050813          	mv	a6,a0
   230dc:	00055463          	bgez	a0,230e4 <__subtf3+0x700>
   230e0:	00000813          	li	a6,0
   230e4:	00251713          	slli	a4,a0,0x2
   230e8:	04079263          	bnez	a5,2312c <__subtf3+0x748>
   230ec:	00300813          	li	a6,3
   230f0:	40a80533          	sub	a0,a6,a0
   230f4:	00e58833          	add	a6,a1,a4
   230f8:	00082803          	lw	a6,0(a6)
   230fc:	00178793          	addi	a5,a5,1
   23100:	00458593          	addi	a1,a1,4
   23104:	ff05ae23          	sw	a6,-4(a1)
   23108:	fef556e3          	bge	a0,a5,230f4 <__subtf3+0x710>
   2310c:	00300593          	li	a1,3
   23110:	0b00006f          	j	231c0 <__subtf3+0x7dc>
   23114:	00271813          	slli	a6,a4,0x2
   23118:	010e0833          	add	a6,t3,a6
   2311c:	00082803          	lw	a6,0(a6)
   23120:	00170713          	addi	a4,a4,1 # 80001 <__global_pointer$+0x57d31>
   23124:	0106e6b3          	or	a3,a3,a6
   23128:	fadff06f          	j	230d4 <__subtf3+0x6f0>
   2312c:	04010593          	addi	a1,sp,64
   23130:	00281813          	slli	a6,a6,0x2
   23134:	01058833          	add	a6,a1,a6
   23138:	fd082583          	lw	a1,-48(a6)
   2313c:	02000313          	li	t1,32
   23140:	40f30333          	sub	t1,t1,a5
   23144:	006595b3          	sll	a1,a1,t1
   23148:	00b6e6b3          	or	a3,a3,a1
   2314c:	00ee05b3          	add	a1,t3,a4
   23150:	00300713          	li	a4,3
   23154:	00000893          	li	a7,0
   23158:	40a70733          	sub	a4,a4,a0
   2315c:	00458593          	addi	a1,a1,4
   23160:	02e8c463          	blt	a7,a4,23188 <__subtf3+0x7a4>
   23164:	04010593          	addi	a1,sp,64
   23168:	00271713          	slli	a4,a4,0x2
   2316c:	00e58733          	add	a4,a1,a4
   23170:	01c12583          	lw	a1,28(sp)
   23174:	00f5d7b3          	srl	a5,a1,a5
   23178:	fcf72823          	sw	a5,-48(a4)
   2317c:	00400793          	li	a5,4
   23180:	40a787b3          	sub	a5,a5,a0
   23184:	f89ff06f          	j	2310c <__subtf3+0x728>
   23188:	ffc5a803          	lw	a6,-4(a1)
   2318c:	0005af03          	lw	t5,0(a1)
   23190:	00289e93          	slli	t4,a7,0x2
   23194:	00f85833          	srl	a6,a6,a5
   23198:	006f1f33          	sll	t5,t5,t1
   2319c:	01de0eb3          	add	t4,t3,t4
   231a0:	01e86833          	or	a6,a6,t5
   231a4:	010ea023          	sw	a6,0(t4)
   231a8:	00188893          	addi	a7,a7,1
   231ac:	fb1ff06f          	j	2315c <__subtf3+0x778>
   231b0:	00279713          	slli	a4,a5,0x2
   231b4:	00ee0733          	add	a4,t3,a4
   231b8:	00072023          	sw	zero,0(a4)
   231bc:	00178793          	addi	a5,a5,1
   231c0:	fef5d8e3          	bge	a1,a5,231b0 <__subtf3+0x7cc>
   231c4:	01012783          	lw	a5,16(sp)
   231c8:	00d036b3          	snez	a3,a3
   231cc:	00d7e6b3          	or	a3,a5,a3
   231d0:	00d12823          	sw	a3,16(sp)
   231d4:	02012683          	lw	a3,32(sp)
   231d8:	01012783          	lw	a5,16(sp)
   231dc:	02412703          	lw	a4,36(sp)
   231e0:	01812503          	lw	a0,24(sp)
   231e4:	00f687b3          	add	a5,a3,a5
   231e8:	00d7b6b3          	sltu	a3,a5,a3
   231ec:	02f12823          	sw	a5,48(sp)
   231f0:	01412783          	lw	a5,20(sp)
   231f4:	01c12803          	lw	a6,28(sp)
   231f8:	00060413          	mv	s0,a2
   231fc:	00f707b3          	add	a5,a4,a5
   23200:	00d785b3          	add	a1,a5,a3
   23204:	00e7b733          	sltu	a4,a5,a4
   23208:	00d5b7b3          	sltu	a5,a1,a3
   2320c:	00f767b3          	or	a5,a4,a5
   23210:	02812703          	lw	a4,40(sp)
   23214:	02c12683          	lw	a3,44(sp)
   23218:	02b12a23          	sw	a1,52(sp)
   2321c:	00a70533          	add	a0,a4,a0
   23220:	00f505b3          	add	a1,a0,a5
   23224:	00e53733          	sltu	a4,a0,a4
   23228:	00f5b7b3          	sltu	a5,a1,a5
   2322c:	010686b3          	add	a3,a3,a6
   23230:	00f76733          	or	a4,a4,a5
   23234:	00e68733          	add	a4,a3,a4
   23238:	02b12c23          	sw	a1,56(sp)
   2323c:	02e12e23          	sw	a4,60(sp)
   23240:	b69ff06f          	j	22da8 <__subtf3+0x3c4>
   23244:	00008fb7          	lui	t6,0x8
   23248:	00140f13          	addi	t5,s0,1
   2324c:	ffef8613          	addi	a2,t6,-2 # 7ffe <threadsense.2617+0x7ffe>
   23250:	00cf7633          	and	a2,t5,a2
   23254:	02412683          	lw	a3,36(sp)
   23258:	02812583          	lw	a1,40(sp)
   2325c:	02c12503          	lw	a0,44(sp)
   23260:	01412303          	lw	t1,20(sp)
   23264:	01812883          	lw	a7,24(sp)
   23268:	01c12e03          	lw	t3,28(sp)
   2326c:	03010813          	addi	a6,sp,48
   23270:	03c10e93          	addi	t4,sp,60
   23274:	14061663          	bnez	a2,233c0 <__subtf3+0x9dc>
   23278:	01136633          	or	a2,t1,a7
   2327c:	01c66633          	or	a2,a2,t3
   23280:	00e66633          	or	a2,a2,a4
   23284:	0a041663          	bnez	s0,23330 <__subtf3+0x94c>
   23288:	00061c63          	bnez	a2,232a0 <__subtf3+0x8bc>
   2328c:	02f12823          	sw	a5,48(sp)
   23290:	02d12a23          	sw	a3,52(sp)
   23294:	02b12c23          	sw	a1,56(sp)
   23298:	02a12e23          	sw	a0,60(sp)
   2329c:	be1ff06f          	j	22e7c <__subtf3+0x498>
   232a0:	00b6e633          	or	a2,a3,a1
   232a4:	00a66633          	or	a2,a2,a0
   232a8:	00f66633          	or	a2,a2,a5
   232ac:	00061c63          	bnez	a2,232c4 <__subtf3+0x8e0>
   232b0:	02e12823          	sw	a4,48(sp)
   232b4:	02612a23          	sw	t1,52(sp)
   232b8:	03112c23          	sw	a7,56(sp)
   232bc:	03c12e23          	sw	t3,60(sp)
   232c0:	bbdff06f          	j	22e7c <__subtf3+0x498>
   232c4:	00f707b3          	add	a5,a4,a5
   232c8:	00e7b733          	sltu	a4,a5,a4
   232cc:	006686b3          	add	a3,a3,t1
   232d0:	02f12823          	sw	a5,48(sp)
   232d4:	00e687b3          	add	a5,a3,a4
   232d8:	00e7b733          	sltu	a4,a5,a4
   232dc:	0066b6b3          	sltu	a3,a3,t1
   232e0:	00e6e733          	or	a4,a3,a4
   232e4:	011585b3          	add	a1,a1,a7
   232e8:	02f12a23          	sw	a5,52(sp)
   232ec:	00e587b3          	add	a5,a1,a4
   232f0:	0115b633          	sltu	a2,a1,a7
   232f4:	00e7b733          	sltu	a4,a5,a4
   232f8:	00e66733          	or	a4,a2,a4
   232fc:	01c50633          	add	a2,a0,t3
   23300:	00c70633          	add	a2,a4,a2
   23304:	02f12c23          	sw	a5,56(sp)
   23308:	00c61793          	slli	a5,a2,0xc
   2330c:	0007c663          	bltz	a5,23318 <__subtf3+0x934>
   23310:	02c12e23          	sw	a2,60(sp)
   23314:	b69ff06f          	j	22e7c <__subtf3+0x498>
   23318:	fff80737          	lui	a4,0xfff80
   2331c:	fff70713          	addi	a4,a4,-1 # fff7ffff <__global_pointer$+0xfff57d2f>
   23320:	00e67633          	and	a2,a2,a4
   23324:	02c12e23          	sw	a2,60(sp)
   23328:	00100413          	li	s0,1
   2332c:	b51ff06f          	j	22e7c <__subtf3+0x498>
   23330:	00061e63          	bnez	a2,2334c <__subtf3+0x968>
   23334:	02f12823          	sw	a5,48(sp)
   23338:	02d12a23          	sw	a3,52(sp)
   2333c:	02b12c23          	sw	a1,56(sp)
   23340:	02a12e23          	sw	a0,60(sp)
   23344:	ffff8413          	addi	s0,t6,-1
   23348:	b35ff06f          	j	22e7c <__subtf3+0x498>
   2334c:	00b6e633          	or	a2,a3,a1
   23350:	00a66633          	or	a2,a2,a0
   23354:	00f667b3          	or	a5,a2,a5
   23358:	00079c63          	bnez	a5,23370 <__subtf3+0x98c>
   2335c:	02e12823          	sw	a4,48(sp)
   23360:	02612a23          	sw	t1,52(sp)
   23364:	03112c23          	sw	a7,56(sp)
   23368:	03c12e23          	sw	t3,60(sp)
   2336c:	fd9ff06f          	j	23344 <__subtf3+0x960>
   23370:	03f12e23          	sw	t6,60(sp)
   23374:	02012c23          	sw	zero,56(sp)
   23378:	02012a23          	sw	zero,52(sp)
   2337c:	02012823          	sw	zero,48(sp)
   23380:	000e8793          	mv	a5,t4
   23384:	0007a703          	lw	a4,0(a5)
   23388:	ffc7a683          	lw	a3,-4(a5)
   2338c:	ffc78793          	addi	a5,a5,-4
   23390:	00371713          	slli	a4,a4,0x3
   23394:	01d6d693          	srli	a3,a3,0x1d
   23398:	00d76733          	or	a4,a4,a3
   2339c:	00e7a223          	sw	a4,4(a5)
   233a0:	fef812e3          	bne	a6,a5,23384 <__subtf3+0x9a0>
   233a4:	03012783          	lw	a5,48(sp)
   233a8:	00008437          	lui	s0,0x8
   233ac:	00000913          	li	s2,0
   233b0:	00379793          	slli	a5,a5,0x3
   233b4:	02f12823          	sw	a5,48(sp)
   233b8:	fff40413          	addi	s0,s0,-1 # 7fff <threadsense.2617+0x7fff>
   233bc:	ac1ff06f          	j	22e7c <__subtf3+0x498>
   233c0:	00f707b3          	add	a5,a4,a5
   233c4:	00e7b733          	sltu	a4,a5,a4
   233c8:	006686b3          	add	a3,a3,t1
   233cc:	02f12823          	sw	a5,48(sp)
   233d0:	00e687b3          	add	a5,a3,a4
   233d4:	00e7b733          	sltu	a4,a5,a4
   233d8:	0066b6b3          	sltu	a3,a3,t1
   233dc:	00e6e733          	or	a4,a3,a4
   233e0:	01158633          	add	a2,a1,a7
   233e4:	00e606b3          	add	a3,a2,a4
   233e8:	00e6b733          	sltu	a4,a3,a4
   233ec:	01163633          	sltu	a2,a2,a7
   233f0:	00e66633          	or	a2,a2,a4
   233f4:	01c50733          	add	a4,a0,t3
   233f8:	00e60633          	add	a2,a2,a4
   233fc:	02f12a23          	sw	a5,52(sp)
   23400:	02d12c23          	sw	a3,56(sp)
   23404:	02c12e23          	sw	a2,60(sp)
   23408:	00080793          	mv	a5,a6
   2340c:	0007a703          	lw	a4,0(a5)
   23410:	0047a683          	lw	a3,4(a5)
   23414:	00478793          	addi	a5,a5,4
   23418:	00175713          	srli	a4,a4,0x1
   2341c:	01f69693          	slli	a3,a3,0x1f
   23420:	00d76733          	or	a4,a4,a3
   23424:	fee7ae23          	sw	a4,-4(a5)
   23428:	fefe92e3          	bne	t4,a5,2340c <__subtf3+0xa28>
   2342c:	000087b7          	lui	a5,0x8
   23430:	fff78793          	addi	a5,a5,-1 # 7fff <threadsense.2617+0x7fff>
   23434:	00ff0c63          	beq	t5,a5,2344c <__subtf3+0xa68>
   23438:	03c12783          	lw	a5,60(sp)
   2343c:	0017d793          	srli	a5,a5,0x1
   23440:	02f12e23          	sw	a5,60(sp)
   23444:	000f0413          	mv	s0,t5
   23448:	a35ff06f          	j	22e7c <__subtf3+0x498>
   2344c:	02012e23          	sw	zero,60(sp)
   23450:	02012c23          	sw	zero,56(sp)
   23454:	02012a23          	sw	zero,52(sp)
   23458:	02012823          	sw	zero,48(sp)
   2345c:	fe9ff06f          	j	23444 <__subtf3+0xa60>
   23460:	28a05263          	blez	a0,236e4 <__subtf3+0xd00>
   23464:	0c061263          	bnez	a2,23528 <__subtf3+0xb44>
   23468:	02412803          	lw	a6,36(sp)
   2346c:	02812603          	lw	a2,40(sp)
   23470:	02c12e03          	lw	t3,44(sp)
   23474:	00c865b3          	or	a1,a6,a2
   23478:	01c5e5b3          	or	a1,a1,t3
   2347c:	00f5e5b3          	or	a1,a1,a5
   23480:	ec058863          	beqz	a1,22b50 <__subtf3+0x16c>
   23484:	fff50693          	addi	a3,a0,-1
   23488:	06069a63          	bnez	a3,234fc <__subtf3+0xb18>
   2348c:	01412883          	lw	a7,20(sp)
   23490:	40f707b3          	sub	a5,a4,a5
   23494:	00f735b3          	sltu	a1,a4,a5
   23498:	41088533          	sub	a0,a7,a6
   2349c:	00a8b333          	sltu	t1,a7,a0
   234a0:	40b50533          	sub	a0,a0,a1
   234a4:	02f12823          	sw	a5,48(sp)
   234a8:	02a12a23          	sw	a0,52(sp)
   234ac:	00000593          	li	a1,0
   234b0:	00f77663          	bgeu	a4,a5,234bc <__subtf3+0xad8>
   234b4:	411805b3          	sub	a1,a6,a7
   234b8:	0015b593          	seqz	a1,a1
   234bc:	01812803          	lw	a6,24(sp)
   234c0:	0065e5b3          	or	a1,a1,t1
   234c4:	40c80533          	sub	a0,a6,a2
   234c8:	00a837b3          	sltu	a5,a6,a0
   234cc:	40b50533          	sub	a0,a0,a1
   234d0:	02a12c23          	sw	a0,56(sp)
   234d4:	00058663          	beqz	a1,234e0 <__subtf3+0xafc>
   234d8:	41060633          	sub	a2,a2,a6
   234dc:	00163693          	seqz	a3,a2
   234e0:	01c12703          	lw	a4,28(sp)
   234e4:	00f6e7b3          	or	a5,a3,a5
   234e8:	41c70733          	sub	a4,a4,t3
   234ec:	40f707b3          	sub	a5,a4,a5
   234f0:	02f12e23          	sw	a5,60(sp)
   234f4:	00100413          	li	s0,1
   234f8:	1cc0006f          	j	236c4 <__subtf3+0xce0>
   234fc:	000087b7          	lui	a5,0x8
   23500:	fff78793          	addi	a5,a5,-1 # 7fff <threadsense.2617+0x7fff>
   23504:	e4f50663          	beq	a0,a5,22b50 <__subtf3+0x16c>
   23508:	07400793          	li	a5,116
   2350c:	04d7d263          	bge	a5,a3,23550 <__subtf3+0xb6c>
   23510:	00100793          	li	a5,1
   23514:	02012623          	sw	zero,44(sp)
   23518:	02012423          	sw	zero,40(sp)
   2351c:	02012223          	sw	zero,36(sp)
   23520:	02f12023          	sw	a5,32(sp)
   23524:	1280006f          	j	2364c <__subtf3+0xc68>
   23528:	000087b7          	lui	a5,0x8
   2352c:	fff78793          	addi	a5,a5,-1 # 7fff <threadsense.2617+0x7fff>
   23530:	ecf40c63          	beq	s0,a5,22c08 <__subtf3+0x224>
   23534:	02c12783          	lw	a5,44(sp)
   23538:	00080737          	lui	a4,0x80
   2353c:	00e7e7b3          	or	a5,a5,a4
   23540:	02f12623          	sw	a5,44(sp)
   23544:	07400793          	li	a5,116
   23548:	fca7c4e3          	blt	a5,a0,23510 <__subtf3+0xb2c>
   2354c:	00050693          	mv	a3,a0
   23550:	4056de13          	srai	t3,a3,0x5
   23554:	01f6f793          	andi	a5,a3,31
   23558:	00000613          	li	a2,0
   2355c:	00000713          	li	a4,0
   23560:	00271693          	slli	a3,a4,0x2
   23564:	03c71863          	bne	a4,t3,23594 <__subtf3+0xbb0>
   23568:	04079063          	bnez	a5,235a8 <__subtf3+0xbc4>
   2356c:	00300593          	li	a1,3
   23570:	40e58733          	sub	a4,a1,a4
   23574:	00d885b3          	add	a1,a7,a3
   23578:	0005a583          	lw	a1,0(a1)
   2357c:	00178793          	addi	a5,a5,1
   23580:	00488893          	addi	a7,a7,4
   23584:	feb8ae23          	sw	a1,-4(a7)
   23588:	fef756e3          	bge	a4,a5,23574 <__subtf3+0xb90>
   2358c:	00400693          	li	a3,4
   23590:	0a80006f          	j	23638 <__subtf3+0xc54>
   23594:	00d306b3          	add	a3,t1,a3
   23598:	0006a683          	lw	a3,0(a3)
   2359c:	00170713          	addi	a4,a4,1 # 80001 <__global_pointer$+0x57d31>
   235a0:	00d66633          	or	a2,a2,a3
   235a4:	fbdff06f          	j	23560 <__subtf3+0xb7c>
   235a8:	04010713          	addi	a4,sp,64
   235ac:	00d70733          	add	a4,a4,a3
   235b0:	fe072703          	lw	a4,-32(a4)
   235b4:	02000813          	li	a6,32
   235b8:	40f80833          	sub	a6,a6,a5
   235bc:	01071733          	sll	a4,a4,a6
   235c0:	00e66633          	or	a2,a2,a4
   235c4:	00300713          	li	a4,3
   235c8:	00d306b3          	add	a3,t1,a3
   235cc:	00000513          	li	a0,0
   235d0:	41c70733          	sub	a4,a4,t3
   235d4:	00468693          	addi	a3,a3,4
   235d8:	02e54463          	blt	a0,a4,23600 <__subtf3+0xc1c>
   235dc:	04010693          	addi	a3,sp,64
   235e0:	00271713          	slli	a4,a4,0x2
   235e4:	00e68733          	add	a4,a3,a4
   235e8:	02c12683          	lw	a3,44(sp)
   235ec:	00f6d7b3          	srl	a5,a3,a5
   235f0:	fef72023          	sw	a5,-32(a4)
   235f4:	00400793          	li	a5,4
   235f8:	41c787b3          	sub	a5,a5,t3
   235fc:	f91ff06f          	j	2358c <__subtf3+0xba8>
   23600:	ffc6a583          	lw	a1,-4(a3)
   23604:	0006ae83          	lw	t4,0(a3)
   23608:	00251893          	slli	a7,a0,0x2
   2360c:	00f5d5b3          	srl	a1,a1,a5
   23610:	010e9eb3          	sll	t4,t4,a6
   23614:	011308b3          	add	a7,t1,a7
   23618:	01d5e5b3          	or	a1,a1,t4
   2361c:	00b8a023          	sw	a1,0(a7)
   23620:	00150513          	addi	a0,a0,1
   23624:	fb1ff06f          	j	235d4 <__subtf3+0xbf0>
   23628:	00279713          	slli	a4,a5,0x2
   2362c:	00e30733          	add	a4,t1,a4
   23630:	00072023          	sw	zero,0(a4)
   23634:	00178793          	addi	a5,a5,1
   23638:	fed798e3          	bne	a5,a3,23628 <__subtf3+0xc44>
   2363c:	02012783          	lw	a5,32(sp)
   23640:	00c03633          	snez	a2,a2
   23644:	00c7e633          	or	a2,a5,a2
   23648:	02c12023          	sw	a2,32(sp)
   2364c:	01412683          	lw	a3,20(sp)
   23650:	01012583          	lw	a1,16(sp)
   23654:	02012703          	lw	a4,32(sp)
   23658:	02412783          	lw	a5,36(sp)
   2365c:	40e58733          	sub	a4,a1,a4
   23660:	40f687b3          	sub	a5,a3,a5
   23664:	00f6b633          	sltu	a2,a3,a5
   23668:	00e5b6b3          	sltu	a3,a1,a4
   2366c:	40d786b3          	sub	a3,a5,a3
   23670:	02d12a23          	sw	a3,52(sp)
   23674:	02e12823          	sw	a4,48(sp)
   23678:	00000693          	li	a3,0
   2367c:	00e5f463          	bgeu	a1,a4,23684 <__subtf3+0xca0>
   23680:	0017b693          	seqz	a3,a5
   23684:	00c6e6b3          	or	a3,a3,a2
   23688:	02812703          	lw	a4,40(sp)
   2368c:	01812603          	lw	a2,24(sp)
   23690:	40e60733          	sub	a4,a2,a4
   23694:	40d707b3          	sub	a5,a4,a3
   23698:	02f12c23          	sw	a5,56(sp)
   2369c:	00e635b3          	sltu	a1,a2,a4
   236a0:	00000613          	li	a2,0
   236a4:	00068463          	beqz	a3,236ac <__subtf3+0xcc8>
   236a8:	00173613          	seqz	a2,a4
   236ac:	01c12783          	lw	a5,28(sp)
   236b0:	02c12703          	lw	a4,44(sp)
   236b4:	00b66633          	or	a2,a2,a1
   236b8:	40e787b3          	sub	a5,a5,a4
   236bc:	40c787b3          	sub	a5,a5,a2
   236c0:	02f12e23          	sw	a5,60(sp)
   236c4:	03c12783          	lw	a5,60(sp)
   236c8:	00c79713          	slli	a4,a5,0xc
   236cc:	fa075863          	bgez	a4,22e7c <__subtf3+0x498>
   236d0:	00080737          	lui	a4,0x80
   236d4:	fff70713          	addi	a4,a4,-1 # 7ffff <__global_pointer$+0x57d2f>
   236d8:	00e7f7b3          	and	a5,a5,a4
   236dc:	02f12e23          	sw	a5,60(sp)
   236e0:	5a40006f          	j	23c84 <__subtf3+0x12a0>
   236e4:	2c050e63          	beqz	a0,239c0 <__subtf3+0xfdc>
   236e8:	408606b3          	sub	a3,a2,s0
   236ec:	0e041663          	bnez	s0,237d8 <__subtf3+0xdf4>
   236f0:	01412303          	lw	t1,20(sp)
   236f4:	01812883          	lw	a7,24(sp)
   236f8:	01c12f03          	lw	t5,28(sp)
   236fc:	01136eb3          	or	t4,t1,a7
   23700:	01eeeeb3          	or	t4,t4,t5
   23704:	00eeeeb3          	or	t4,t4,a4
   23708:	020e9663          	bnez	t4,23734 <__subtf3+0xd50>
   2370c:	02f12823          	sw	a5,48(sp)
   23710:	02412783          	lw	a5,36(sp)
   23714:	00068413          	mv	s0,a3
   23718:	02f12a23          	sw	a5,52(sp)
   2371c:	02812783          	lw	a5,40(sp)
   23720:	02f12c23          	sw	a5,56(sp)
   23724:	02c12783          	lw	a5,44(sp)
   23728:	02f12e23          	sw	a5,60(sp)
   2372c:	00080913          	mv	s2,a6
   23730:	f4cff06f          	j	22e7c <__subtf3+0x498>
   23734:	fff68513          	addi	a0,a3,-1
   23738:	06051a63          	bnez	a0,237ac <__subtf3+0xdc8>
   2373c:	02412583          	lw	a1,36(sp)
   23740:	40e78733          	sub	a4,a5,a4
   23744:	00e7b6b3          	sltu	a3,a5,a4
   23748:	40658633          	sub	a2,a1,t1
   2374c:	00c5be33          	sltu	t3,a1,a2
   23750:	40d60633          	sub	a2,a2,a3
   23754:	02e12823          	sw	a4,48(sp)
   23758:	02c12a23          	sw	a2,52(sp)
   2375c:	00000693          	li	a3,0
   23760:	00e7f663          	bgeu	a5,a4,2376c <__subtf3+0xd88>
   23764:	40b306b3          	sub	a3,t1,a1
   23768:	0016b693          	seqz	a3,a3
   2376c:	02812583          	lw	a1,40(sp)
   23770:	01c6e733          	or	a4,a3,t3
   23774:	411586b3          	sub	a3,a1,a7
   23778:	00d5b633          	sltu	a2,a1,a3
   2377c:	40e686b3          	sub	a3,a3,a4
   23780:	02d12c23          	sw	a3,56(sp)
   23784:	00070663          	beqz	a4,23790 <__subtf3+0xdac>
   23788:	40b888b3          	sub	a7,a7,a1
   2378c:	0018b513          	seqz	a0,a7
   23790:	02c12783          	lw	a5,44(sp)
   23794:	00c56533          	or	a0,a0,a2
   23798:	00080913          	mv	s2,a6
   2379c:	41e787b3          	sub	a5,a5,t5
   237a0:	40a78533          	sub	a0,a5,a0
   237a4:	02a12e23          	sw	a0,60(sp)
   237a8:	d4dff06f          	j	234f4 <__subtf3+0xb10>
   237ac:	00008737          	lui	a4,0x8
   237b0:	fff70713          	addi	a4,a4,-1 # 7fff <threadsense.2617+0x7fff>
   237b4:	f4e68ce3          	beq	a3,a4,2370c <__subtf3+0xd28>
   237b8:	07400793          	li	a5,116
   237bc:	0aa7dc63          	bge	a5,a0,23874 <__subtf3+0xe90>
   237c0:	00100793          	li	a5,1
   237c4:	00012e23          	sw	zero,28(sp)
   237c8:	00012c23          	sw	zero,24(sp)
   237cc:	00012a23          	sw	zero,20(sp)
   237d0:	00f12823          	sw	a5,16(sp)
   237d4:	1680006f          	j	2393c <__subtf3+0xf58>
   237d8:	00008737          	lui	a4,0x8
   237dc:	fff70713          	addi	a4,a4,-1 # 7fff <threadsense.2617+0x7fff>
   237e0:	02e61463          	bne	a2,a4,23808 <__subtf3+0xe24>
   237e4:	02f12823          	sw	a5,48(sp)
   237e8:	02412783          	lw	a5,36(sp)
   237ec:	00060413          	mv	s0,a2
   237f0:	02f12a23          	sw	a5,52(sp)
   237f4:	02812783          	lw	a5,40(sp)
   237f8:	02f12c23          	sw	a5,56(sp)
   237fc:	02c12783          	lw	a5,44(sp)
   23800:	02f12e23          	sw	a5,60(sp)
   23804:	f29ff06f          	j	2372c <__subtf3+0xd48>
   23808:	01c12783          	lw	a5,28(sp)
   2380c:	00080737          	lui	a4,0x80
   23810:	00e7e7b3          	or	a5,a5,a4
   23814:	00f12e23          	sw	a5,28(sp)
   23818:	07400793          	li	a5,116
   2381c:	fad7c2e3          	blt	a5,a3,237c0 <__subtf3+0xddc>
   23820:	02000793          	li	a5,32
   23824:	02f6c533          	div	a0,a3,a5
   23828:	00000713          	li	a4,0
   2382c:	02f6e7b3          	rem	a5,a3,a5
   23830:	00000693          	li	a3,0
   23834:	04a74463          	blt	a4,a0,2387c <__subtf3+0xe98>
   23838:	00050893          	mv	a7,a0
   2383c:	00055463          	bgez	a0,23844 <__subtf3+0xe60>
   23840:	00000893          	li	a7,0
   23844:	00251713          	slli	a4,a0,0x2
   23848:	04079663          	bnez	a5,23894 <__subtf3+0xeb0>
   2384c:	00300893          	li	a7,3
   23850:	40a88533          	sub	a0,a7,a0
   23854:	00e588b3          	add	a7,a1,a4
   23858:	0008a883          	lw	a7,0(a7)
   2385c:	00178793          	addi	a5,a5,1
   23860:	00458593          	addi	a1,a1,4
   23864:	ff15ae23          	sw	a7,-4(a1)
   23868:	fef556e3          	bge	a0,a5,23854 <__subtf3+0xe70>
   2386c:	00300593          	li	a1,3
   23870:	0b80006f          	j	23928 <__subtf3+0xf44>
   23874:	00050693          	mv	a3,a0
   23878:	fa9ff06f          	j	23820 <__subtf3+0xe3c>
   2387c:	00271893          	slli	a7,a4,0x2
   23880:	011e08b3          	add	a7,t3,a7
   23884:	0008a883          	lw	a7,0(a7)
   23888:	00170713          	addi	a4,a4,1 # 80001 <__global_pointer$+0x57d31>
   2388c:	0116e6b3          	or	a3,a3,a7
   23890:	fa5ff06f          	j	23834 <__subtf3+0xe50>
   23894:	04010593          	addi	a1,sp,64
   23898:	00289893          	slli	a7,a7,0x2
   2389c:	011588b3          	add	a7,a1,a7
   238a0:	fd08a583          	lw	a1,-48(a7)
   238a4:	02000e93          	li	t4,32
   238a8:	40fe8eb3          	sub	t4,t4,a5
   238ac:	01d595b3          	sll	a1,a1,t4
   238b0:	00b6e6b3          	or	a3,a3,a1
   238b4:	00ee05b3          	add	a1,t3,a4
   238b8:	00300713          	li	a4,3
   238bc:	00000313          	li	t1,0
   238c0:	40a70733          	sub	a4,a4,a0
   238c4:	00458593          	addi	a1,a1,4
   238c8:	02e34463          	blt	t1,a4,238f0 <__subtf3+0xf0c>
   238cc:	04010593          	addi	a1,sp,64
   238d0:	00271713          	slli	a4,a4,0x2
   238d4:	00e58733          	add	a4,a1,a4
   238d8:	01c12583          	lw	a1,28(sp)
   238dc:	00f5d7b3          	srl	a5,a1,a5
   238e0:	fcf72823          	sw	a5,-48(a4)
   238e4:	00400793          	li	a5,4
   238e8:	40a787b3          	sub	a5,a5,a0
   238ec:	f81ff06f          	j	2386c <__subtf3+0xe88>
   238f0:	ffc5a883          	lw	a7,-4(a1)
   238f4:	0005af83          	lw	t6,0(a1)
   238f8:	00231f13          	slli	t5,t1,0x2
   238fc:	00f8d8b3          	srl	a7,a7,a5
   23900:	01df9fb3          	sll	t6,t6,t4
   23904:	01ee0f33          	add	t5,t3,t5
   23908:	01f8e8b3          	or	a7,a7,t6
   2390c:	011f2023          	sw	a7,0(t5)
   23910:	00130313          	addi	t1,t1,1
   23914:	fb1ff06f          	j	238c4 <__subtf3+0xee0>
   23918:	00279713          	slli	a4,a5,0x2
   2391c:	00ee0733          	add	a4,t3,a4
   23920:	00072023          	sw	zero,0(a4)
   23924:	00178793          	addi	a5,a5,1
   23928:	fef5d8e3          	bge	a1,a5,23918 <__subtf3+0xf34>
   2392c:	01012783          	lw	a5,16(sp)
   23930:	00d036b3          	snez	a3,a3
   23934:	00d7e6b3          	or	a3,a5,a3
   23938:	00d12823          	sw	a3,16(sp)
   2393c:	02412683          	lw	a3,36(sp)
   23940:	02012503          	lw	a0,32(sp)
   23944:	01012703          	lw	a4,16(sp)
   23948:	01412783          	lw	a5,20(sp)
   2394c:	40e50733          	sub	a4,a0,a4
   23950:	40f687b3          	sub	a5,a3,a5
   23954:	00f6b5b3          	sltu	a1,a3,a5
   23958:	00e536b3          	sltu	a3,a0,a4
   2395c:	40d786b3          	sub	a3,a5,a3
   23960:	02d12a23          	sw	a3,52(sp)
   23964:	02e12823          	sw	a4,48(sp)
   23968:	00000693          	li	a3,0
   2396c:	00e57463          	bgeu	a0,a4,23974 <__subtf3+0xf90>
   23970:	0017b693          	seqz	a3,a5
   23974:	00b6e6b3          	or	a3,a3,a1
   23978:	01812703          	lw	a4,24(sp)
   2397c:	02812583          	lw	a1,40(sp)
   23980:	40e58733          	sub	a4,a1,a4
   23984:	40d707b3          	sub	a5,a4,a3
   23988:	02f12c23          	sw	a5,56(sp)
   2398c:	00e5b533          	sltu	a0,a1,a4
   23990:	00000593          	li	a1,0
   23994:	00068463          	beqz	a3,2399c <__subtf3+0xfb8>
   23998:	00173593          	seqz	a1,a4
   2399c:	02c12783          	lw	a5,44(sp)
   239a0:	01c12703          	lw	a4,28(sp)
   239a4:	00a5e5b3          	or	a1,a1,a0
   239a8:	00060413          	mv	s0,a2
   239ac:	40e787b3          	sub	a5,a5,a4
   239b0:	40b787b3          	sub	a5,a5,a1
   239b4:	02f12e23          	sw	a5,60(sp)
   239b8:	00080913          	mv	s2,a6
   239bc:	d09ff06f          	j	236c4 <__subtf3+0xce0>
   239c0:	00008f37          	lui	t5,0x8
   239c4:	ffef0693          	addi	a3,t5,-2 # 7ffe <threadsense.2617+0x7ffe>
   239c8:	00140593          	addi	a1,s0,1
   239cc:	00d5f5b3          	and	a1,a1,a3
   239d0:	02412603          	lw	a2,36(sp)
   239d4:	01412683          	lw	a3,20(sp)
   239d8:	01812883          	lw	a7,24(sp)
   239dc:	01c12e83          	lw	t4,28(sp)
   239e0:	02812303          	lw	t1,40(sp)
   239e4:	02c12e03          	lw	t3,44(sp)
   239e8:	1e059063          	bnez	a1,23bc8 <__subtf3+0x11e4>
   239ec:	006665b3          	or	a1,a2,t1
   239f0:	0116e533          	or	a0,a3,a7
   239f4:	01c5e5b3          	or	a1,a1,t3
   239f8:	01d56533          	or	a0,a0,t4
   239fc:	00f5e5b3          	or	a1,a1,a5
   23a00:	00e56533          	or	a0,a0,a4
   23a04:	10041a63          	bnez	s0,23b18 <__subtf3+0x1134>
   23a08:	02051463          	bnez	a0,23a30 <__subtf3+0x104c>
   23a0c:	02f12823          	sw	a5,48(sp)
   23a10:	02c12a23          	sw	a2,52(sp)
   23a14:	02612c23          	sw	t1,56(sp)
   23a18:	03c12e23          	sw	t3,60(sp)
   23a1c:	00080913          	mv	s2,a6
   23a20:	c4059e63          	bnez	a1,22e7c <__subtf3+0x498>
   23a24:	00000413          	li	s0,0
   23a28:	00000913          	li	s2,0
   23a2c:	c50ff06f          	j	22e7c <__subtf3+0x498>
   23a30:	00059c63          	bnez	a1,23a48 <__subtf3+0x1064>
   23a34:	02e12823          	sw	a4,48(sp)
   23a38:	02d12a23          	sw	a3,52(sp)
   23a3c:	03112c23          	sw	a7,56(sp)
   23a40:	03d12e23          	sw	t4,60(sp)
   23a44:	c38ff06f          	j	22e7c <__subtf3+0x498>
   23a48:	40f705b3          	sub	a1,a4,a5
   23a4c:	40c68fb3          	sub	t6,a3,a2
   23a50:	00b73f33          	sltu	t5,a4,a1
   23a54:	01f6b533          	sltu	a0,a3,t6
   23a58:	41ef8fb3          	sub	t6,t6,t5
   23a5c:	02b12823          	sw	a1,48(sp)
   23a60:	03f12a23          	sw	t6,52(sp)
   23a64:	00000f13          	li	t5,0
   23a68:	00b77663          	bgeu	a4,a1,23a74 <__subtf3+0x1090>
   23a6c:	40d60f33          	sub	t5,a2,a3
   23a70:	001f3f13          	seqz	t5,t5
   23a74:	406882b3          	sub	t0,a7,t1
   23a78:	00af6f33          	or	t5,t5,a0
   23a7c:	41e289b3          	sub	s3,t0,t5
   23a80:	03312c23          	sw	s3,56(sp)
   23a84:	0058ba33          	sltu	s4,a7,t0
   23a88:	00000393          	li	t2,0
   23a8c:	000f0463          	beqz	t5,23a94 <__subtf3+0x10b0>
   23a90:	0012b393          	seqz	t2,t0
   23a94:	41ce8533          	sub	a0,t4,t3
   23a98:	0143e3b3          	or	t2,t2,s4
   23a9c:	40750533          	sub	a0,a0,t2
   23aa0:	02a12e23          	sw	a0,60(sp)
   23aa4:	00c51f13          	slli	t5,a0,0xc
   23aa8:	060f5063          	bgez	t5,23b08 <__subtf3+0x1124>
   23aac:	40e78733          	sub	a4,a5,a4
   23ab0:	40d606b3          	sub	a3,a2,a3
   23ab4:	00e7b5b3          	sltu	a1,a5,a4
   23ab8:	40b685b3          	sub	a1,a3,a1
   23abc:	02b12a23          	sw	a1,52(sp)
   23ac0:	02e12823          	sw	a4,48(sp)
   23ac4:	00d63633          	sltu	a2,a2,a3
   23ac8:	00000593          	li	a1,0
   23acc:	00e7f463          	bgeu	a5,a4,23ad4 <__subtf3+0x10f0>
   23ad0:	0016b593          	seqz	a1,a3
   23ad4:	00c5e633          	or	a2,a1,a2
   23ad8:	41130733          	sub	a4,t1,a7
   23adc:	00e336b3          	sltu	a3,t1,a4
   23ae0:	40c70733          	sub	a4,a4,a2
   23ae4:	02e12c23          	sw	a4,56(sp)
   23ae8:	00000593          	li	a1,0
   23aec:	00060463          	beqz	a2,23af4 <__subtf3+0x1110>
   23af0:	0012b593          	seqz	a1,t0
   23af4:	41de0733          	sub	a4,t3,t4
   23af8:	00d5e5b3          	or	a1,a1,a3
   23afc:	40b705b3          	sub	a1,a4,a1
   23b00:	02b12e23          	sw	a1,60(sp)
   23b04:	c29ff06f          	j	2372c <__subtf3+0xd48>
   23b08:	01f5e5b3          	or	a1,a1,t6
   23b0c:	0135e5b3          	or	a1,a1,s3
   23b10:	00a5e5b3          	or	a1,a1,a0
   23b14:	f0dff06f          	j	23a20 <__subtf3+0x103c>
   23b18:	03010f93          	addi	t6,sp,48
   23b1c:	04051e63          	bnez	a0,23b78 <__subtf3+0x1194>
   23b20:	02059e63          	bnez	a1,23b5c <__subtf3+0x1178>
   23b24:	03e12e23          	sw	t5,60(sp)
   23b28:	02012c23          	sw	zero,56(sp)
   23b2c:	02012a23          	sw	zero,52(sp)
   23b30:	02012823          	sw	zero,48(sp)
   23b34:	03c10793          	addi	a5,sp,60
   23b38:	0007a703          	lw	a4,0(a5)
   23b3c:	ffc7a683          	lw	a3,-4(a5)
   23b40:	ffc78793          	addi	a5,a5,-4
   23b44:	00371713          	slli	a4,a4,0x3
   23b48:	01d6d693          	srli	a3,a3,0x1d
   23b4c:	00d76733          	or	a4,a4,a3
   23b50:	00e7a223          	sw	a4,4(a5)
   23b54:	feff92e3          	bne	t6,a5,23b38 <__subtf3+0x1154>
   23b58:	84dff06f          	j	233a4 <__subtf3+0x9c0>
   23b5c:	02f12823          	sw	a5,48(sp)
   23b60:	02c12a23          	sw	a2,52(sp)
   23b64:	02612c23          	sw	t1,56(sp)
   23b68:	03c12e23          	sw	t3,60(sp)
   23b6c:	00080913          	mv	s2,a6
   23b70:	ffff0413          	addi	s0,t5,-1
   23b74:	b08ff06f          	j	22e7c <__subtf3+0x498>
   23b78:	00059c63          	bnez	a1,23b90 <__subtf3+0x11ac>
   23b7c:	02e12823          	sw	a4,48(sp)
   23b80:	02d12a23          	sw	a3,52(sp)
   23b84:	03112c23          	sw	a7,56(sp)
   23b88:	03d12e23          	sw	t4,60(sp)
   23b8c:	fe5ff06f          	j	23b70 <__subtf3+0x118c>
   23b90:	03e12e23          	sw	t5,60(sp)
   23b94:	02012c23          	sw	zero,56(sp)
   23b98:	02012a23          	sw	zero,52(sp)
   23b9c:	02012823          	sw	zero,48(sp)
   23ba0:	03c10793          	addi	a5,sp,60
   23ba4:	0007a703          	lw	a4,0(a5)
   23ba8:	ffc7a683          	lw	a3,-4(a5)
   23bac:	ffc78793          	addi	a5,a5,-4
   23bb0:	00371713          	slli	a4,a4,0x3
   23bb4:	01d6d693          	srli	a3,a3,0x1d
   23bb8:	00d76733          	or	a4,a4,a3
   23bbc:	00e7a223          	sw	a4,4(a5)
   23bc0:	feff92e3          	bne	t6,a5,23ba4 <__subtf3+0x11c0>
   23bc4:	fe0ff06f          	j	233a4 <__subtf3+0x9c0>
   23bc8:	40f705b3          	sub	a1,a4,a5
   23bcc:	40c682b3          	sub	t0,a3,a2
   23bd0:	00b73fb3          	sltu	t6,a4,a1
   23bd4:	0056bf33          	sltu	t5,a3,t0
   23bd8:	41f282b3          	sub	t0,t0,t6
   23bdc:	02b12823          	sw	a1,48(sp)
   23be0:	02512a23          	sw	t0,52(sp)
   23be4:	00000f93          	li	t6,0
   23be8:	00b77663          	bgeu	a4,a1,23bf4 <__subtf3+0x1210>
   23bec:	40d60fb3          	sub	t6,a2,a3
   23bf0:	001fbf93          	seqz	t6,t6
   23bf4:	406883b3          	sub	t2,a7,t1
   23bf8:	01efefb3          	or	t6,t6,t5
   23bfc:	41f38a33          	sub	s4,t2,t6
   23c00:	03412c23          	sw	s4,56(sp)
   23c04:	0078bab3          	sltu	s5,a7,t2
   23c08:	00000993          	li	s3,0
   23c0c:	000f8463          	beqz	t6,23c14 <__subtf3+0x1230>
   23c10:	0013b993          	seqz	s3,t2
   23c14:	41ce8f33          	sub	t5,t4,t3
   23c18:	0159e9b3          	or	s3,s3,s5
   23c1c:	413f0f33          	sub	t5,t5,s3
   23c20:	03e12e23          	sw	t5,60(sp)
   23c24:	00cf1f93          	slli	t6,t5,0xc
   23c28:	0a0fde63          	bgez	t6,23ce4 <__subtf3+0x1300>
   23c2c:	40e78733          	sub	a4,a5,a4
   23c30:	40d606b3          	sub	a3,a2,a3
   23c34:	00e7b5b3          	sltu	a1,a5,a4
   23c38:	40b685b3          	sub	a1,a3,a1
   23c3c:	02b12a23          	sw	a1,52(sp)
   23c40:	02e12823          	sw	a4,48(sp)
   23c44:	00d63633          	sltu	a2,a2,a3
   23c48:	00000593          	li	a1,0
   23c4c:	00e7f463          	bgeu	a5,a4,23c54 <__subtf3+0x1270>
   23c50:	0016b593          	seqz	a1,a3
   23c54:	41130733          	sub	a4,t1,a7
   23c58:	00c5e633          	or	a2,a1,a2
   23c5c:	00e336b3          	sltu	a3,t1,a4
   23c60:	40c70733          	sub	a4,a4,a2
   23c64:	02e12c23          	sw	a4,56(sp)
   23c68:	00060463          	beqz	a2,23c70 <__subtf3+0x128c>
   23c6c:	0013b513          	seqz	a0,t2
   23c70:	41de0733          	sub	a4,t3,t4
   23c74:	00d567b3          	or	a5,a0,a3
   23c78:	40f707b3          	sub	a5,a4,a5
   23c7c:	02f12e23          	sw	a5,60(sp)
   23c80:	00080913          	mv	s2,a6
   23c84:	03c12503          	lw	a0,60(sp)
   23c88:	06050863          	beqz	a0,23cf8 <__subtf3+0x1314>
   23c8c:	f50ed0ef          	jal	ra,113dc <__clzsi2>
   23c90:	ff450513          	addi	a0,a0,-12
   23c94:	02000693          	li	a3,32
   23c98:	02d56833          	rem	a6,a0,a3
   23c9c:	02d547b3          	div	a5,a0,a3
   23ca0:	08080863          	beqz	a6,23d30 <__subtf3+0x134c>
   23ca4:	ffc00713          	li	a4,-4
   23ca8:	03010313          	addi	t1,sp,48
   23cac:	00279593          	slli	a1,a5,0x2
   23cb0:	410686b3          	sub	a3,a3,a6
   23cb4:	02e78733          	mul	a4,a5,a4
   23cb8:	00c70713          	addi	a4,a4,12
   23cbc:	00e30733          	add	a4,t1,a4
   23cc0:	0ae31063          	bne	t1,a4,23d60 <__subtf3+0x137c>
   23cc4:	04010713          	addi	a4,sp,64
   23cc8:	00b705b3          	add	a1,a4,a1
   23ccc:	03012703          	lw	a4,48(sp)
   23cd0:	fff78793          	addi	a5,a5,-1
   23cd4:	01071833          	sll	a6,a4,a6
   23cd8:	ff05a823          	sw	a6,-16(a1)
   23cdc:	fff00693          	li	a3,-1
   23ce0:	0b80006f          	j	23d98 <__subtf3+0x13b4>
   23ce4:	0055e5b3          	or	a1,a1,t0
   23ce8:	0145e5b3          	or	a1,a1,s4
   23cec:	01e5e5b3          	or	a1,a1,t5
   23cf0:	d2058ae3          	beqz	a1,23a24 <__subtf3+0x1040>
   23cf4:	f91ff06f          	j	23c84 <__subtf3+0x12a0>
   23cf8:	03812503          	lw	a0,56(sp)
   23cfc:	00050863          	beqz	a0,23d0c <__subtf3+0x1328>
   23d00:	edced0ef          	jal	ra,113dc <__clzsi2>
   23d04:	02050513          	addi	a0,a0,32
   23d08:	f89ff06f          	j	23c90 <__subtf3+0x12ac>
   23d0c:	03412503          	lw	a0,52(sp)
   23d10:	00050863          	beqz	a0,23d20 <__subtf3+0x133c>
   23d14:	ec8ed0ef          	jal	ra,113dc <__clzsi2>
   23d18:	04050513          	addi	a0,a0,64
   23d1c:	f75ff06f          	j	23c90 <__subtf3+0x12ac>
   23d20:	03012503          	lw	a0,48(sp)
   23d24:	eb8ed0ef          	jal	ra,113dc <__clzsi2>
   23d28:	06050513          	addi	a0,a0,96
   23d2c:	f65ff06f          	j	23c90 <__subtf3+0x12ac>
   23d30:	ffc00613          	li	a2,-4
   23d34:	02c78633          	mul	a2,a5,a2
   23d38:	03c10713          	addi	a4,sp,60
   23d3c:	00300693          	li	a3,3
   23d40:	00c705b3          	add	a1,a4,a2
   23d44:	0005a583          	lw	a1,0(a1)
   23d48:	fff68693          	addi	a3,a3,-1
   23d4c:	ffc70713          	addi	a4,a4,-4
   23d50:	00b72223          	sw	a1,4(a4)
   23d54:	fef6d6e3          	bge	a3,a5,23d40 <__subtf3+0x135c>
   23d58:	fff78793          	addi	a5,a5,-1
   23d5c:	f81ff06f          	j	23cdc <__subtf3+0x12f8>
   23d60:	ffc72603          	lw	a2,-4(a4)
   23d64:	00072883          	lw	a7,0(a4)
   23d68:	00b70e33          	add	t3,a4,a1
   23d6c:	00d65633          	srl	a2,a2,a3
   23d70:	010898b3          	sll	a7,a7,a6
   23d74:	01166633          	or	a2,a2,a7
   23d78:	00ce2023          	sw	a2,0(t3)
   23d7c:	ffc70713          	addi	a4,a4,-4
   23d80:	f41ff06f          	j	23cc0 <__subtf3+0x12dc>
   23d84:	00279713          	slli	a4,a5,0x2
   23d88:	03010613          	addi	a2,sp,48
   23d8c:	00e60733          	add	a4,a2,a4
   23d90:	00072023          	sw	zero,0(a4)
   23d94:	fff78793          	addi	a5,a5,-1
   23d98:	fed796e3          	bne	a5,a3,23d84 <__subtf3+0x13a0>
   23d9c:	12854e63          	blt	a0,s0,23ed8 <__subtf3+0x14f4>
   23da0:	40850433          	sub	s0,a0,s0
   23da4:	00140413          	addi	s0,s0,1
   23da8:	02000793          	li	a5,32
   23dac:	02f44833          	div	a6,s0,a5
   23db0:	00000513          	li	a0,0
   23db4:	00000713          	li	a4,0
   23db8:	02f46433          	rem	s0,s0,a5
   23dbc:	05074263          	blt	a4,a6,23e00 <__subtf3+0x141c>
   23dc0:	00080693          	mv	a3,a6
   23dc4:	00085463          	bgez	a6,23dcc <__subtf3+0x13e8>
   23dc8:	00000693          	li	a3,0
   23dcc:	00281713          	slli	a4,a6,0x2
   23dd0:	04041663          	bnez	s0,23e1c <__subtf3+0x1438>
   23dd4:	00300793          	li	a5,3
   23dd8:	03010693          	addi	a3,sp,48
   23ddc:	41078833          	sub	a6,a5,a6
   23de0:	00e687b3          	add	a5,a3,a4
   23de4:	0007a783          	lw	a5,0(a5)
   23de8:	00140413          	addi	s0,s0,1
   23dec:	00468693          	addi	a3,a3,4
   23df0:	fef6ae23          	sw	a5,-4(a3)
   23df4:	fe8856e3          	bge	a6,s0,23de0 <__subtf3+0x13fc>
   23df8:	00300713          	li	a4,3
   23dfc:	0c00006f          	j	23ebc <__subtf3+0x14d8>
   23e00:	00271793          	slli	a5,a4,0x2
   23e04:	03010693          	addi	a3,sp,48
   23e08:	00f687b3          	add	a5,a3,a5
   23e0c:	0007a783          	lw	a5,0(a5)
   23e10:	00170713          	addi	a4,a4,1
   23e14:	00f56533          	or	a0,a0,a5
   23e18:	fa5ff06f          	j	23dbc <__subtf3+0x13d8>
   23e1c:	04010793          	addi	a5,sp,64
   23e20:	00269693          	slli	a3,a3,0x2
   23e24:	00d786b3          	add	a3,a5,a3
   23e28:	ff06a783          	lw	a5,-16(a3)
   23e2c:	02000593          	li	a1,32
   23e30:	408585b3          	sub	a1,a1,s0
   23e34:	00b797b3          	sll	a5,a5,a1
   23e38:	00f56533          	or	a0,a0,a5
   23e3c:	03010793          	addi	a5,sp,48
   23e40:	00e78733          	add	a4,a5,a4
   23e44:	00300793          	li	a5,3
   23e48:	00000613          	li	a2,0
   23e4c:	410787b3          	sub	a5,a5,a6
   23e50:	00470713          	addi	a4,a4,4
   23e54:	02f64463          	blt	a2,a5,23e7c <__subtf3+0x1498>
   23e58:	04010713          	addi	a4,sp,64
   23e5c:	00279793          	slli	a5,a5,0x2
   23e60:	00f707b3          	add	a5,a4,a5
   23e64:	03c12703          	lw	a4,60(sp)
   23e68:	00875433          	srl	s0,a4,s0
   23e6c:	fe87a823          	sw	s0,-16(a5)
   23e70:	00400413          	li	s0,4
   23e74:	41040433          	sub	s0,s0,a6
   23e78:	f81ff06f          	j	23df8 <__subtf3+0x1414>
   23e7c:	00261893          	slli	a7,a2,0x2
   23e80:	03010693          	addi	a3,sp,48
   23e84:	011688b3          	add	a7,a3,a7
   23e88:	00072303          	lw	t1,0(a4)
   23e8c:	ffc72683          	lw	a3,-4(a4)
   23e90:	00160613          	addi	a2,a2,1
   23e94:	00b31333          	sll	t1,t1,a1
   23e98:	0086d6b3          	srl	a3,a3,s0
   23e9c:	0066e6b3          	or	a3,a3,t1
   23ea0:	00d8a023          	sw	a3,0(a7)
   23ea4:	fadff06f          	j	23e50 <__subtf3+0x146c>
   23ea8:	00241793          	slli	a5,s0,0x2
   23eac:	03010693          	addi	a3,sp,48
   23eb0:	00f687b3          	add	a5,a3,a5
   23eb4:	0007a023          	sw	zero,0(a5)
   23eb8:	00140413          	addi	s0,s0,1
   23ebc:	fe8756e3          	bge	a4,s0,23ea8 <__subtf3+0x14c4>
   23ec0:	03012703          	lw	a4,48(sp)
   23ec4:	00a037b3          	snez	a5,a0
   23ec8:	00000413          	li	s0,0
   23ecc:	00f767b3          	or	a5,a4,a5
   23ed0:	02f12823          	sw	a5,48(sp)
   23ed4:	fa9fe06f          	j	22e7c <__subtf3+0x498>
   23ed8:	03c12783          	lw	a5,60(sp)
   23edc:	fff80737          	lui	a4,0xfff80
   23ee0:	fff70713          	addi	a4,a4,-1 # fff7ffff <__global_pointer$+0xfff57d2f>
   23ee4:	40a40433          	sub	s0,s0,a0
   23ee8:	00e7f7b3          	and	a5,a5,a4
   23eec:	d35fe06f          	j	22c20 <__subtf3+0x23c>
   23ef0:	02012e23          	sw	zero,60(sp)
   23ef4:	02012c23          	sw	zero,56(sp)
   23ef8:	02012a23          	sw	zero,52(sp)
   23efc:	02012823          	sw	zero,48(sp)
   23f00:	ffdfe06f          	j	22efc <__subtf3+0x518>

00023f04 <__fixtfsi>:
   23f04:	00c52703          	lw	a4,12(a0)
   23f08:	00852783          	lw	a5,8(a0)
   23f0c:	00452683          	lw	a3,4(a0)
   23f10:	00052603          	lw	a2,0(a0)
   23f14:	fe010113          	addi	sp,sp,-32
   23f18:	00f12423          	sw	a5,8(sp)
   23f1c:	00e12623          	sw	a4,12(sp)
   23f20:	00f12c23          	sw	a5,24(sp)
   23f24:	01071593          	slli	a1,a4,0x10
   23f28:	00171793          	slli	a5,a4,0x1
   23f2c:	01f75813          	srli	a6,a4,0x1f
   23f30:	00004737          	lui	a4,0x4
   23f34:	00d12223          	sw	a3,4(sp)
   23f38:	00d12a23          	sw	a3,20(sp)
   23f3c:	00c12023          	sw	a2,0(sp)
   23f40:	0117d693          	srli	a3,a5,0x11
   23f44:	00c12823          	sw	a2,16(sp)
   23f48:	ffe70793          	addi	a5,a4,-2 # 3ffe <threadsense.2617+0x3ffe>
   23f4c:	00000513          	li	a0,0
   23f50:	00d7dc63          	bge	a5,a3,23f68 <__fixtfsi+0x64>
   23f54:	01d70793          	addi	a5,a4,29
   23f58:	00d7dc63          	bge	a5,a3,23f70 <__fixtfsi+0x6c>
   23f5c:	80000537          	lui	a0,0x80000
   23f60:	fff54513          	not	a0,a0
   23f64:	00a80533          	add	a0,a6,a0
   23f68:	02010113          	addi	sp,sp,32
   23f6c:	00008067          	ret
   23f70:	000107b7          	lui	a5,0x10
   23f74:	0105d593          	srli	a1,a1,0x10
   23f78:	00f5e5b3          	or	a1,a1,a5
   23f7c:	06f70793          	addi	a5,a4,111
   23f80:	40d787b3          	sub	a5,a5,a3
   23f84:	4057d713          	srai	a4,a5,0x5
   23f88:	00b12e23          	sw	a1,28(sp)
   23f8c:	01f7f793          	andi	a5,a5,31
   23f90:	08079863          	bnez	a5,24020 <__fixtfsi+0x11c>
   23f94:	00271793          	slli	a5,a4,0x2
   23f98:	02010693          	addi	a3,sp,32
   23f9c:	00f687b3          	add	a5,a3,a5
   23fa0:	ff07a783          	lw	a5,-16(a5) # fff0 <threadsense.2617+0xfff0>
   23fa4:	00200613          	li	a2,2
   23fa8:	00f12823          	sw	a5,16(sp)
   23fac:	00200793          	li	a5,2
   23fb0:	00e78463          	beq	a5,a4,23fb8 <__fixtfsi+0xb4>
   23fb4:	00100613          	li	a2,1
   23fb8:	00400713          	li	a4,4
   23fbc:	00261793          	slli	a5,a2,0x2
   23fc0:	01010693          	addi	a3,sp,16
   23fc4:	00f687b3          	add	a5,a3,a5
   23fc8:	0007a023          	sw	zero,0(a5)
   23fcc:	00160613          	addi	a2,a2,1
   23fd0:	fee616e3          	bne	a2,a4,23fbc <__fixtfsi+0xb8>
   23fd4:	01012503          	lw	a0,16(sp)
   23fd8:	f80808e3          	beqz	a6,23f68 <__fixtfsi+0x64>
   23fdc:	40a00533          	neg	a0,a0
   23fe0:	f89ff06f          	j	23f68 <__fixtfsi+0x64>
   23fe4:	ff062683          	lw	a3,-16(a2)
   23fe8:	ff072303          	lw	t1,-16(a4)
   23fec:	011696b3          	sll	a3,a3,a7
   23ff0:	00f35333          	srl	t1,t1,a5
   23ff4:	0066e6b3          	or	a3,a3,t1
   23ff8:	00d12823          	sw	a3,16(sp)
   23ffc:	00100693          	li	a3,1
   24000:	fea6c2e3          	blt	a3,a0,23fe4 <__fixtfsi+0xe0>
   24004:	00168613          	addi	a2,a3,1
   24008:	02010713          	addi	a4,sp,32
   2400c:	00269693          	slli	a3,a3,0x2
   24010:	00d706b3          	add	a3,a4,a3
   24014:	00f5d7b3          	srl	a5,a1,a5
   24018:	fef6a823          	sw	a5,-16(a3)
   2401c:	f9dff06f          	j	23fb8 <__fixtfsi+0xb4>
   24020:	00170613          	addi	a2,a4,1
   24024:	02010893          	addi	a7,sp,32
   24028:	00300513          	li	a0,3
   2402c:	00261613          	slli	a2,a2,0x2
   24030:	40e50533          	sub	a0,a0,a4
   24034:	00c88633          	add	a2,a7,a2
   24038:	00271713          	slli	a4,a4,0x2
   2403c:	02000893          	li	a7,32
   24040:	02010313          	addi	t1,sp,32
   24044:	00000693          	li	a3,0
   24048:	40f888b3          	sub	a7,a7,a5
   2404c:	00e30733          	add	a4,t1,a4
   24050:	fb1ff06f          	j	24000 <__fixtfsi+0xfc>

00024054 <__floatsitf>:
   24054:	fd010113          	addi	sp,sp,-48
   24058:	02912223          	sw	s1,36(sp)
   2405c:	02112623          	sw	ra,44(sp)
   24060:	02812423          	sw	s0,40(sp)
   24064:	03212023          	sw	s2,32(sp)
   24068:	00050493          	mv	s1,a0
   2406c:	14058c63          	beqz	a1,241c4 <__floatsitf+0x170>
   24070:	41f5d793          	srai	a5,a1,0x1f
   24074:	00b7c433          	xor	s0,a5,a1
   24078:	40f40433          	sub	s0,s0,a5
   2407c:	00040513          	mv	a0,s0
   24080:	01f5d913          	srli	s2,a1,0x1f
   24084:	b58ed0ef          	jal	ra,113dc <__clzsi2>
   24088:	000045b7          	lui	a1,0x4
   2408c:	01e58593          	addi	a1,a1,30 # 401e <threadsense.2617+0x401e>
   24090:	40a585b3          	sub	a1,a1,a0
   24094:	05150513          	addi	a0,a0,81 # 80000051 <__global_pointer$+0x7ffd7d81>
   24098:	00812823          	sw	s0,16(sp)
   2409c:	00012a23          	sw	zero,20(sp)
   240a0:	00012c23          	sw	zero,24(sp)
   240a4:	00012e23          	sw	zero,28(sp)
   240a8:	01f57693          	andi	a3,a0,31
   240ac:	04068063          	beqz	a3,240ec <__floatsitf+0x98>
   240b0:	05f00713          	li	a4,95
   240b4:	00300793          	li	a5,3
   240b8:	00a74c63          	blt	a4,a0,240d0 <__floatsitf+0x7c>
   240bc:	02000793          	li	a5,32
   240c0:	40d787b3          	sub	a5,a5,a3
   240c4:	00f457b3          	srl	a5,s0,a5
   240c8:	00f12e23          	sw	a5,28(sp)
   240cc:	00200793          	li	a5,2
   240d0:	fff78713          	addi	a4,a5,-1
   240d4:	02010613          	addi	a2,sp,32
   240d8:	00279793          	slli	a5,a5,0x2
   240dc:	00f607b3          	add	a5,a2,a5
   240e0:	00d41433          	sll	s0,s0,a3
   240e4:	fe87a823          	sw	s0,-16(a5)
   240e8:	0500006f          	j	24138 <__floatsitf+0xe4>
   240ec:	40555693          	srai	a3,a0,0x5
   240f0:	00300713          	li	a4,3
   240f4:	40d70733          	sub	a4,a4,a3
   240f8:	02010793          	addi	a5,sp,32
   240fc:	00271713          	slli	a4,a4,0x2
   24100:	00e78733          	add	a4,a5,a4
   24104:	ff072783          	lw	a5,-16(a4)
   24108:	00200713          	li	a4,2
   2410c:	00f12e23          	sw	a5,28(sp)
   24110:	05f00793          	li	a5,95
   24114:	02a7c263          	blt	a5,a0,24138 <__floatsitf+0xe4>
   24118:	00200793          	li	a5,2
   2411c:	40d787b3          	sub	a5,a5,a3
   24120:	02010713          	addi	a4,sp,32
   24124:	00279793          	slli	a5,a5,0x2
   24128:	00f707b3          	add	a5,a4,a5
   2412c:	ff07a783          	lw	a5,-16(a5)
   24130:	00100713          	li	a4,1
   24134:	00f12c23          	sw	a5,24(sp)
   24138:	fff00693          	li	a3,-1
   2413c:	00271793          	slli	a5,a4,0x2
   24140:	01010613          	addi	a2,sp,16
   24144:	00f607b3          	add	a5,a2,a5
   24148:	0007a023          	sw	zero,0(a5)
   2414c:	fff70713          	addi	a4,a4,-1
   24150:	fed716e3          	bne	a4,a3,2413c <__floatsitf+0xe8>
   24154:	01c12783          	lw	a5,28(sp)
   24158:	01159593          	slli	a1,a1,0x11
   2415c:	80010737          	lui	a4,0x80010
   24160:	00f11623          	sh	a5,12(sp)
   24164:	00c12783          	lw	a5,12(sp)
   24168:	0115d593          	srli	a1,a1,0x11
   2416c:	fff70713          	addi	a4,a4,-1 # 8000ffff <__global_pointer$+0x7ffe7d2f>
   24170:	00e7f7b3          	and	a5,a5,a4
   24174:	01059593          	slli	a1,a1,0x10
   24178:	00b7e5b3          	or	a1,a5,a1
   2417c:	01012783          	lw	a5,16(sp)
   24180:	00159593          	slli	a1,a1,0x1
   24184:	01f91913          	slli	s2,s2,0x1f
   24188:	00f4a023          	sw	a5,0(s1)
   2418c:	01412783          	lw	a5,20(sp)
   24190:	02c12083          	lw	ra,44(sp)
   24194:	02812403          	lw	s0,40(sp)
   24198:	00f4a223          	sw	a5,4(s1)
   2419c:	01812783          	lw	a5,24(sp)
   241a0:	0015d593          	srli	a1,a1,0x1
   241a4:	0125e5b3          	or	a1,a1,s2
   241a8:	00f4a423          	sw	a5,8(s1)
   241ac:	00b4a623          	sw	a1,12(s1)
   241b0:	00048513          	mv	a0,s1
   241b4:	02012903          	lw	s2,32(sp)
   241b8:	02412483          	lw	s1,36(sp)
   241bc:	03010113          	addi	sp,sp,48
   241c0:	00008067          	ret
   241c4:	00012e23          	sw	zero,28(sp)
   241c8:	00012c23          	sw	zero,24(sp)
   241cc:	00012a23          	sw	zero,20(sp)
   241d0:	00012823          	sw	zero,16(sp)
   241d4:	00000913          	li	s2,0
   241d8:	f7dff06f          	j	24154 <__floatsitf+0x100>

000241dc <__extenddftf2>:
   241dc:	01465793          	srli	a5,a2,0x14
   241e0:	00c61713          	slli	a4,a2,0xc
   241e4:	7ff7f793          	andi	a5,a5,2047
   241e8:	fd010113          	addi	sp,sp,-48
   241ec:	00c75713          	srli	a4,a4,0xc
   241f0:	00178693          	addi	a3,a5,1
   241f4:	02812423          	sw	s0,40(sp)
   241f8:	02912223          	sw	s1,36(sp)
   241fc:	02112623          	sw	ra,44(sp)
   24200:	00b12823          	sw	a1,16(sp)
   24204:	00e12a23          	sw	a4,20(sp)
   24208:	00012e23          	sw	zero,28(sp)
   2420c:	00012c23          	sw	zero,24(sp)
   24210:	7fe6f693          	andi	a3,a3,2046
   24214:	00050493          	mv	s1,a0
   24218:	01f65413          	srli	s0,a2,0x1f
   2421c:	0a068063          	beqz	a3,242bc <__extenddftf2+0xe0>
   24220:	000046b7          	lui	a3,0x4
   24224:	c0068693          	addi	a3,a3,-1024 # 3c00 <threadsense.2617+0x3c00>
   24228:	0045d513          	srli	a0,a1,0x4
   2422c:	00d787b3          	add	a5,a5,a3
   24230:	00475693          	srli	a3,a4,0x4
   24234:	01c71713          	slli	a4,a4,0x1c
   24238:	00a76733          	or	a4,a4,a0
   2423c:	01c59593          	slli	a1,a1,0x1c
   24240:	00d12e23          	sw	a3,28(sp)
   24244:	00e12c23          	sw	a4,24(sp)
   24248:	00b12a23          	sw	a1,20(sp)
   2424c:	00012823          	sw	zero,16(sp)
   24250:	01c12703          	lw	a4,28(sp)
   24254:	01179793          	slli	a5,a5,0x11
   24258:	800106b7          	lui	a3,0x80010
   2425c:	00e11623          	sh	a4,12(sp)
   24260:	00c12703          	lw	a4,12(sp)
   24264:	0117d793          	srli	a5,a5,0x11
   24268:	fff68693          	addi	a3,a3,-1 # 8000ffff <__global_pointer$+0x7ffe7d2f>
   2426c:	00d77733          	and	a4,a4,a3
   24270:	01079793          	slli	a5,a5,0x10
   24274:	00f767b3          	or	a5,a4,a5
   24278:	01012703          	lw	a4,16(sp)
   2427c:	00179793          	slli	a5,a5,0x1
   24280:	01f41413          	slli	s0,s0,0x1f
   24284:	00e4a023          	sw	a4,0(s1)
   24288:	01412703          	lw	a4,20(sp)
   2428c:	0017d793          	srli	a5,a5,0x1
   24290:	0087e7b3          	or	a5,a5,s0
   24294:	00e4a223          	sw	a4,4(s1)
   24298:	01812703          	lw	a4,24(sp)
   2429c:	02c12083          	lw	ra,44(sp)
   242a0:	02812403          	lw	s0,40(sp)
   242a4:	00e4a423          	sw	a4,8(s1)
   242a8:	00f4a623          	sw	a5,12(s1)
   242ac:	00048513          	mv	a0,s1
   242b0:	02412483          	lw	s1,36(sp)
   242b4:	03010113          	addi	sp,sp,48
   242b8:	00008067          	ret
   242bc:	00b76533          	or	a0,a4,a1
   242c0:	0e079663          	bnez	a5,243ac <__extenddftf2+0x1d0>
   242c4:	f80506e3          	beqz	a0,24250 <__extenddftf2+0x74>
   242c8:	04070e63          	beqz	a4,24324 <__extenddftf2+0x148>
   242cc:	00070513          	mv	a0,a4
   242d0:	90ced0ef          	jal	ra,113dc <__clzsi2>
   242d4:	03150613          	addi	a2,a0,49
   242d8:	40565713          	srai	a4,a2,0x5
   242dc:	01f67613          	andi	a2,a2,31
   242e0:	04060863          	beqz	a2,24330 <__extenddftf2+0x154>
   242e4:	ffc00693          	li	a3,-4
   242e8:	02d706b3          	mul	a3,a4,a3
   242ec:	01010313          	addi	t1,sp,16
   242f0:	02000793          	li	a5,32
   242f4:	00271813          	slli	a6,a4,0x2
   242f8:	40c787b3          	sub	a5,a5,a2
   242fc:	00c68693          	addi	a3,a3,12
   24300:	00d306b3          	add	a3,t1,a3
   24304:	08d31263          	bne	t1,a3,24388 <__extenddftf2+0x1ac>
   24308:	02010793          	addi	a5,sp,32
   2430c:	01078833          	add	a6,a5,a6
   24310:	01012783          	lw	a5,16(sp)
   24314:	fff70713          	addi	a4,a4,-1
   24318:	00c79633          	sll	a2,a5,a2
   2431c:	fec82823          	sw	a2,-16(a6)
   24320:	03c0006f          	j	2435c <__extenddftf2+0x180>
   24324:	8b8ed0ef          	jal	ra,113dc <__clzsi2>
   24328:	02050513          	addi	a0,a0,32
   2432c:	fa9ff06f          	j	242d4 <__extenddftf2+0xf8>
   24330:	ffc00613          	li	a2,-4
   24334:	02c70633          	mul	a2,a4,a2
   24338:	01c10693          	addi	a3,sp,28
   2433c:	00300793          	li	a5,3
   24340:	00c685b3          	add	a1,a3,a2
   24344:	0005a583          	lw	a1,0(a1)
   24348:	fff78793          	addi	a5,a5,-1
   2434c:	ffc68693          	addi	a3,a3,-4
   24350:	00b6a223          	sw	a1,4(a3)
   24354:	fee7d6e3          	bge	a5,a4,24340 <__extenddftf2+0x164>
   24358:	fff70713          	addi	a4,a4,-1
   2435c:	fff00693          	li	a3,-1
   24360:	00271793          	slli	a5,a4,0x2
   24364:	01010613          	addi	a2,sp,16
   24368:	00f607b3          	add	a5,a2,a5
   2436c:	0007a023          	sw	zero,0(a5)
   24370:	fff70713          	addi	a4,a4,-1
   24374:	fed716e3          	bne	a4,a3,24360 <__extenddftf2+0x184>
   24378:	000047b7          	lui	a5,0x4
   2437c:	c0c78793          	addi	a5,a5,-1012 # 3c0c <threadsense.2617+0x3c0c>
   24380:	40a787b3          	sub	a5,a5,a0
   24384:	ecdff06f          	j	24250 <__extenddftf2+0x74>
   24388:	ffc6a583          	lw	a1,-4(a3)
   2438c:	0006a883          	lw	a7,0(a3)
   24390:	01068e33          	add	t3,a3,a6
   24394:	00f5d5b3          	srl	a1,a1,a5
   24398:	00c898b3          	sll	a7,a7,a2
   2439c:	0115e5b3          	or	a1,a1,a7
   243a0:	00be2023          	sw	a1,0(t3)
   243a4:	ffc68693          	addi	a3,a3,-4
   243a8:	f5dff06f          	j	24304 <__extenddftf2+0x128>
   243ac:	000087b7          	lui	a5,0x8
   243b0:	02050863          	beqz	a0,243e0 <__extenddftf2+0x204>
   243b4:	01c71793          	slli	a5,a4,0x1c
   243b8:	0045d693          	srli	a3,a1,0x4
   243bc:	00d7e7b3          	or	a5,a5,a3
   243c0:	00f12c23          	sw	a5,24(sp)
   243c4:	00475713          	srli	a4,a4,0x4
   243c8:	000087b7          	lui	a5,0x8
   243cc:	01c59593          	slli	a1,a1,0x1c
   243d0:	00f76733          	or	a4,a4,a5
   243d4:	00b12a23          	sw	a1,20(sp)
   243d8:	00012823          	sw	zero,16(sp)
   243dc:	00e12e23          	sw	a4,28(sp)
   243e0:	fff78793          	addi	a5,a5,-1 # 7fff <threadsense.2617+0x7fff>
   243e4:	e6dff06f          	j	24250 <__extenddftf2+0x74>

000243e8 <__trunctfdf2>:
   243e8:	00c52583          	lw	a1,12(a0)
   243ec:	00852783          	lw	a5,8(a0)
   243f0:	00452703          	lw	a4,4(a0)
   243f4:	fe010113          	addi	sp,sp,-32
   243f8:	00052683          	lw	a3,0(a0)
   243fc:	00f12423          	sw	a5,8(sp)
   24400:	00f12c23          	sw	a5,24(sp)
   24404:	01059793          	slli	a5,a1,0x10
   24408:	00e12223          	sw	a4,4(sp)
   2440c:	00e12a23          	sw	a4,20(sp)
   24410:	0107d793          	srli	a5,a5,0x10
   24414:	00159713          	slli	a4,a1,0x1
   24418:	00b12623          	sw	a1,12(sp)
   2441c:	00d12023          	sw	a3,0(sp)
   24420:	00d12823          	sw	a3,16(sp)
   24424:	00f12e23          	sw	a5,28(sp)
   24428:	01175713          	srli	a4,a4,0x11
   2442c:	01f5d593          	srli	a1,a1,0x1f
   24430:	01010313          	addi	t1,sp,16
   24434:	01c10613          	addi	a2,sp,28
   24438:	00062783          	lw	a5,0(a2)
   2443c:	ffc62683          	lw	a3,-4(a2)
   24440:	ffc60613          	addi	a2,a2,-4
   24444:	00379793          	slli	a5,a5,0x3
   24448:	01d6d693          	srli	a3,a3,0x1d
   2444c:	00d7e7b3          	or	a5,a5,a3
   24450:	00f62223          	sw	a5,4(a2)
   24454:	fec312e3          	bne	t1,a2,24438 <__trunctfdf2+0x50>
   24458:	01012683          	lw	a3,16(sp)
   2445c:	00170793          	addi	a5,a4,1
   24460:	00369513          	slli	a0,a3,0x3
   24464:	000086b7          	lui	a3,0x8
   24468:	ffe68693          	addi	a3,a3,-2 # 7ffe <threadsense.2617+0x7ffe>
   2446c:	00a12823          	sw	a0,16(sp)
   24470:	00d7f7b3          	and	a5,a5,a3
   24474:	1a078a63          	beqz	a5,24628 <__trunctfdf2+0x240>
   24478:	ffffc7b7          	lui	a5,0xffffc
   2447c:	40078793          	addi	a5,a5,1024 # ffffc400 <__global_pointer$+0xfffd4130>
   24480:	00f70733          	add	a4,a4,a5
   24484:	7fe00793          	li	a5,2046
   24488:	1ee7cc63          	blt	a5,a4,24680 <__trunctfdf2+0x298>
   2448c:	06e05863          	blez	a4,244fc <__trunctfdf2+0x114>
   24490:	01812803          	lw	a6,24(sp)
   24494:	01c12603          	lw	a2,28(sp)
   24498:	01412783          	lw	a5,20(sp)
   2449c:	01c85693          	srli	a3,a6,0x1c
   244a0:	00461613          	slli	a2,a2,0x4
   244a4:	00d66633          	or	a2,a2,a3
   244a8:	00479693          	slli	a3,a5,0x4
   244ac:	00a6e6b3          	or	a3,a3,a0
   244b0:	01c7d793          	srli	a5,a5,0x1c
   244b4:	00481813          	slli	a6,a6,0x4
   244b8:	00d036b3          	snez	a3,a3
   244bc:	0107e7b3          	or	a5,a5,a6
   244c0:	00f6e6b3          	or	a3,a3,a5
   244c4:	00c12a23          	sw	a2,20(sp)
   244c8:	00d12823          	sw	a3,16(sp)
   244cc:	01012683          	lw	a3,16(sp)
   244d0:	01412783          	lw	a5,20(sp)
   244d4:	0076f613          	andi	a2,a3,7
   244d8:	1a060a63          	beqz	a2,2468c <__trunctfdf2+0x2a4>
   244dc:	00f6f613          	andi	a2,a3,15
   244e0:	00400513          	li	a0,4
   244e4:	1aa60463          	beq	a2,a0,2468c <__trunctfdf2+0x2a4>
   244e8:	00468613          	addi	a2,a3,4
   244ec:	00d636b3          	sltu	a3,a2,a3
   244f0:	00d787b3          	add	a5,a5,a3
   244f4:	00060693          	mv	a3,a2
   244f8:	1940006f          	j	2468c <__trunctfdf2+0x2a4>
   244fc:	fcc00793          	li	a5,-52
   24500:	00f75c63          	bge	a4,a5,24518 <__trunctfdf2+0x130>
   24504:	00012a23          	sw	zero,20(sp)
   24508:	00100793          	li	a5,1
   2450c:	00f12823          	sw	a5,16(sp)
   24510:	00000713          	li	a4,0
   24514:	fb9ff06f          	j	244cc <__trunctfdf2+0xe4>
   24518:	01c12783          	lw	a5,28(sp)
   2451c:	000806b7          	lui	a3,0x80
   24520:	00000e13          	li	t3,0
   24524:	00d7e7b3          	or	a5,a5,a3
   24528:	00f12e23          	sw	a5,28(sp)
   2452c:	03d00793          	li	a5,61
   24530:	40e78733          	sub	a4,a5,a4
   24534:	40575513          	srai	a0,a4,0x5
   24538:	00030693          	mv	a3,t1
   2453c:	01f77713          	andi	a4,a4,31
   24540:	00000793          	li	a5,0
   24544:	0006a803          	lw	a6,0(a3) # 80000 <__global_pointer$+0x57d30>
   24548:	00178793          	addi	a5,a5,1
   2454c:	00468693          	addi	a3,a3,4
   24550:	010e6e33          	or	t3,t3,a6
   24554:	fef518e3          	bne	a0,a5,24544 <__trunctfdf2+0x15c>
   24558:	00251693          	slli	a3,a0,0x2
   2455c:	04071663          	bnez	a4,245a8 <__trunctfdf2+0x1c0>
   24560:	00300793          	li	a5,3
   24564:	40a78533          	sub	a0,a5,a0
   24568:	00d607b3          	add	a5,a2,a3
   2456c:	0007a783          	lw	a5,0(a5)
   24570:	00170713          	addi	a4,a4,1
   24574:	00460613          	addi	a2,a2,4
   24578:	fef62e23          	sw	a5,-4(a2)
   2457c:	fee556e3          	bge	a0,a4,24568 <__trunctfdf2+0x180>
   24580:	00400693          	li	a3,4
   24584:	00271793          	slli	a5,a4,0x2
   24588:	00f307b3          	add	a5,t1,a5
   2458c:	0007a023          	sw	zero,0(a5)
   24590:	00170713          	addi	a4,a4,1
   24594:	fed718e3          	bne	a4,a3,24584 <__trunctfdf2+0x19c>
   24598:	01012703          	lw	a4,16(sp)
   2459c:	01c037b3          	snez	a5,t3
   245a0:	00f767b3          	or	a5,a4,a5
   245a4:	f69ff06f          	j	2450c <__trunctfdf2+0x124>
   245a8:	02010793          	addi	a5,sp,32
   245ac:	00d787b3          	add	a5,a5,a3
   245b0:	ff07a783          	lw	a5,-16(a5)
   245b4:	02000893          	li	a7,32
   245b8:	40e888b3          	sub	a7,a7,a4
   245bc:	011797b3          	sll	a5,a5,a7
   245c0:	00fe6e33          	or	t3,t3,a5
   245c4:	00300793          	li	a5,3
   245c8:	00d306b3          	add	a3,t1,a3
   245cc:	00000813          	li	a6,0
   245d0:	40a787b3          	sub	a5,a5,a0
   245d4:	00468693          	addi	a3,a3,4
   245d8:	02f84463          	blt	a6,a5,24600 <__trunctfdf2+0x218>
   245dc:	02010693          	addi	a3,sp,32
   245e0:	00279793          	slli	a5,a5,0x2
   245e4:	00f687b3          	add	a5,a3,a5
   245e8:	01c12683          	lw	a3,28(sp)
   245ec:	00e6d733          	srl	a4,a3,a4
   245f0:	fee7a823          	sw	a4,-16(a5)
   245f4:	00400713          	li	a4,4
   245f8:	40a70733          	sub	a4,a4,a0
   245fc:	f85ff06f          	j	24580 <__trunctfdf2+0x198>
   24600:	ffc6a603          	lw	a2,-4(a3)
   24604:	0006af03          	lw	t5,0(a3)
   24608:	00281e93          	slli	t4,a6,0x2
   2460c:	00e65633          	srl	a2,a2,a4
   24610:	011f1f33          	sll	t5,t5,a7
   24614:	01d30eb3          	add	t4,t1,t4
   24618:	01e66633          	or	a2,a2,t5
   2461c:	00cea023          	sw	a2,0(t4)
   24620:	00180813          	addi	a6,a6,1
   24624:	fb1ff06f          	j	245d4 <__trunctfdf2+0x1ec>
   24628:	01412603          	lw	a2,20(sp)
   2462c:	01812783          	lw	a5,24(sp)
   24630:	01c12803          	lw	a6,28(sp)
   24634:	00f666b3          	or	a3,a2,a5
   24638:	0106e6b3          	or	a3,a3,a6
   2463c:	00a6e6b3          	or	a3,a3,a0
   24640:	00071863          	bnez	a4,24650 <__trunctfdf2+0x268>
   24644:	00d036b3          	snez	a3,a3
   24648:	00000793          	li	a5,0
   2464c:	e89ff06f          	j	244d4 <__trunctfdf2+0xec>
   24650:	0a068c63          	beqz	a3,24708 <__trunctfdf2+0x320>
   24654:	01c65693          	srli	a3,a2,0x1c
   24658:	00481813          	slli	a6,a6,0x4
   2465c:	00479613          	slli	a2,a5,0x4
   24660:	01c7d793          	srli	a5,a5,0x1c
   24664:	00400737          	lui	a4,0x400
   24668:	00c6e6b3          	or	a3,a3,a2
   2466c:	0107e7b3          	or	a5,a5,a6
   24670:	00e7e7b3          	or	a5,a5,a4
   24674:	ff86f693          	andi	a3,a3,-8
   24678:	7ff00713          	li	a4,2047
   2467c:	e59ff06f          	j	244d4 <__trunctfdf2+0xec>
   24680:	00000793          	li	a5,0
   24684:	00000693          	li	a3,0
   24688:	7ff00713          	li	a4,2047
   2468c:	00879613          	slli	a2,a5,0x8
   24690:	00065e63          	bgez	a2,246ac <__trunctfdf2+0x2c4>
   24694:	00170713          	addi	a4,a4,1 # 400001 <__global_pointer$+0x3d7d31>
   24698:	7ff00613          	li	a2,2047
   2469c:	06c70a63          	beq	a4,a2,24710 <__trunctfdf2+0x328>
   246a0:	ff800637          	lui	a2,0xff800
   246a4:	fff60613          	addi	a2,a2,-1 # ff7fffff <__global_pointer$+0xff7d7d2f>
   246a8:	00c7f7b3          	and	a5,a5,a2
   246ac:	01d79613          	slli	a2,a5,0x1d
   246b0:	0036d693          	srli	a3,a3,0x3
   246b4:	00d666b3          	or	a3,a2,a3
   246b8:	7ff00613          	li	a2,2047
   246bc:	0037d793          	srli	a5,a5,0x3
   246c0:	00c71e63          	bne	a4,a2,246dc <__trunctfdf2+0x2f4>
   246c4:	00f6e6b3          	or	a3,a3,a5
   246c8:	00000793          	li	a5,0
   246cc:	00068863          	beqz	a3,246dc <__trunctfdf2+0x2f4>
   246d0:	000807b7          	lui	a5,0x80
   246d4:	00000693          	li	a3,0
   246d8:	00000593          	li	a1,0
   246dc:	00c79793          	slli	a5,a5,0xc
   246e0:	7ff77713          	andi	a4,a4,2047
   246e4:	01471713          	slli	a4,a4,0x14
   246e8:	00c7d793          	srli	a5,a5,0xc
   246ec:	01f59593          	slli	a1,a1,0x1f
   246f0:	00e7e7b3          	or	a5,a5,a4
   246f4:	00b7e733          	or	a4,a5,a1
   246f8:	00068513          	mv	a0,a3
   246fc:	00070593          	mv	a1,a4
   24700:	02010113          	addi	sp,sp,32
   24704:	00008067          	ret
   24708:	00000793          	li	a5,0
   2470c:	f7dff06f          	j	24688 <__trunctfdf2+0x2a0>
   24710:	00000793          	li	a5,0
   24714:	00000693          	li	a3,0
   24718:	f95ff06f          	j	246ac <__trunctfdf2+0x2c4>

0002471c <register_fini>:
   2471c:	fffdc797          	auipc	a5,0xfffdc
   24720:	8e478793          	addi	a5,a5,-1820 # 0 <threadsense.2617>
   24724:	00078863          	beqz	a5,24734 <register_fini+0x18>
   24728:	fffed517          	auipc	a0,0xfffed
   2472c:	d5450513          	addi	a0,a0,-684 # 1147c <__libc_fini_array>
   24730:	cf9ec06f          	j	11428 <atexit>
   24734:	00008067          	ret
